 csgo-x86

 Timestamp is 63e17200 (Mon Feb  6 22:32:48 2023)

 Preferred load address is 10000000

 Start         Length     Name                   Class
 0001:00000000 00003780H .text                   CODE
 0001:00003780 00008630H .text$di                CODE
 0001:0000bdb0 0017f900H .text$mn                CODE
 0001:0018b6b0 000008aaH .text$yd                CODE
 0002:00000000 0001ff3aH .init                   CODE
 0003:00000000 000104f6H .prot3                  CODE
 0004:00000000 00000a29H .prot2                  CODE
 0005:00000000 00000f41H .prot0                  CODE
 0006:00000000 00000766H .prot1                  CODE
 0007:00000000 00000280H .idata$5                DATA
 0007:00000280 00000004H .CRT$XCA                DATA
 0007:00000284 00000620H .CRT$XCU                DATA
 0007:000008a4 00000004H .CRT$XCZ                DATA
 0007:000008a8 00000004H .CRT$XIA                DATA
 0007:000008ac 00000004H .CRT$XIZ                DATA
 0007:000008b0 00000004H .CRT$XPA                DATA
 0007:000008b4 00000004H .CRT$XPZ                DATA
 0007:000008b8 00000004H .CRT$XTA                DATA
 0007:000008bc 00000004H .CRT$XTZ                DATA
 0007:000008c0 000b8080H .rdata                  DATA
 0007:000b8940 00000010H .rdata$Z                DATA
 0007:000b894d 00000000H .edata                  DATA
 0007:000b8950 000159acH .rdata$voltmd           DATA
 0007:000ce2fc 00000078H .idata$2                DATA
 0007:000ce374 00000014H .idata$3                DATA
 0007:000ce388 00000280H .idata$4                DATA
 0007:000ce608 00000958H .idata$6                DATA
 0008:00000000 00003288H .data                   DATA
 0008:00003288 00000cb4H .bss                    DATA
 0009:00000000 00000498H .ldr                    DATA

  Address         Publics by Value              Rva+Base       Lib:Object

 0000:00000000       ___AbsoluteZero            00000000     <absolute>
 0000:00000000       ___arm64x_extra_rfe_table  00000000     <absolute>
 0000:00000000       ___arm64x_extra_rfe_table_size 00000000     <absolute>
 0000:00000000       ___arm64x_native_entrypoint 00000000     <absolute>
 0000:00000000       ___arm64x_redirection_metadata 00000000     <absolute>
 0000:00000000       ___arm64x_redirection_metadata_count 00000000     <absolute>
 0000:00000000       ___dynamic_value_reloc_table 00000000     <absolute>
 0000:00000000       ___enclave_config          00000000     <absolute>
 0000:00000000       ___guard_check_icall_a64n_fptr 00000000     <absolute>
 0000:00000000       ___guard_eh_cont_count     00000000     <absolute>
 0000:00000000       ___guard_eh_cont_table     00000000     <absolute>
 0000:00000000       ___guard_fids_count        00000000     <absolute>
 0000:00000000       ___guard_fids_table        00000000     <absolute>
 0000:00000000       ___guard_flags             00000000     <absolute>
 0000:00000000       ___guard_iat_count         00000000     <absolute>
 0000:00000000       ___guard_iat_table         00000000     <absolute>
 0000:00000000       ___guard_longjmp_count     00000000     <absolute>
 0000:00000000       ___guard_longjmp_table     00000000     <absolute>
 0000:00000000       ___hybrid_auxiliary_iat    00000000     <absolute>
 0000:00000000       ___hybrid_auxiliary_iat_copy 00000000     <absolute>
 0000:00000000       ___hybrid_code_map         00000000     <absolute>
 0000:00000000       ___hybrid_code_map_count   00000000     <absolute>
 0000:00000000       ___x64_code_ranges_to_entry_points 00000000     <absolute>
 0000:00000000       ___x64_code_ranges_to_entry_points_count 00000000     <absolute>
 0001:00000000       _lj_BC_ISLT                10001000 f   luajit-x86:lj_vm_x86.obj
 0001:00000000       _lj_vm_asm_begin           10001000     luajit-x86:lj_vm_x86.obj
 0001:00000041       _lj_BC_ISGE                10001041 f   luajit-x86:lj_vm_x86.obj
 0001:00000082       _lj_BC_ISLE                10001082 f   luajit-x86:lj_vm_x86.obj
 0001:000000c3       _lj_BC_ISGT                100010c3 f   luajit-x86:lj_vm_x86.obj
 0001:00000104       _lj_BC_ISEQV               10001104 f   luajit-x86:lj_vm_x86.obj
 0001:00000183       _lj_BC_ISNEV               10001183 f   luajit-x86:lj_vm_x86.obj
 0001:00000205       _lj_BC_ISEQS               10001205 f   luajit-x86:lj_vm_x86.obj
 0001:00000241       _lj_BC_ISNES               10001241 f   luajit-x86:lj_vm_x86.obj
 0001:0000027d       _lj_BC_ISEQN               1000127d f   luajit-x86:lj_vm_x86.obj
 0001:000002bd       _lj_BC_ISNEN               100012bd f   luajit-x86:lj_vm_x86.obj
 0001:000002fd       _lj_BC_ISEQP               100012fd f   luajit-x86:lj_vm_x86.obj
 0001:00000330       _lj_BC_ISNEP               10001330 f   luajit-x86:lj_vm_x86.obj
 0001:00000362       _lj_BC_ISTC                10001362 f   luajit-x86:lj_vm_x86.obj
 0001:00000394       _lj_BC_ISFC                10001394 f   luajit-x86:lj_vm_x86.obj
 0001:000003c6       _lj_BC_IST                 100013c6 f   luajit-x86:lj_vm_x86.obj
 0001:000003ee       _lj_BC_ISF                 100013ee f   luajit-x86:lj_vm_x86.obj
 0001:00000416       _lj_BC_ISTYPE              10001416 f   luajit-x86:lj_vm_x86.obj
 0001:00000431       _lj_BC_ISNUM               10001431 f   luajit-x86:lj_vm_x86.obj
 0001:0000044d       _lj_BC_MOV                 1000144d f   luajit-x86:lj_vm_x86.obj
 0001:0000046c       _lj_BC_NOT                 1000146c f   luajit-x86:lj_vm_x86.obj
 0001:0000048b       _lj_BC_UNM                 1000148b f   luajit-x86:lj_vm_x86.obj
 0001:000004c2       _lj_BC_LEN                 100014c2 f   luajit-x86:lj_vm_x86.obj
 0001:0000050b       _lj_BC_ADDVN               1000150b f   luajit-x86:lj_vm_x86.obj
 0001:0000053c       _lj_BC_SUBVN               1000153c f   luajit-x86:lj_vm_x86.obj
 0001:0000056d       _lj_BC_MULVN               1000156d f   luajit-x86:lj_vm_x86.obj
 0001:0000059e       _lj_BC_DIVVN               1000159e f   luajit-x86:lj_vm_x86.obj
 0001:000005cf       _lj_BC_MODVN               100015cf f   luajit-x86:lj_vm_x86.obj
 0001:00000605       _lj_BC_ADDNV               10001605 f   luajit-x86:lj_vm_x86.obj
 0001:00000636       _lj_BC_SUBNV               10001636 f   luajit-x86:lj_vm_x86.obj
 0001:00000667       _lj_BC_MULNV               10001667 f   luajit-x86:lj_vm_x86.obj
 0001:00000698       _lj_BC_DIVNV               10001698 f   luajit-x86:lj_vm_x86.obj
 0001:000006c9       _lj_BC_MODNV               100016c9 f   luajit-x86:lj_vm_x86.obj
 0001:000006e9       _lj_BC_ADDVV               100016e9 f   luajit-x86:lj_vm_x86.obj
 0001:00000725       _lj_BC_SUBVV               10001725 f   luajit-x86:lj_vm_x86.obj
 0001:00000761       _lj_BC_MULVV               10001761 f   luajit-x86:lj_vm_x86.obj
 0001:0000079d       _lj_BC_DIVVV               1000179d f   luajit-x86:lj_vm_x86.obj
 0001:000007d9       _lj_BC_MODVV               100017d9 f   luajit-x86:lj_vm_x86.obj
 0001:00000804       _lj_BC_POW                 10001804 f   luajit-x86:lj_vm_x86.obj
 0001:00000856       _lj_BC_CAT                 10001856 f   luajit-x86:lj_vm_x86.obj
 0001:000008ae       _lj_BC_KSTR                100018ae f   luajit-x86:lj_vm_x86.obj
 0001:000008cf       _lj_BC_KCDATA              100018cf f   luajit-x86:lj_vm_x86.obj
 0001:000008f0       _lj_BC_KSHORT              100018f0 f   luajit-x86:lj_vm_x86.obj
 0001:0000090d       _lj_BC_KNUM                1000190d f   luajit-x86:lj_vm_x86.obj
 0001:00000928       _lj_BC_KPRI                10001928 f   luajit-x86:lj_vm_x86.obj
 0001:0000093f       _lj_BC_KNIL                1000193f f   luajit-x86:lj_vm_x86.obj
 0001:00000969       _lj_BC_UGET                10001969 f   luajit-x86:lj_vm_x86.obj
 0001:00000991       _lj_BC_USETV               10001991 f   luajit-x86:lj_vm_x86.obj
 0001:000009e4       _lj_BC_USETS               100019e4 f   luajit-x86:lj_vm_x86.obj
 0001:00000a32       _lj_BC_USETN               10001a32 f   luajit-x86:lj_vm_x86.obj
 0001:00000a56       _lj_BC_USETP               10001a56 f   luajit-x86:lj_vm_x86.obj
 0001:00000a76       _lj_BC_UCLO                10001a76 f   luajit-x86:lj_vm_x86.obj
 0001:00000aa8       _lj_BC_FNEW                10001aa8 f   luajit-x86:lj_vm_x86.obj
 0001:00000aee       _lj_BC_TNEW                10001aee f   luajit-x86:lj_vm_x86.obj
 0001:00000b5f       _lj_BC_TDUP                10001b5f f   luajit-x86:lj_vm_x86.obj
 0001:00000bb6       _lj_BC_GGET                10001bb6 f   luajit-x86:lj_vm_x86.obj
 0001:00000bc6       _lj_BC_GSET                10001bc6 f   luajit-x86:lj_vm_x86.obj
 0001:00000bd6       _lj_BC_TGETV               10001bd6 f   luajit-x86:lj_vm_x86.obj
 0001:00000c6b       _lj_BC_TGETS               10001c6b f   luajit-x86:lj_vm_x86.obj
 0001:00000ce9       _lj_BC_TGETB               10001ce9 f   luajit-x86:lj_vm_x86.obj
 0001:00000d50       _lj_BC_TGETR               10001d50 f   luajit-x86:lj_vm_x86.obj
 0001:00000d8a       _lj_BC_TSETV               10001d8a f   luajit-x86:lj_vm_x86.obj
 0001:00000e36       _lj_BC_TSETS               10001e36 f   luajit-x86:lj_vm_x86.obj
 0001:00000f25       _lj_BC_TSETB               10001f25 f   luajit-x86:lj_vm_x86.obj
 0001:00000fa3       _lj_BC_TSETM               10001fa3 f   luajit-x86:lj_vm_x86.obj
 0001:00001031       _lj_BC_TSETR               10002031 f   luajit-x86:lj_vm_x86.obj
 0001:0000108a       _lj_BC_CALLM               1000208a f   luajit-x86:lj_vm_x86.obj
 0001:000010b7       _lj_BC_CALL                100020b7 f   luajit-x86:lj_vm_x86.obj
 0001:000010e0       _lj_BC_CALLMT              100020e0 f   luajit-x86:lj_vm_x86.obj
 0001:000010e4       _lj_BC_CALLT               100020e4 f   luajit-x86:lj_vm_x86.obj
 0001:00001174       _lj_BC_ITERC               10002174 f   luajit-x86:lj_vm_x86.obj
 0001:000011bf       _lj_BC_ITERN               100021bf f   luajit-x86:lj_vm_x86.obj
 0001:000011d2       _lj_vm_IITERN              100021d2 f   luajit-x86:lj_vm_x86.obj
 0001:0000127a       _lj_BC_VARG                1000227a f   luajit-x86:lj_vm_x86.obj
 0001:00001336       _lj_BC_ISNEXT              10002336 f   luajit-x86:lj_vm_x86.obj
 0001:000013a8       _lj_BC_RETM                100023a8 f   luajit-x86:lj_vm_x86.obj
 0001:000013ac       _lj_BC_RET                 100023ac f   luajit-x86:lj_vm_x86.obj
 0001:0000142d       _lj_BC_RET0                1000242d f   luajit-x86:lj_vm_x86.obj
 0001:00001484       _lj_BC_RET1                10002484 f   luajit-x86:lj_vm_x86.obj
 0001:000014ed       _lj_BC_FORI                100024ed f   luajit-x86:lj_vm_x86.obj
 0001:00001544       _lj_BC_JFORI               10002544 f   luajit-x86:lj_vm_x86.obj
 0001:000015a3       _lj_BC_FORL                100025a3 f   luajit-x86:lj_vm_x86.obj
 0001:000015b6       _lj_BC_IFORL               100025b6 f   luajit-x86:lj_vm_x86.obj
 0001:000015fb       _lj_BC_JFORL               100025fb f   luajit-x86:lj_vm_x86.obj
 0001:0000163d       _lj_BC_ITERL               1000263d f   luajit-x86:lj_vm_x86.obj
 0001:00001650       _lj_BC_IITERL              10002650 f   luajit-x86:lj_vm_x86.obj
 0001:0000167b       _lj_BC_JITERL              1000267b f   luajit-x86:lj_vm_x86.obj
 0001:000016a1       _lj_BC_LOOP                100026a1 f   luajit-x86:lj_vm_x86.obj
 0001:000016b4       _lj_BC_ILOOP               100026b4 f   luajit-x86:lj_vm_x86.obj
 0001:000016c5       _lj_BC_JLOOP               100026c5 f   luajit-x86:lj_vm_x86.obj
 0001:000016e3       _lj_BC_JMP                 100026e3 f   luajit-x86:lj_vm_x86.obj
 0001:000016fb       _lj_BC_FUNCF               100026fb f   luajit-x86:lj_vm_x86.obj
 0001:0000170e       _lj_BC_IFUNCF              1000270e f   luajit-x86:lj_vm_x86.obj
 0001:0000174b       _lj_BC_JFUNCF              1000274b f   luajit-x86:lj_vm_x86.obj
 0001:00001780       _lj_BC_FUNCV               10002780 f   luajit-x86:lj_vm_x86.obj
 0001:00001780       _lj_BC_IFUNCV              10002780 f   luajit-x86:lj_vm_x86.obj
 0001:000017f5       _lj_BC_JFUNCV              100027f5 f   luajit-x86:lj_vm_x86.obj
 0001:000017f6       _lj_BC_FUNCC               100027f6 f   luajit-x86:lj_vm_x86.obj
 0001:00001848       _lj_BC_FUNCCW              10002848 f   luajit-x86:lj_vm_x86.obj
 0001:000018a2       _lj_vm_returnp             100028a2 f   luajit-x86:lj_vm_x86.obj
 0001:000018c2       _lj_vm_returnc             100028c2 f   luajit-x86:lj_vm_x86.obj
 0001:000018db       _lj_vm_return              100028db f   luajit-x86:lj_vm_x86.obj
 0001:0000192a       _lj_vm_leave_cp            1000292a f   luajit-x86:lj_vm_x86.obj
 0001:00001933       _lj_vm_leave_unw           10002933 f   luajit-x86:lj_vm_x86.obj
 0001:00001979       _lj_vm_unwind_yield        10002979 f   luajit-x86:lj_vm_x86.obj
 0001:0000197d       @lj_vm_unwind_c@8          1000297d f   luajit-x86:lj_vm_x86.obj
 0001:0000198c       _lj_vm_unwind_c_eh         1000298c f   luajit-x86:lj_vm_x86.obj
 0001:0000199c       @lj_vm_unwind_ff@4         1000299c f   luajit-x86:lj_vm_x86.obj
 0001:0000199c       _lj_vm_unwind_rethrow      1000299c f   luajit-x86:lj_vm_x86.obj
 0001:000019ac       _lj_vm_unwind_ff_eh        100029ac f   luajit-x86:lj_vm_x86.obj
 0001:000019df       @lj_vm_rtlunwind@16        100029df f   luajit-x86:lj_vm_x86.obj
 0001:000019f4       _lj_vm_growstack_c         100029f4 f   luajit-x86:lj_vm_x86.obj
 0001:000019fb       _lj_vm_growstack_v         100029fb f   luajit-x86:lj_vm_x86.obj
 0001:00001a00       _lj_vm_growstack_f         10002a00 f   luajit-x86:lj_vm_x86.obj
 0001:00001a40       _lj_vm_resume              10002a40 f   luajit-x86:lj_vm_x86.obj
 0001:00001ac5       _lj_vm_pcall               10002ac5 f   luajit-x86:lj_vm_x86.obj
 0001:00001ae6       _lj_vm_call                10002ae6 f   luajit-x86:lj_vm_x86.obj
 0001:00001b46       _lj_vm_call_dispatch       10002b46 f   luajit-x86:lj_vm_x86.obj
 0001:00001b53       _lj_vm_call_dispatch_f     10002b53 f   luajit-x86:lj_vm_x86.obj
 0001:00001b69       _lj_vm_cpcall              10002b69 f   luajit-x86:lj_vm_x86.obj
 0001:00001be3       _lj_cont_dispatch          10002be3 f   luajit-x86:lj_vm_x86.obj
 0001:00001c1f       _lj_cont_cat               10002c1f f   luajit-x86:lj_vm_x86.obj
 0001:00001c4e       _lj_vmeta_tgets            10002c4e f   luajit-x86:lj_vm_x86.obj
 0001:00001c77       _lj_vmeta_tgetb            10002c77 f   luajit-x86:lj_vm_x86.obj
 0001:00001c8b       _lj_vmeta_tgetv            10002c8b f   luajit-x86:lj_vm_x86.obj
 0001:00001cbb       _lj_cont_ra                10002cbb f   luajit-x86:lj_vm_x86.obj
 0001:00001cf4       _lj_vmeta_tgetr            10002cf4 f   luajit-x86:lj_vm_x86.obj
 0001:00001d1a       _lj_vmeta_tsets            10002d1a f   luajit-x86:lj_vm_x86.obj
 0001:00001d43       _lj_vmeta_tsetb            10002d43 f   luajit-x86:lj_vm_x86.obj
 0001:00001d57       _lj_vmeta_tsetv            10002d57 f   luajit-x86:lj_vm_x86.obj
 0001:00001d97       _lj_cont_nop               10002d97 f   luajit-x86:lj_vm_x86.obj
 0001:00001dd1       _lj_vmeta_tsetr            10002dd1 f   luajit-x86:lj_vm_x86.obj
 0001:00001df9       _lj_vmeta_comp             10002df9 f   luajit-x86:lj_vm_x86.obj
 0001:00001e4f       _lj_cont_condt             10002e4f f   luajit-x86:lj_vm_x86.obj
 0001:00001e5a       _lj_cont_condf             10002e5a f   luajit-x86:lj_vm_x86.obj
 0001:00001e60       _lj_vmeta_equal            10002e60 f   luajit-x86:lj_vm_x86.obj
 0001:00001e84       _lj_vmeta_equal_cd         10002e84 f   luajit-x86:lj_vm_x86.obj
 0001:00001e9e       _lj_vmeta_istype           10002e9e f   luajit-x86:lj_vm_x86.obj
 0001:00001ec5       _lj_vmeta_arith_vn         10002ec5 f   luajit-x86:lj_vm_x86.obj
 0001:00001ec5       _lj_vmeta_arith_vno        10002ec5 f   luajit-x86:lj_vm_x86.obj
 0001:00001eca       _lj_vmeta_arith_nv         10002eca f   luajit-x86:lj_vm_x86.obj
 0001:00001eca       _lj_vmeta_arith_nvo        10002eca f   luajit-x86:lj_vm_x86.obj
 0001:00001ed3       _lj_vmeta_unm              10002ed3 f   luajit-x86:lj_vm_x86.obj
 0001:00001eda       _lj_vmeta_arith_vv         10002eda f   luajit-x86:lj_vm_x86.obj
 0001:00001eda       _lj_vmeta_arith_vvo        10002eda f   luajit-x86:lj_vm_x86.obj
 0001:00001f15       _lj_vmeta_binop            10002f15 f   luajit-x86:lj_vm_x86.obj
 0001:00001f29       _lj_vmeta_len              10002f29 f   luajit-x86:lj_vm_x86.obj
 0001:00001f43       _lj_vmeta_call_ra          10002f43 f   luajit-x86:lj_vm_x86.obj
 0001:00001f47       _lj_vmeta_call             10002f47 f   luajit-x86:lj_vm_x86.obj
 0001:00001f9f       _lj_vmeta_for              10002f9f f   luajit-x86:lj_vm_x86.obj
 0001:00001fc9       _lj_ff_assert              10002fc9 f   luajit-x86:lj_vm_x86.obj
 0001:00002010       _lj_ff_type                10003010 f   luajit-x86:lj_vm_x86.obj
 0001:00002041       _lj_ff_getmetatable        10003041 f   luajit-x86:lj_vm_x86.obj
 0001:000020cf       _lj_ff_setmetatable        100030cf f   luajit-x86:lj_vm_x86.obj
 0001:00002129       _lj_ff_rawget              10003129 f   luajit-x86:lj_vm_x86.obj
 0001:0000216c       _lj_ff_tonumber            1000316c f   luajit-x86:lj_vm_x86.obj
 0001:00002188       _lj_ff_tostring            10003188 f   luajit-x86:lj_vm_x86.obj
 0001:000021ec       _lj_ff_next                100031ec f   luajit-x86:lj_vm_x86.obj
 0001:00002243       _lj_ff_pairs               10003243 f   luajit-x86:lj_vm_x86.obj
 0001:0000227c       _lj_ff_ipairs_aux          1000327c f   luajit-x86:lj_vm_x86.obj
 0001:000022d9       _lj_fff_res2               100032d9 f   luajit-x86:lj_vm_x86.obj
 0001:000022fa       _lj_fff_res0               100032fa f   luajit-x86:lj_vm_x86.obj
 0001:00002304       _lj_ff_ipairs              10003304 f   luajit-x86:lj_vm_x86.obj
 0001:0000233e       _lj_ff_pcall               1000333e f   luajit-x86:lj_vm_x86.obj
 0001:00002366       _lj_ff_xpcall              10003366 f   luajit-x86:lj_vm_x86.obj
 0001:0000239d       _lj_ff_coroutine_resume    1000339d f   luajit-x86:lj_vm_x86.obj
 0001:000024df       _lj_ff_coroutine_wrap_aux  100034df f   luajit-x86:lj_vm_x86.obj
 0001:000025ea       _lj_ff_coroutine_yield     100035ea f   luajit-x86:lj_vm_x86.obj
 0001:00002614       _lj_fff_resi               10003614 f   luajit-x86:lj_vm_x86.obj
 0001:00002614       _lj_fff_resn               10003614 f   luajit-x86:lj_vm_x86.obj
 0001:0000261c       _lj_ff_math_abs            1000361c f   luajit-x86:lj_vm_x86.obj
 0001:00002643       _lj_fff_resxmm0            10003643 f   luajit-x86:lj_vm_x86.obj
 0001:0000264b       _lj_fff_res1               1000364b f   luajit-x86:lj_vm_x86.obj
 0001:00002650       _lj_fff_res                10003650 f   luajit-x86:lj_vm_x86.obj
 0001:00002654       _lj_fff_res_               10003654 f   luajit-x86:lj_vm_x86.obj
 0001:00002692       _lj_ff_math_floor          10003692 f   luajit-x86:lj_vm_x86.obj
 0001:000026a7       _lj_ff_math_ceil           100036a7 f   luajit-x86:lj_vm_x86.obj
 0001:000026bc       _lj_ff_math_sqrt           100036bc f   luajit-x86:lj_vm_x86.obj
 0001:000026d8       _lj_ff_math_log            100036d8 f   luajit-x86:lj_vm_x86.obj
 0001:00002702       _lj_ff_math_log10          10003702 f   luajit-x86:lj_vm_x86.obj
 0001:0000272c       _lj_ff_math_exp            1000372c f   luajit-x86:lj_vm_x86.obj
 0001:00002756       _lj_ff_math_sin            10003756 f   luajit-x86:lj_vm_x86.obj
 0001:00002780       _lj_ff_math_cos            10003780 f   luajit-x86:lj_vm_x86.obj
 0001:000027aa       _lj_ff_math_tan            100037aa f   luajit-x86:lj_vm_x86.obj
 0001:000027d4       _lj_ff_math_asin           100037d4 f   luajit-x86:lj_vm_x86.obj
 0001:000027fe       _lj_ff_math_acos           100037fe f   luajit-x86:lj_vm_x86.obj
 0001:00002828       _lj_ff_math_atan           10003828 f   luajit-x86:lj_vm_x86.obj
 0001:00002852       _lj_ff_math_sinh           10003852 f   luajit-x86:lj_vm_x86.obj
 0001:0000287c       _lj_ff_math_cosh           1000387c f   luajit-x86:lj_vm_x86.obj
 0001:000028a6       _lj_ff_math_tanh           100038a6 f   luajit-x86:lj_vm_x86.obj
 0001:000028d0       _lj_ff_math_pow            100038d0 f   luajit-x86:lj_vm_x86.obj
 0001:0000290f       _lj_ff_math_atan2          1000390f f   luajit-x86:lj_vm_x86.obj
 0001:0000294e       _lj_ff_math_fmod           1000394e f   luajit-x86:lj_vm_x86.obj
 0001:0000298d       _lj_ff_math_ldexp          1000398d f   luajit-x86:lj_vm_x86.obj
 0001:000029b8       _lj_ff_math_frexp          100039b8 f   luajit-x86:lj_vm_x86.obj
 0001:00002a48       _lj_ff_math_modf           10003a48 f   luajit-x86:lj_vm_x86.obj
 0001:00002aa8       _lj_ff_math_min            10003aa8 f   luajit-x86:lj_vm_x86.obj
 0001:00002ae6       _lj_ff_math_max            10003ae6 f   luajit-x86:lj_vm_x86.obj
 0001:00002b24       _lj_ff_string_byte         10003b24 f   luajit-x86:lj_vm_x86.obj
 0001:00002b53       _lj_ff_string_char         10003b53 f   luajit-x86:lj_vm_x86.obj
 0001:00002b99       _lj_fff_newstr             10003b99 f   luajit-x86:lj_vm_x86.obj
 0001:00002bb0       _lj_fff_resstr             10003bb0 f   luajit-x86:lj_vm_x86.obj
 0001:00002bc5       _lj_ff_string_sub          10003bc5 f   luajit-x86:lj_vm_x86.obj
 0001:00002c62       _lj_fff_emptystr           10003c62 f   luajit-x86:lj_vm_x86.obj
 0001:00002c66       _lj_ff_string_reverse      10003c66 f   luajit-x86:lj_vm_x86.obj
 0001:00002cb8       _lj_ff_string_lower        10003cb8 f   luajit-x86:lj_vm_x86.obj
 0001:00002d0a       _lj_ff_string_upper        10003d0a f   luajit-x86:lj_vm_x86.obj
 0001:00002d5c       _lj_ff_bit_tobit           10003d5c f   luajit-x86:lj_vm_x86.obj
 0001:00002d8e       _lj_ff_bit_band            10003d8e f   luajit-x86:lj_vm_x86.obj
 0001:00002de8       _lj_ff_bit_bor             10003de8 f   luajit-x86:lj_vm_x86.obj
 0001:00002e42       _lj_ff_bit_bxor            10003e42 f   luajit-x86:lj_vm_x86.obj
 0001:00002e9c       _lj_ff_bit_bswap           10003e9c f   luajit-x86:lj_vm_x86.obj
 0001:00002ecd       _lj_ff_bit_bnot            10003ecd f   luajit-x86:lj_vm_x86.obj
 0001:00002efc       _lj_fff_resbit             10003efc f   luajit-x86:lj_vm_x86.obj
 0001:00002f05       _lj_fff_fallback_bit_op    10003f05 f   luajit-x86:lj_vm_x86.obj
 0001:00002f0e       _lj_ff_bit_lshift          10003f0e f   luajit-x86:lj_vm_x86.obj
 0001:00002f56       _lj_ff_bit_rshift          10003f56 f   luajit-x86:lj_vm_x86.obj
 0001:00002fa1       _lj_ff_bit_arshift         10003fa1 f   luajit-x86:lj_vm_x86.obj
 0001:00002fec       _lj_ff_bit_rol             10003fec f   luajit-x86:lj_vm_x86.obj
 0001:00003037       _lj_ff_bit_ror             10004037 f   luajit-x86:lj_vm_x86.obj
 0001:00003076       _lj_fff_fallback_2         10004076 f   luajit-x86:lj_vm_x86.obj
 0001:0000307d       _lj_fff_fallback_1         1000407d f   luajit-x86:lj_vm_x86.obj
 0001:00003082       _lj_fff_fallback           10004082 f   luajit-x86:lj_vm_x86.obj
 0001:000030d9       _lj_vm_call_tail           100040d9 f   luajit-x86:lj_vm_x86.obj
 0001:00003110       _lj_fff_gcstep             10004110 f   luajit-x86:lj_vm_x86.obj
 0001:00003142       _lj_vm_record              10004142 f   luajit-x86:lj_vm_x86.obj
 0001:0000315d       _lj_vm_rethook             1000415d f   luajit-x86:lj_vm_x86.obj
 0001:0000316a       _lj_vm_inshook             1000416a f   luajit-x86:lj_vm_x86.obj
 0001:000031ab       _lj_cont_hook              100041ab f   luajit-x86:lj_vm_x86.obj
 0001:000031b7       _lj_vm_hotloop             100041b7 f   luajit-x86:lj_vm_x86.obj
 0001:000031e7       _lj_vm_callhook            100041e7 f   luajit-x86:lj_vm_x86.obj
 0001:000031ed       _lj_vm_hotcall             100041ed f   luajit-x86:lj_vm_x86.obj
 0001:0000322e       _lj_cont_stitch            1000422e f   luajit-x86:lj_vm_x86.obj
 0001:000032c4       _lj_vm_profhook            100042c4 f   luajit-x86:lj_vm_x86.obj
 0001:000032df       _lj_vm_exit_handler        100042df f   luajit-x86:lj_vm_x86.obj
 0001:0000337f       _lj_vm_exit_interp         1000437f f   luajit-x86:lj_vm_x86.obj
 0001:000033f1       _lj_vm_floor               100043f1 f   luajit-x86:lj_vm_x86.obj
 0001:00003407       _lj_vm_floor_sse           10004407 f   luajit-x86:lj_vm_x86.obj
 0001:0000345e       _lj_vm_ceil                1000445e f   luajit-x86:lj_vm_x86.obj
 0001:00003474       _lj_vm_ceil_sse            10004474 f   luajit-x86:lj_vm_x86.obj
 0001:000034cf       _lj_vm_trunc               100044cf f   luajit-x86:lj_vm_x86.obj
 0001:000034e5       _lj_vm_trunc_sse           100044e5 f   luajit-x86:lj_vm_x86.obj
 0001:0000353f       _lj_vm_mod                 1000453f f   luajit-x86:lj_vm_x86.obj
 0001:000035b1       _lj_vm_cpuid               100045b1 f   luajit-x86:lj_vm_x86.obj
 0001:000035e1       _lj_vm_next                100045e1 f   luajit-x86:lj_vm_x86.obj
 0001:00003647       _lj_assert_bad_for_arg_type 10004647 f   luajit-x86:lj_vm_x86.obj
 0001:00003648       _lj_vm_ffi_callback        10004648 f   luajit-x86:lj_vm_x86.obj
 0001:000036d2       _lj_cont_ffi_callback      100046d2 f   luajit-x86:lj_vm_x86.obj
 0001:0000372b       @lj_vm_ffi_call@4          1000472b f   luajit-x86:lj_vm_x86.obj
 0001:0000bdb0       ?Get@ClientEntityList@sdk@csgo@aw@@SAPAV1234@XZ 1000cdb0 f i aimbot_base.obj
 0001:0000bdc0       ?GetDynamic@ClientEntityList@sdk@csgo@aw@@SAPAV1234@XZ 1000cdc0 f i aimbot_base.obj
 0001:0000bde0       ?GetDynamic@EngineClient@sdk@csgo@aw@@SAPAV1234@XZ 1000cde0 f i aimbot_base.obj
 0001:0000be00       ?GetDynamic@MaterialSystem@sdk@csgo@aw@@SAPAV1234@XZ 1000ce00 f i aimbot_base.obj
 0001:0000be20       ?GetDynamic@ModelRender@sdk@csgo@aw@@SAPAV1234@XZ 1000ce20 f i aimbot_base.obj
 0001:0000be40       ?GetDynamic@RenderToRTHelper@sdk@csgo@aw@@SAPAV1234@XZ 1000ce40 f i aimbot_base.obj
 0001:0000be60       ?GetDynamic@RenderView@sdk@csgo@aw@@SAPAV1234@XZ 1000ce60 f i aimbot_base.obj
 0001:0000be80       ?GetDynamic@StudioRender@sdk@csgo@aw@@SAPAV1234@XZ 1000ce80 f i aimbot_base.obj
 0001:0000bea0       ?IsValidTarget@AimbotBase@mod@csgo@aw@@QAE_NPAVCSPlayer@sdk@34@_N@Z 1000cea0 f   aimbot_base.obj
 0001:0000c080       ??$_Construct@$00PBD@?$basic_string@DU?$char_traits@D@std@@V?$allocator@D@2@@std@@AAEXQBDI@Z 1000d080 f i legit_aimbot.obj
 0001:0000cfc0       ??0LegitAimbot@impl@mod@csgo@aw@@QAE@XZ 1000dfc0 f   legit_aimbot.obj
 0001:0000d220       ??0Ray@sdk@csgo@aw@@QAE@ABVVector3@3@0@Z 1000e220 f i legit_aimbot.obj
 0001:0000d2f0       ??0bad_array_new_length@stdext@@QAE@XZ 1000e2f0 f i legit_aimbot.obj
 0001:0000d300       ??1?$basic_string@DU?$char_traits@D@std@@V?$allocator@D@2@@std@@QAE@XZ 1000e300 f i legit_aimbot.obj
 0001:0000d340       ??_E?$ModuleBaseImpl@VLegitAimbot@mod@csgo@aw@@V?$TypedObject@VLegitAimbot@mod@csgo@aw@@VModuleBase@4@@4@@aw@@UAEPAXI@Z 1000e340 f i legit_aimbot.obj
 0001:0000d340       ??_G?$ModuleBaseImpl@VLegitAimbot@mod@csgo@aw@@V?$TypedObject@VLegitAimbot@mod@csgo@aw@@VModuleBase@4@@4@@aw@@UAEPAXI@Z 1000e340 f i legit_aimbot.obj
 0001:0000d370       ??_E?$TypedObjectBase@VModuleBase@aw@@@aw@@UAEPAXI@Z 1000e370 f i legit_aimbot.obj
 0001:0000d370       ??_G?$TypedObjectBase@VModuleBase@aw@@@aw@@UAEPAXI@Z 1000e370 f i legit_aimbot.obj
 0001:0000d3a0       ??_ELegitAimbot@impl@mod@csgo@aw@@UAEPAXI@Z 1000e3a0 f i legit_aimbot.obj
 0001:0000d3a0       ??_GLegitAimbot@impl@mod@csgo@aw@@UAEPAXI@Z 1000e3a0 f i legit_aimbot.obj
 0001:0000d3d0       ??_Ebad_array_new_length@stdext@@UAEPAXI@Z 1000e3d0 f i legit_aimbot.obj
 0001:0000d3d0       ??_Gbad_array_new_length@stdext@@UAEPAXI@Z 1000e3d0 f i legit_aimbot.obj
 0001:0000d400       ??_Eexception@stdext@@UAEPAXI@Z 1000e400 f i legit_aimbot.obj
 0001:0000d400       ??_Gexception@stdext@@UAEPAXI@Z 1000e400 f i legit_aimbot.obj
 0001:0000d430       ?AimAtTarget@LegitAimbot@impl@mod@csgo@aw@@IAE_NPAVCSPlayer@sdk@45@AAVEulerAngles@5@AAVVector3@5@@Z 1000e430 f   legit_aimbot.obj
 0001:0000d970       ?Aimbot@LegitAimbot@impl@mod@csgo@aw@@IAEXPAVUserCmd@sdk@45@@Z 1000e970 f   legit_aimbot.obj
 0001:0000e180       ?AntiAim@LegitAimbot@impl@mod@csgo@aw@@IAEXPAVUserCmd@sdk@45@@Z 1000f180 f   legit_aimbot.obj
 0001:0000e3d0       ?CalcSmoothDelta@LegitAimbot@impl@mod@csgo@aw@@IAEXAAVEulerAngles@5@@Z 1000f3d0 f   legit_aimbot.obj
 0001:0000e590       ?CreateModule@?$ModuleWithFactory@VLegitAimbot@mod@csgo@aw@@@aw@@SAPAVLegitAimbot@mod@csgo@2@XZ 1000f590 f   legit_aimbot.obj
 0001:0000e5b0       ?CreateMove_Weapon@LegitAimbot@impl@mod@csgo@aw@@IAEXPAVUserCmd@sdk@45@@Z 1000f5b0 f   legit_aimbot.obj
 0001:0000eac0       ?Get@EngineClient@sdk@csgo@aw@@SAPAV1234@XZ 1000fac0 f i legit_aimbot.obj
 0001:0000ead0       ?GetAimPoints@LegitAimbot@impl@mod@csgo@aw@@IAEXPAVCSPlayer@sdk@45@PAVVector3@5@PAHPAUReplicatedRecord@345@@Z 1000fad0 f   legit_aimbot.obj
 0001:0000ef50       ?GetBacktrackingTime@LegitAimbot@impl@mod@csgo@aw@@UAEMXZ 1000ff50 f   legit_aimbot.obj
 0001:0000ef80       ?GetDynamic@Prediction@sdk@csgo@aw@@SAPAV1234@XZ 1000ff80 f i legit_aimbot.obj
 0001:0000efa0       ?GetId@?$TypedObject@VLegitAimbot@mod@csgo@aw@@VModuleBase@4@@aw@@UAEIXZ 1000ffa0 f i legit_aimbot.obj
 0001:0000efb0       ?GetMaxFOV@LegitWeaponTab@ui@csgo@aw@@QAEMXZ 1000ffb0 f i legit_aimbot.obj
 0001:0000efd0       ?GetTargetDirection@LegitAimbot@impl@mod@csgo@aw@@IAE_NAAVEulerAngles@5@@Z 1000ffd0 f   legit_aimbot.obj
 0001:0000f3e0       ?IsActive@LegitAimbot@impl@mod@csgo@aw@@UAE_NXZ 100103e0 f i legit_aimbot.obj
 0001:0000f400       ?IsEnemyAiming@LegitAimbot@impl@mod@csgo@aw@@IAE_NPAM@Z 10010400 f   legit_aimbot.obj
 0001:0000f720       ?OnBulletExit@TraceBullet@mod@csgo@aw@@UAE_NPAVTrace@sdk@34@@Z 10010720 f i legit_aimbot.obj
 0001:0000f730       ?OnBulletHit@TraceBullet@mod@csgo@aw@@UAE_NPAVTrace@sdk@34@@Z 10010730 f i legit_aimbot.obj
 0001:0000f740       ?OnBulletTravel@TraceBullet@mod@csgo@aw@@UAE_NMPAVTrace@sdk@34@@Z 10010740 f i legit_aimbot.obj
 0001:0000f750       ?OnInit@LegitAimbot@impl@mod@csgo@aw@@IAEXAAUCommonInit@5@@Z 10010750 f   legit_aimbot.obj
 0001:0000f770       ?OnPostMove@LegitAimbot@impl@mod@csgo@aw@@IAEXAAULocalPostMove@345@@Z 10010770 f   legit_aimbot.obj
 0001:0000fa30       ?OnPreMove@LegitAimbot@impl@mod@csgo@aw@@IAEXAAULocalPreMove@345@@Z 10010a30 f   legit_aimbot.obj
 0001:0000fb90       ?OnRender@LegitAimbot@impl@mod@csgo@aw@@IAEXAAURenderFrame@gfx@5@@Z 10010b90 f   legit_aimbot.obj
 0001:0000fbe0       ?ScanPlayerHitbox@LegitAimbot@impl@mod@csgo@aw@@IAE_NABVVector3@5@0PAUStudioHitbox@sdk@45@AAVMatrix3x4@5@M@Z 10010be0 f   legit_aimbot.obj
 0001:0000ffd0       ?ScanPlayerHitboxes@LegitAimbot@impl@mod@csgo@aw@@IAEHABVVector3@5@0M_N@Z 10010fd0 f   legit_aimbot.obj
 0001:00010560       ?SetViewAngles@LegitAimbot@impl@mod@csgo@aw@@IAEXPAVUserCmd@sdk@45@@Z 10011560 f   legit_aimbot.obj
 0001:00010590       ?Triggerbot@LegitAimbot@impl@mod@csgo@aw@@IAEXPAVUserCmd@sdk@45@@Z 10011590 f   legit_aimbot.obj
 0001:000107f0       ?UpdateWeaponConfig@LegitAimbot@impl@mod@csgo@aw@@IAEXPAVCSPlayer@sdk@45@@Z 100117f0 f   legit_aimbot.obj
 0001:00010840       ?_Doraise@bad_alloc@stdext@@MBEXXZ 10011840 f i legit_aimbot.obj
 0001:00010850       ?_Doraise@exception@stdext@@MBEXXZ 10011850 f i legit_aimbot.obj
 0001:00010860       ?_Raise@exception@stdext@@QBEXXZ 10011860 f i legit_aimbot.obj
 0001:00010890       ?_Throw_bad_array_new_length@std@@YAXXZ 10011890 f i legit_aimbot.obj
 0001:000108b0       ?_Xlen_string@std@@YAXXZ   100118b0 f i legit_aimbot.obj
 0001:000108c0       ?_Xlength@?$vector@VVector2@aw@@V?$allocator@VVector2@aw@@@std@@@std@@CAXXZ 100118c0 f i legit_aimbot.obj
 0001:000108d0       ?allocate@?$allocator@D@std@@QAEPADI@Z 100118d0 f i legit_aimbot.obj
 0001:00010920       ?what@exception@stdext@@UBEPBDXZ 10011920 f i legit_aimbot.obj
 0001:00011170       ??0RageAimbot@impl@mod@csgo@aw@@QAE@XZ 10012170 f i rage_aimbot.obj
 0001:00011470       ??_E?$ModuleBaseImpl@VRageAimbot@mod@csgo@aw@@V?$TypedObject@VRageAimbot@mod@csgo@aw@@VModuleBase@4@@4@@aw@@UAEPAXI@Z 10012470 f i rage_aimbot.obj
 0001:00011470       ??_G?$ModuleBaseImpl@VRageAimbot@mod@csgo@aw@@V?$TypedObject@VRageAimbot@mod@csgo@aw@@VModuleBase@4@@4@@aw@@UAEPAXI@Z 10012470 f i rage_aimbot.obj
 0001:000114a0       ??_E?$TypedObjectBase@UCallbackVars@aw@@@aw@@UAEPAXI@Z 100124a0 f i rage_aimbot.obj
 0001:000114a0       ??_G?$TypedObjectBase@UCallbackVars@aw@@@aw@@UAEPAXI@Z 100124a0 f i rage_aimbot.obj
 0001:000114d0       ??_ELocalPostMove@mod@csgo@aw@@UAEPAXI@Z 100124d0 f i rage_aimbot.obj
 0001:000114d0       ??_GLocalPostMove@mod@csgo@aw@@UAEPAXI@Z 100124d0 f i rage_aimbot.obj
 0001:00011500       ??_ERageAimbot@impl@mod@csgo@aw@@UAEPAXI@Z 10012500 f i rage_aimbot.obj
 0001:00011500       ??_GRageAimbot@impl@mod@csgo@aw@@UAEPAXI@Z 10012500 f i rage_aimbot.obj
 0001:00011560       ??_EUserCmd@sdk@csgo@aw@@UAEPAXI@Z 10012560 f i rage_aimbot.obj
 0001:00011560       ??_GUserCmd@sdk@csgo@aw@@UAEPAXI@Z 10012560 f i rage_aimbot.obj
 0001:00011590       ?CheckMinDamage@RageAimbot@impl@mod@csgo@aw@@IAE_NAAULocalPostMove@345@PAVCSPlayer@sdk@45@MM@Z 10012590 f   rage_aimbot.obj
 0001:00011730       ?CreateModule@?$ModuleWithFactory@VRageAimbot@mod@csgo@aw@@@aw@@SAPAVRageAimbot@mod@csgo@2@XZ 10012730 f   rage_aimbot.obj
 0001:00011760       ?DrawDoubleFireIndicator@RageAimbot@impl@mod@csgo@aw@@IAEXAAURenderFrame@gfx@5@@Z 10012760 f   rage_aimbot.obj
 0001:00011bb0       ?DrawStatusBar@RageAimbot@impl@mod@csgo@aw@@IAEXAAURenderFrame@gfx@5@PBDMMMMMM@Z 10012bb0 f   rage_aimbot.obj
 0001:000121e0       ?FindAutoPeekDestination@RageAimbot@impl@mod@csgo@aw@@IAEXPAVCSPlayer@sdk@45@AAVVector3@5@@Z 100131e0 f   rage_aimbot.obj
 0001:00012440       ?Get@EngineTrace@sdk@csgo@aw@@SAPAV1234@XZ 10013440 f i rage_aimbot.obj
 0001:00012450       ?GetDynamic@EngineTrace@sdk@csgo@aw@@SAPAV1234@XZ 10013450 f i rage_aimbot.obj
 0001:00012470       ?GetDynamic@GameMovement@sdk@csgo@aw@@SAPAV1234@XZ 10013470 f i rage_aimbot.obj
 0001:00012490       ?GetFireServerTick@RageAimbot@impl@mod@csgo@aw@@UAEHXZ 10013490 f i rage_aimbot.obj
 0001:000124a0       ?GetFireTickBase@RageAimbot@impl@mod@csgo@aw@@UAEHXZ 100134a0 f i rage_aimbot.obj
 0001:000124b0       ?GetHitChance@RageAimbot@impl@mod@csgo@aw@@UAEPAVTraceHitChance@345@XZ 100134b0 f i rage_aimbot.obj
 0001:000124c0       ?GetId@?$TypedObject@ULocalPostMove@mod@csgo@aw@@UCallbackVars@4@@aw@@UAEIXZ 100134c0 f i rage_aimbot.obj
 0001:000124d0       ?GetId@?$TypedObject@VRageAimbot@mod@csgo@aw@@VModuleBase@4@@aw@@UAEIXZ 100134d0 f i rage_aimbot.obj
 0001:000124e0       ?IsActive@RageAimbot@impl@mod@csgo@aw@@UAE_NPAULocalMoveBase@345@@Z 100134e0 f   rage_aimbot.obj
 0001:00012520       ?IsAiming@RageAimbot@impl@mod@csgo@aw@@UAE_NXZ 10013520 f i rage_aimbot.obj
 0001:00012530       ?IsAllowedFireMode@RageAimbot@impl@mod@csgo@aw@@QAE_NXZ 10013530 f   rage_aimbot.obj
 0001:00012640       ?IsAutoPeekReturning@RageAimbot@impl@mod@csgo@aw@@MAE_NXZ 10013640 f i rage_aimbot.obj
 0001:00012650       ?IsAutoScope@RageAccuracyTab@ui@csgo@aw@@QAE_NXZ 10013650 f i rage_aimbot.obj
 0001:00012680       ?IsCustomFireMode@RageAimbot@impl@mod@csgo@aw@@UAE_NXZ 10013680 f i rage_aimbot.obj
 0001:000126a0       ?OnFinishMove@RageAimbot@impl@mod@csgo@aw@@IAEXAAULocalFinishMove@345@@Z 100136a0 f   rage_aimbot.obj
 0001:000127b0       ?OnRender@RageAimbot@impl@mod@csgo@aw@@IAEXAAURenderFrame@gfx@5@@Z 100137b0 f   rage_aimbot.obj
 0001:000128c0       ?SortTargetList@RageAimbot@impl@mod@csgo@aw@@IAEXAAULocalPostMove@345@PAURageTargetEntry@2345@1@Z 100138c0 f   rage_aimbot.obj
 0001:00012bb0       ?TraceTargetHitboxInternal@RageAimbot@impl@mod@csgo@aw@@IAEXAAULocalPostMove@345@AAURageTargetInfo@2345@PAUReplicatedRecord@345@HAA_N3@Z 10013bb0 f   rage_aimbot.obj
 0001:00013200       ??_E?$ModuleBaseImpl@VRageAntiAim@mod@csgo@aw@@V?$TypedObject@VRageAntiAim@mod@csgo@aw@@VModuleBase@4@@4@@aw@@UAEPAXI@Z 10014200 f i rage_antiaim.obj
 0001:00013200       ??_G?$ModuleBaseImpl@VRageAntiAim@mod@csgo@aw@@V?$TypedObject@VRageAntiAim@mod@csgo@aw@@VModuleBase@4@@4@@aw@@UAEPAXI@Z 10014200 f i rage_antiaim.obj
 0001:00013230       ??_ERageAntiAim@impl@mod@csgo@aw@@UAEPAXI@Z 10014230 f i rage_antiaim.obj
 0001:00013230       ??_GRageAntiAim@impl@mod@csgo@aw@@UAEPAXI@Z 10014230 f i rage_antiaim.obj
 0001:00013260       ?ApplyMicroMovementNextTick@RageAntiAim@impl@mod@csgo@aw@@UAEXXZ 10014260 f i rage_antiaim.obj
 0001:00013270       ?CheckCondition@RageAntiAim@impl@mod@csgo@aw@@UAE_NPAVCSPlayer@sdk@45@H_N@Z 10014270 f   rage_antiaim.obj
 0001:000133a0       ?CreateModule@?$ModuleWithFactory@VRageAntiAim@mod@csgo@aw@@@aw@@SAPAVRageAntiAim@mod@csgo@2@XZ 100143a0 f   rage_antiaim.obj
 0001:000133c0       ?GetDynamic@GameEventManager@sdk@csgo@aw@@SAPAV1234@XZ 100143c0 f i rage_antiaim.obj
 0001:000133e0       ?GetId@?$TypedObject@VRageAntiAim@mod@csgo@aw@@VModuleBase@4@@aw@@UAEIXZ 100143e0 f i rage_antiaim.obj
 0001:000133f0       ?IsDesyncEnabled@RageAntiAim@impl@mod@csgo@aw@@UAE_NXZ 100143f0 f   rage_antiaim.obj
 0001:00013450       ?IsFakeDucking@RageAntiAim@impl@mod@csgo@aw@@UAE_NPAVCSPlayer@sdk@45@H@Z 10014450 f   rage_antiaim.obj
 0001:00013490       ?IsFakeDucking@RageAntiAim@impl@mod@csgo@aw@@UAE_NXZ 10014490 f i rage_antiaim.obj
 0001:000134a0       ?IsFakeExposeActive@RageAntiAim@impl@mod@csgo@aw@@UAE_NXZ 100144a0 f i rage_antiaim.obj
 0001:000134b0       ?OnRender@RageAntiAim@impl@mod@csgo@aw@@IAEXAAURenderFrame@gfx@5@@Z 100144b0 f   rage_antiaim.obj
 0001:000134c0       ?SwitchAntiAimSide@RageAntiAim@impl@mod@csgo@aw@@UAEXW4SwitchAntiAim@345@@Z 100144c0 f   rage_antiaim.obj
 0001:000135e0       ?__offset_GetAbsVelocity@BaseEntity@sdk@csgo@aw@@QAEHXZ 100145e0 f i rage_antiaim.obj
 0001:00013610       ?__offset_GetVelocity@BaseEntity@sdk@csgo@aw@@QAEHXZ 10014610 f i rage_antiaim.obj
 0001:00013640       ??0CommonInput@mod@csgo@aw@@QAE@XZ 10014640 f   common_input.obj
 0001:000136c0       ??_E?$ModuleBaseImpl@VCommonInput@mod@csgo@aw@@V?$TypedObject@VCommonInput@mod@csgo@aw@@VModuleBase@4@@4@@aw@@UAEPAXI@Z 100146c0 f i common_input.obj
 0001:000136c0       ??_G?$ModuleBaseImpl@VCommonInput@mod@csgo@aw@@V?$TypedObject@VCommonInput@mod@csgo@aw@@VModuleBase@4@@4@@aw@@UAEPAXI@Z 100146c0 f i common_input.obj
 0001:000136f0       ??_ECommonInput@mod@csgo@aw@@UAEPAXI@Z 100146f0 f i common_input.obj
 0001:000136f0       ??_GCommonInput@mod@csgo@aw@@UAEPAXI@Z 100146f0 f i common_input.obj
 0001:00013720       ?Get@GameConsole@sdk@csgo@aw@@SAPAV1234@XZ 10014720 f i common_input.obj
 0001:00013730       ?GetDynamic@GameConsole@sdk@csgo@aw@@SAPAV1234@XZ 10014730 f i common_input.obj
 0001:00013750       ?GetId@?$TypedObject@VCommonInput@mod@csgo@aw@@VModuleBase@4@@aw@@UAEIXZ 10014750 f i common_input.obj
 0001:00013760       ?IsFiltered@GameInput@mod@csgo@aw@@UAE_NXZ 10014760 f   common_input.obj
 0001:00013890       ?OnEndFrame@GameInput@mod@csgo@aw@@UAEXAAURenderFinish@gfx@4@@Z 10014890 f   common_input.obj
 0001:000138b0       ??$Method@V?$Class@VClsDrawModelContext@lua@csgo@aw@@UDrawChamsModel@mod@34@$0A@@lua@aw@@$1?__index@123@QAEXPAUDrawChamsModel@mod@csgo@3@AAVState@23@@Z@?$Class@VClsDrawModelContext@lua@csgo@aw@@UDrawChamsModel@mod@34@$0A@@lua@aw@@SAHPAUlua_State@@@Z 100148b0 f i common_lua.obj
 0001:00013900       ??$Method@V?$Class@VClsDrawModelContext@lua@csgo@aw@@UDrawChamsModel@mod@34@$0A@@lua@aw@@$1?__metatable@123@QAEXPAUDrawChamsModel@mod@csgo@3@AAVState@23@@Z@?$Class@VClsDrawModelContext@lua@csgo@aw@@UDrawChamsModel@mod@34@$0A@@lua@aw@@SAHPAUlua_State@@@Z 10014900 f i common_lua.obj
 0001:00013950       ??$Method@V?$Class@VClsDrawModelContext@lua@csgo@aw@@UDrawChamsModel@mod@34@$0A@@lua@aw@@$1?__newindex@123@QAEXPAUDrawChamsModel@mod@csgo@3@AAVState@23@@Z@?$Class@VClsDrawModelContext@lua@csgo@aw@@UDrawChamsModel@mod@34@$0A@@lua@aw@@SAHPAUlua_State@@@Z 10014950 f i common_lua.obj
 0001:000139a0       ??$Method@V?$Class@VClsEntity@lua@csgo@aw@@VBaseHandle@sdk@34@$00@lua@aw@@$1?__index@123@QAEXPAVBaseHandle@sdk@csgo@3@AAVState@23@@Z@?$Class@VClsEntity@lua@csgo@aw@@VBaseHandle@sdk@34@$00@lua@aw@@SAHPAUlua_State@@@Z 100149a0 f i common_lua.obj
 0001:000139f0       ??$Method@V?$Class@VClsEntity@lua@csgo@aw@@VBaseHandle@sdk@34@$00@lua@aw@@$1?__metatable@123@QAEXPAVBaseHandle@sdk@csgo@3@AAVState@23@@Z@?$Class@VClsEntity@lua@csgo@aw@@VBaseHandle@sdk@34@$00@lua@aw@@SAHPAUlua_State@@@Z 100149f0 f i common_lua.obj
 0001:00013a40       ??$Method@V?$Class@VClsEntity@lua@csgo@aw@@VBaseHandle@sdk@34@$00@lua@aw@@$1?__newindex@123@QAEXPAVBaseHandle@sdk@csgo@3@AAVState@23@@Z@?$Class@VClsEntity@lua@csgo@aw@@VBaseHandle@sdk@34@$00@lua@aw@@SAHPAUlua_State@@@Z 10014a40 f i common_lua.obj
 0001:00013a90       ??$Method@V?$Class@VClsEspBuilder@lua@csgo@aw@@VEspBuilder@mod@34@$0A@@lua@aw@@$1?__index@123@QAEXPAVEspBuilder@mod@csgo@3@AAVState@23@@Z@?$Class@VClsEspBuilder@lua@csgo@aw@@VEspBuilder@mod@34@$0A@@lua@aw@@SAHPAUlua_State@@@Z 10014a90 f i common_lua.obj
 0001:00013ae0       ??$Method@V?$Class@VClsEspBuilder@lua@csgo@aw@@VEspBuilder@mod@34@$0A@@lua@aw@@$1?__metatable@123@QAEXPAVEspBuilder@mod@csgo@3@AAVState@23@@Z@?$Class@VClsEspBuilder@lua@csgo@aw@@VEspBuilder@mod@34@$0A@@lua@aw@@SAHPAUlua_State@@@Z 10014ae0 f i common_lua.obj
 0001:00013b30       ??$Method@V?$Class@VClsEspBuilder@lua@csgo@aw@@VEspBuilder@mod@34@$0A@@lua@aw@@$1?__newindex@123@QAEXPAVEspBuilder@mod@csgo@3@AAVState@23@@Z@?$Class@VClsEspBuilder@lua@csgo@aw@@VEspBuilder@mod@34@$0A@@lua@aw@@SAHPAUlua_State@@@Z 10014b30 f i common_lua.obj
 0001:00013b80       ??$Method@V?$Class@VClsGameEvent@lua@csgo@aw@@VGameEvent@sdk@34@$0A@@lua@aw@@$1?__index@123@QAEXPAVGameEvent@sdk@csgo@3@AAVState@23@@Z@?$Class@VClsGameEvent@lua@csgo@aw@@VGameEvent@sdk@34@$0A@@lua@aw@@SAHPAUlua_State@@@Z 10014b80 f i common_lua.obj
 0001:00013bd0       ??$Method@V?$Class@VClsGameEvent@lua@csgo@aw@@VGameEvent@sdk@34@$0A@@lua@aw@@$1?__metatable@123@QAEXPAVGameEvent@sdk@csgo@3@AAVState@23@@Z@?$Class@VClsGameEvent@lua@csgo@aw@@VGameEvent@sdk@34@$0A@@lua@aw@@SAHPAUlua_State@@@Z 10014bd0 f i common_lua.obj
 0001:00013c20       ??$Method@V?$Class@VClsGameEvent@lua@csgo@aw@@VGameEvent@sdk@34@$0A@@lua@aw@@$1?__newindex@123@QAEXPAVGameEvent@sdk@csgo@3@AAVState@23@@Z@?$Class@VClsGameEvent@lua@csgo@aw@@VGameEvent@sdk@34@$0A@@lua@aw@@SAHPAUlua_State@@@Z 10014c20 f i common_lua.obj
 0001:00013c70       ??$Method@V?$Class@VClsMaterial@lua@csgo@aw@@VMaterial@sdk@34@$0A@@lua@aw@@$1?__index@123@QAEXPAVMaterial@sdk@csgo@3@AAVState@23@@Z@?$Class@VClsMaterial@lua@csgo@aw@@VMaterial@sdk@34@$0A@@lua@aw@@SAHPAUlua_State@@@Z 10014c70 f i common_lua.obj
 0001:00013cc0       ??$Method@V?$Class@VClsMaterial@lua@csgo@aw@@VMaterial@sdk@34@$0A@@lua@aw@@$1?__metatable@123@QAEXPAVMaterial@sdk@csgo@3@AAVState@23@@Z@?$Class@VClsMaterial@lua@csgo@aw@@VMaterial@sdk@34@$0A@@lua@aw@@SAHPAUlua_State@@@Z 10014cc0 f i common_lua.obj
 0001:00013d10       ??$Method@V?$Class@VClsMaterial@lua@csgo@aw@@VMaterial@sdk@34@$0A@@lua@aw@@$1?__newindex@123@QAEXPAVMaterial@sdk@csgo@3@AAVState@23@@Z@?$Class@VClsMaterial@lua@csgo@aw@@VMaterial@sdk@34@$0A@@lua@aw@@SAHPAUlua_State@@@Z 10014d10 f i common_lua.obj
 0001:00013d60       ??$Method@V?$Class@VClsPlane@lua@csgo@aw@@Ucplane_t@sdk@34@$00@lua@aw@@$1?__index@123@QAEXPAUcplane_t@sdk@csgo@3@AAVState@23@@Z@?$Class@VClsPlane@lua@csgo@aw@@Ucplane_t@sdk@34@$00@lua@aw@@SAHPAUlua_State@@@Z 10014d60 f i common_lua.obj
 0001:00013db0       ??$Method@V?$Class@VClsPlane@lua@csgo@aw@@Ucplane_t@sdk@34@$00@lua@aw@@$1?__metatable@123@QAEXPAUcplane_t@sdk@csgo@3@AAVState@23@@Z@?$Class@VClsPlane@lua@csgo@aw@@Ucplane_t@sdk@34@$00@lua@aw@@SAHPAUlua_State@@@Z 10014db0 f i common_lua.obj
 0001:00013e00       ??$Method@V?$Class@VClsPlane@lua@csgo@aw@@Ucplane_t@sdk@34@$00@lua@aw@@$1?__newindex@123@QAEXPAUcplane_t@sdk@csgo@3@AAVState@23@@Z@?$Class@VClsPlane@lua@csgo@aw@@Ucplane_t@sdk@34@$00@lua@aw@@SAHPAUlua_State@@@Z 10014e00 f i common_lua.obj
 0001:00013e50       ??$Method@V?$Class@VClsPlayerInfo@lua@csgo@aw@@ULuaPlayerInfo@234@$0A@@lua@aw@@$1?__index@123@QAEXPAULuaPlayerInfo@2csgo@3@AAVState@23@@Z@?$Class@VClsPlayerInfo@lua@csgo@aw@@ULuaPlayerInfo@234@$0A@@lua@aw@@SAHPAUlua_State@@@Z 10014e50 f i common_lua.obj
 0001:00013ea0       ??$Method@V?$Class@VClsPlayerInfo@lua@csgo@aw@@ULuaPlayerInfo@234@$0A@@lua@aw@@$1?__metatable@123@QAEXPAULuaPlayerInfo@2csgo@3@AAVState@23@@Z@?$Class@VClsPlayerInfo@lua@csgo@aw@@ULuaPlayerInfo@234@$0A@@lua@aw@@SAHPAUlua_State@@@Z 10014ea0 f i common_lua.obj
 0001:00013ef0       ??$Method@V?$Class@VClsPlayerInfo@lua@csgo@aw@@ULuaPlayerInfo@234@$0A@@lua@aw@@$1?__newindex@123@QAEXPAULuaPlayerInfo@2csgo@3@AAVState@23@@Z@?$Class@VClsPlayerInfo@lua@csgo@aw@@ULuaPlayerInfo@234@$0A@@lua@aw@@SAHPAUlua_State@@@Z 10014ef0 f i common_lua.obj
 0001:00013f40       ??$Method@V?$Class@VClsStringCmd@lua@csgo@aw@@UStringCmd@234@$0A@@lua@aw@@$1?__index@123@QAEXPAUStringCmd@2csgo@3@AAVState@23@@Z@?$Class@VClsStringCmd@lua@csgo@aw@@UStringCmd@234@$0A@@lua@aw@@SAHPAUlua_State@@@Z 10014f40 f i common_lua.obj
 0001:00013f90       ??$Method@V?$Class@VClsStringCmd@lua@csgo@aw@@UStringCmd@234@$0A@@lua@aw@@$1?__metatable@123@QAEXPAUStringCmd@2csgo@3@AAVState@23@@Z@?$Class@VClsStringCmd@lua@csgo@aw@@UStringCmd@234@$0A@@lua@aw@@SAHPAUlua_State@@@Z 10014f90 f i common_lua.obj
 0001:00013fe0       ??$Method@V?$Class@VClsStringCmd@lua@csgo@aw@@UStringCmd@234@$0A@@lua@aw@@$1?__newindex@123@QAEXPAUStringCmd@2csgo@3@AAVState@23@@Z@?$Class@VClsStringCmd@lua@csgo@aw@@UStringCmd@234@$0A@@lua@aw@@SAHPAUlua_State@@@Z 10014fe0 f i common_lua.obj
 0001:00014030       ??$Method@V?$Class@VClsSurface@lua@csgo@aw@@Ucsurface_t@sdk@34@$00@lua@aw@@$1?__index@123@QAEXPAUcsurface_t@sdk@csgo@3@AAVState@23@@Z@?$Class@VClsSurface@lua@csgo@aw@@Ucsurface_t@sdk@34@$00@lua@aw@@SAHPAUlua_State@@@Z 10015030 f i common_lua.obj
 0001:00014080       ??$Method@V?$Class@VClsSurface@lua@csgo@aw@@Ucsurface_t@sdk@34@$00@lua@aw@@$1?__metatable@123@QAEXPAUcsurface_t@sdk@csgo@3@AAVState@23@@Z@?$Class@VClsSurface@lua@csgo@aw@@Ucsurface_t@sdk@34@$00@lua@aw@@SAHPAUlua_State@@@Z 10015080 f i common_lua.obj
 0001:000140d0       ??$Method@V?$Class@VClsSurface@lua@csgo@aw@@Ucsurface_t@sdk@34@$00@lua@aw@@$1?__newindex@123@QAEXPAUcsurface_t@sdk@csgo@3@AAVState@23@@Z@?$Class@VClsSurface@lua@csgo@aw@@Ucsurface_t@sdk@34@$00@lua@aw@@SAHPAUlua_State@@@Z 100150d0 f i common_lua.obj
 0001:00014120       ??$Method@V?$Class@VClsTrace@lua@csgo@aw@@VTrace@sdk@34@$0A@@lua@aw@@$1?__index@123@QAEXPAVTrace@sdk@csgo@3@AAVState@23@@Z@?$Class@VClsTrace@lua@csgo@aw@@VTrace@sdk@34@$0A@@lua@aw@@SAHPAUlua_State@@@Z 10015120 f i common_lua.obj
 0001:00014170       ??$Method@V?$Class@VClsTrace@lua@csgo@aw@@VTrace@sdk@34@$0A@@lua@aw@@$1?__metatable@123@QAEXPAVTrace@sdk@csgo@3@AAVState@23@@Z@?$Class@VClsTrace@lua@csgo@aw@@VTrace@sdk@34@$0A@@lua@aw@@SAHPAUlua_State@@@Z 10015170 f i common_lua.obj
 0001:000141c0       ??$Method@V?$Class@VClsTrace@lua@csgo@aw@@VTrace@sdk@34@$0A@@lua@aw@@$1?__newindex@123@QAEXPAVTrace@sdk@csgo@3@AAVState@23@@Z@?$Class@VClsTrace@lua@csgo@aw@@VTrace@sdk@34@$0A@@lua@aw@@SAHPAUlua_State@@@Z 100151c0 f i common_lua.obj
 0001:00014210       ??$Method@V?$Class@VClsUserCmd@lua@csgo@aw@@VUserCmdEx@234@$0A@@lua@aw@@$1?__index@123@QAEXPAVUserCmdEx@2csgo@3@AAVState@23@@Z@?$Class@VClsUserCmd@lua@csgo@aw@@VUserCmdEx@234@$0A@@lua@aw@@SAHPAUlua_State@@@Z 10015210 f i common_lua.obj
 0001:00014260       ??$Method@V?$Class@VClsUserCmd@lua@csgo@aw@@VUserCmdEx@234@$0A@@lua@aw@@$1?__metatable@123@QAEXPAVUserCmdEx@2csgo@3@AAVState@23@@Z@?$Class@VClsUserCmd@lua@csgo@aw@@VUserCmdEx@234@$0A@@lua@aw@@SAHPAUlua_State@@@Z 10015260 f i common_lua.obj
 0001:000142b0       ??$Method@V?$Class@VClsUserCmd@lua@csgo@aw@@VUserCmdEx@234@$0A@@lua@aw@@$1?__newindex@123@QAEXPAVUserCmdEx@2csgo@3@AAVState@23@@Z@?$Class@VClsUserCmd@lua@csgo@aw@@VUserCmdEx@234@$0A@@lua@aw@@SAHPAUlua_State@@@Z 100152b0 f i common_lua.obj
 0001:00014300       ??$Method@V?$Class@VClsUserMessage@lua@csgo@aw@@VUserMessage@sdk@34@$0A@@lua@aw@@$1?__index@123@QAEXPAVUserMessage@sdk@csgo@3@AAVState@23@@Z@?$Class@VClsUserMessage@lua@csgo@aw@@VUserMessage@sdk@34@$0A@@lua@aw@@SAHPAUlua_State@@@Z 10015300 f i common_lua.obj
 0001:00014350       ??$Method@V?$Class@VClsUserMessage@lua@csgo@aw@@VUserMessage@sdk@34@$0A@@lua@aw@@$1?__metatable@123@QAEXPAVUserMessage@sdk@csgo@3@AAVState@23@@Z@?$Class@VClsUserMessage@lua@csgo@aw@@VUserMessage@sdk@34@$0A@@lua@aw@@SAHPAUlua_State@@@Z 10015350 f i common_lua.obj
 0001:000143a0       ??$Method@V?$Class@VClsUserMessage@lua@csgo@aw@@VUserMessage@sdk@34@$0A@@lua@aw@@$1?__newindex@123@QAEXPAVUserMessage@sdk@csgo@3@AAVState@23@@Z@?$Class@VClsUserMessage@lua@csgo@aw@@VUserMessage@sdk@34@$0A@@lua@aw@@SAHPAUlua_State@@@Z 100153a0 f i common_lua.obj
 0001:000143f0       ??$Run@PAUDrawChamsModel@mod@csgo@aw@@@LibCallbacks@lua@aw@@QAEXABV?$basic_string@DU?$char_traits@D@std@@V?$allocator@D@2@@std@@PAUDrawChamsModel@mod@csgo@2@@Z 100153f0 f i common_lua.obj
 0001:000144f0       ??$Run@PAVUserCmdEx@lua@csgo@aw@@@LibCallbacks@lua@aw@@QAEXABV?$basic_string@DU?$char_traits@D@std@@V?$allocator@D@2@@std@@PAVUserCmdEx@1csgo@2@@Z 100154f0 f i common_lua.obj
 0001:000145f0       ??$_Erase_tree@V?$allocator@U?$_Tree_node@U?$pair@$$CBV?$basic_string@DU?$char_traits@D@std@@V?$allocator@D@2@@std@@P6AHPAUlua_State@@@Z@std@@PAX@std@@@std@@@?$_Tree_val@U?$_Tree_simple_types@U?$pair@$$CBV?$basic_string@DU?$char_traits@D@std@@V?$allocator@D@2@@std@@P6AHPAUlua_State@@@Z@std@@@std@@@std@@QAEXAAV?$allocator@U?$_Tree_node@U?$pair@$$CBV?$basic_string@DU?$char_traits@D@std@@V?$allocator@D@2@@std@@P6AHPAUlua_State@@@Z@std@@PAX@std@@@1@PAU?$_Tree_node@U?$pair@$$CBV?$basic_string@DU?$char_traits@D@std@@V?$allocator@D@2@@std@@P6AHPAUlua_State@@@Z@std@@PAX@1@@Z 100155f0 f i common_lua.obj
 0001:00014660       ??0?$basic_string@DU?$char_traits@D@std@@V?$allocator@D@2@@std@@QAE@QBD@Z 10015660 f i common_lua.obj
 0001:000146a0       ??0ClassBase@lua@aw@@QAE@XZ 100156a0 f i common_lua.obj
 0001:000148d0       ??0CommonLua@impl@mod@csgo@aw@@QAE@XZ 100158d0 f i common_lua.obj
 0001:00014ac0       ??1?$_Hash@V?$_Umap_traits@ULuaJITString@lua@aw@@P6AHPAUlua_State@@@ZV?$_Uhash_compare@ULuaJITString@lua@aw@@ULuaJITStringHasher@23@ULuaJITStringEqual@23@@std@@V?$allocator@U?$pair@$$CBULuaJITString@lua@aw@@P6AHPAUlua_State@@@Z@std@@@6@$0A@@std@@@std@@QAE@XZ 10015ac0 f i common_lua.obj
 0001:00014b40       ??1?$_Hash@V?$_Umap_traits@ULuaJITString@lua@aw@@UClassProperty@23@V?$_Uhash_compare@ULuaJITString@lua@aw@@ULuaJITStringHasher@23@ULuaJITStringEqual@23@@std@@V?$allocator@U?$pair@$$CBULuaJITString@lua@aw@@UClassProperty@23@@std@@@6@$0A@@std@@@std@@QAE@XZ 10015b40 f i common_lua.obj
 0001:00014bc0       ??1ClassBase@lua@aw@@UAE@XZ 10015bc0 f i common_lua.obj
 0001:00014c30       ??A?$map@V?$basic_string@DU?$char_traits@D@std@@V?$allocator@D@2@@std@@P6AHPAUlua_State@@@ZU?$less@V?$basic_string@DU?$char_traits@D@std@@V?$allocator@D@2@@std@@@2@V?$allocator@U?$pair@$$CBV?$basic_string@DU?$char_traits@D@std@@V?$allocator@D@2@@std@@P6AHPAUlua_State@@@Z@std@@@2@@std@@QAEAAP6AHPAUlua_State@@@Z$$QAV?$basic_string@DU?$char_traits@D@std@@V?$allocator@D@2@@1@@Z 10015c30 f i common_lua.obj
 0001:00014dc0       ??R?$less@V?$basic_string@DU?$char_traits@D@std@@V?$allocator@D@2@@std@@@std@@QBE_NABV?$basic_string@DU?$char_traits@D@std@@V?$allocator@D@2@@1@0@Z 10015dc0 f i common_lua.obj
 0001:00014e70       ??_E?$Class@VClsDrawModelContext@lua@csgo@aw@@UDrawChamsModel@mod@34@$0A@@lua@aw@@UAEPAXI@Z 10015e70 f i common_lua.obj
 0001:00014e70       ??_G?$Class@VClsDrawModelContext@lua@csgo@aw@@UDrawChamsModel@mod@34@$0A@@lua@aw@@UAEPAXI@Z 10015e70 f i common_lua.obj
 0001:00014ea0       ??_E?$Class@VClsEntity@lua@csgo@aw@@VBaseHandle@sdk@34@$00@lua@aw@@UAEPAXI@Z 10015ea0 f i common_lua.obj
 0001:00014ea0       ??_G?$Class@VClsEntity@lua@csgo@aw@@VBaseHandle@sdk@34@$00@lua@aw@@UAEPAXI@Z 10015ea0 f i common_lua.obj
 0001:00014ed0       ??_E?$Class@VClsEspBuilder@lua@csgo@aw@@VEspBuilder@mod@34@$0A@@lua@aw@@UAEPAXI@Z 10015ed0 f i common_lua.obj
 0001:00014ed0       ??_G?$Class@VClsEspBuilder@lua@csgo@aw@@VEspBuilder@mod@34@$0A@@lua@aw@@UAEPAXI@Z 10015ed0 f i common_lua.obj
 0001:00014f00       ??_E?$Class@VClsGameEvent@lua@csgo@aw@@VGameEvent@sdk@34@$0A@@lua@aw@@UAEPAXI@Z 10015f00 f i common_lua.obj
 0001:00014f00       ??_G?$Class@VClsGameEvent@lua@csgo@aw@@VGameEvent@sdk@34@$0A@@lua@aw@@UAEPAXI@Z 10015f00 f i common_lua.obj
 0001:00014f30       ??_E?$Class@VClsMaterial@lua@csgo@aw@@VMaterial@sdk@34@$0A@@lua@aw@@UAEPAXI@Z 10015f30 f i common_lua.obj
 0001:00014f30       ??_G?$Class@VClsMaterial@lua@csgo@aw@@VMaterial@sdk@34@$0A@@lua@aw@@UAEPAXI@Z 10015f30 f i common_lua.obj
 0001:00014f60       ??_E?$Class@VClsPlane@lua@csgo@aw@@Ucplane_t@sdk@34@$00@lua@aw@@UAEPAXI@Z 10015f60 f i common_lua.obj
 0001:00014f60       ??_G?$Class@VClsPlane@lua@csgo@aw@@Ucplane_t@sdk@34@$00@lua@aw@@UAEPAXI@Z 10015f60 f i common_lua.obj
 0001:00014f90       ??_E?$Class@VClsPlayerInfo@lua@csgo@aw@@ULuaPlayerInfo@234@$0A@@lua@aw@@UAEPAXI@Z 10015f90 f i common_lua.obj
 0001:00014f90       ??_G?$Class@VClsPlayerInfo@lua@csgo@aw@@ULuaPlayerInfo@234@$0A@@lua@aw@@UAEPAXI@Z 10015f90 f i common_lua.obj
 0001:00014fc0       ??_E?$Class@VClsStringCmd@lua@csgo@aw@@UStringCmd@234@$0A@@lua@aw@@UAEPAXI@Z 10015fc0 f i common_lua.obj
 0001:00014fc0       ??_G?$Class@VClsStringCmd@lua@csgo@aw@@UStringCmd@234@$0A@@lua@aw@@UAEPAXI@Z 10015fc0 f i common_lua.obj
 0001:00014ff0       ??_E?$Class@VClsSurface@lua@csgo@aw@@Ucsurface_t@sdk@34@$00@lua@aw@@UAEPAXI@Z 10015ff0 f i common_lua.obj
 0001:00014ff0       ??_G?$Class@VClsSurface@lua@csgo@aw@@Ucsurface_t@sdk@34@$00@lua@aw@@UAEPAXI@Z 10015ff0 f i common_lua.obj
 0001:00015020       ??_E?$Class@VClsTrace@lua@csgo@aw@@VTrace@sdk@34@$0A@@lua@aw@@UAEPAXI@Z 10016020 f i common_lua.obj
 0001:00015020       ??_G?$Class@VClsTrace@lua@csgo@aw@@VTrace@sdk@34@$0A@@lua@aw@@UAEPAXI@Z 10016020 f i common_lua.obj
 0001:00015050       ??_E?$Class@VClsUserCmd@lua@csgo@aw@@VUserCmdEx@234@$0A@@lua@aw@@UAEPAXI@Z 10016050 f i common_lua.obj
 0001:00015050       ??_G?$Class@VClsUserCmd@lua@csgo@aw@@VUserCmdEx@234@$0A@@lua@aw@@UAEPAXI@Z 10016050 f i common_lua.obj
 0001:00015080       ??_E?$Class@VClsUserMessage@lua@csgo@aw@@VUserMessage@sdk@34@$0A@@lua@aw@@UAEPAXI@Z 10016080 f i common_lua.obj
 0001:00015080       ??_G?$Class@VClsUserMessage@lua@csgo@aw@@VUserMessage@sdk@34@$0A@@lua@aw@@UAEPAXI@Z 10016080 f i common_lua.obj
 0001:000150b0       ??_E?$ModuleBaseImpl@VCommonLua@mod@csgo@aw@@V?$TypedObject@VCommonLua@mod@csgo@aw@@VModuleBase@4@@4@@aw@@UAEPAXI@Z 100160b0 f i common_lua.obj
 0001:000150b0       ??_G?$ModuleBaseImpl@VCommonLua@mod@csgo@aw@@V?$TypedObject@VCommonLua@mod@csgo@aw@@VModuleBase@4@@4@@aw@@UAEPAXI@Z 100160b0 f i common_lua.obj
 0001:000150e0       ??_EClassBase@lua@aw@@UAEPAXI@Z 100160e0 f i common_lua.obj
 0001:000150e0       ??_GClassBase@lua@aw@@UAEPAXI@Z 100160e0 f i common_lua.obj
 0001:00015100       ??_EClsDrawModelContext@lua@csgo@aw@@UAEPAXI@Z 10016100 f i common_lua.obj
 0001:00015100       ??_GClsDrawModelContext@lua@csgo@aw@@UAEPAXI@Z 10016100 f i common_lua.obj
 0001:00015130       ??_EClsEntity@lua@csgo@aw@@UAEPAXI@Z 10016130 f i common_lua.obj
 0001:00015130       ??_GClsEntity@lua@csgo@aw@@UAEPAXI@Z 10016130 f i common_lua.obj
 0001:00015160       ??_EClsEspBuilder@lua@csgo@aw@@UAEPAXI@Z 10016160 f i common_lua.obj
 0001:00015160       ??_GClsEspBuilder@lua@csgo@aw@@UAEPAXI@Z 10016160 f i common_lua.obj
 0001:00015190       ??_EClsGameEvent@lua@csgo@aw@@UAEPAXI@Z 10016190 f i common_lua.obj
 0001:00015190       ??_GClsGameEvent@lua@csgo@aw@@UAEPAXI@Z 10016190 f i common_lua.obj
 0001:000151c0       ??_EClsMaterial@lua@csgo@aw@@UAEPAXI@Z 100161c0 f i common_lua.obj
 0001:000151c0       ??_GClsMaterial@lua@csgo@aw@@UAEPAXI@Z 100161c0 f i common_lua.obj
 0001:000151f0       ??_EClsPlane@lua@csgo@aw@@UAEPAXI@Z 100161f0 f i common_lua.obj
 0001:000151f0       ??_GClsPlane@lua@csgo@aw@@UAEPAXI@Z 100161f0 f i common_lua.obj
 0001:00015220       ??_EClsPlayerInfo@lua@csgo@aw@@UAEPAXI@Z 10016220 f i common_lua.obj
 0001:00015220       ??_GClsPlayerInfo@lua@csgo@aw@@UAEPAXI@Z 10016220 f i common_lua.obj
 0001:00015250       ??_EClsStringCmd@lua@csgo@aw@@UAEPAXI@Z 10016250 f i common_lua.obj
 0001:00015250       ??_GClsStringCmd@lua@csgo@aw@@UAEPAXI@Z 10016250 f i common_lua.obj
 0001:00015280       ??_EClsSurface@lua@csgo@aw@@UAEPAXI@Z 10016280 f i common_lua.obj
 0001:00015280       ??_GClsSurface@lua@csgo@aw@@UAEPAXI@Z 10016280 f i common_lua.obj
 0001:000152b0       ??_EClsTrace@lua@csgo@aw@@UAEPAXI@Z 100162b0 f i common_lua.obj
 0001:000152b0       ??_GClsTrace@lua@csgo@aw@@UAEPAXI@Z 100162b0 f i common_lua.obj
 0001:000152e0       ??_EClsUserCmd@lua@csgo@aw@@UAEPAXI@Z 100162e0 f i common_lua.obj
 0001:000152e0       ??_GClsUserCmd@lua@csgo@aw@@UAEPAXI@Z 100162e0 f i common_lua.obj
 0001:00015310       ??_EClsUserMessage@lua@csgo@aw@@UAEPAXI@Z 10016310 f i common_lua.obj
 0001:00015310       ??_GClsUserMessage@lua@csgo@aw@@UAEPAXI@Z 10016310 f i common_lua.obj
 0001:00015340       ??_ECommonLua@impl@mod@csgo@aw@@UAEPAXI@Z 10016340 f i common_lua.obj
 0001:00015340       ??_GCommonLua@impl@mod@csgo@aw@@UAEPAXI@Z 10016340 f i common_lua.obj
 0001:00015370       ??_ELibCheat@lua@csgo@aw@@UAEPAXI@Z 10016370 f i common_lua.obj
 0001:00015370       ??_GLibCheat@lua@csgo@aw@@UAEPAXI@Z 10016370 f i common_lua.obj
 0001:000153d0       ??_ELibClient@lua@csgo@aw@@UAEPAXI@Z 100163d0 f i common_lua.obj
 0001:000153d0       ??_GLibClient@lua@csgo@aw@@UAEPAXI@Z 100163d0 f i common_lua.obj
 0001:00015430       ??_ELibEngine@lua@csgo@aw@@UAEPAXI@Z 10016430 f i common_lua.obj
 0001:00015430       ??_GLibEngine@lua@csgo@aw@@UAEPAXI@Z 10016430 f i common_lua.obj
 0001:00015490       ??_ELibEntities@lua@csgo@aw@@UAEPAXI@Z 10016490 f i common_lua.obj
 0001:00015490       ??_GLibEntities@lua@csgo@aw@@UAEPAXI@Z 10016490 f i common_lua.obj
 0001:000154f0       ??_ELibGlobalVars@lua@csgo@aw@@UAEPAXI@Z 100164f0 f i common_lua.obj
 0001:000154f0       ??_GLibGlobalVars@lua@csgo@aw@@UAEPAXI@Z 100164f0 f i common_lua.obj
 0001:00015550       ??_ELibMaterials@lua@csgo@aw@@UAEPAXI@Z 10016550 f i common_lua.obj
 0001:00015550       ??_GLibMaterials@lua@csgo@aw@@UAEPAXI@Z 10016550 f i common_lua.obj
 0001:000155b0       ??_ELibPanorama@lua@csgo@aw@@UAEPAXI@Z 100165b0 f i common_lua.obj
 0001:000155b0       ??_GLibPanorama@lua@csgo@aw@@UAEPAXI@Z 100165b0 f i common_lua.obj
 0001:00015610       ??_ELibraryBase@lua@aw@@UAEPAXI@Z 10016610 f i common_lua.obj
 0001:00015610       ??_GLibraryBase@lua@aw@@UAEPAXI@Z 10016610 f i common_lua.obj
 0001:00015670       ?CreateModule@?$ModuleWithFactory@VCommonLua@mod@csgo@aw@@@aw@@SAPAVCommonLua@mod@csgo@2@XZ 10016670 f   common_lua.obj
 0001:000156a0       ?Get@?$Class@VClsDrawModelContext@lua@csgo@aw@@UDrawChamsModel@mod@34@$0A@@lua@aw@@QAEPAUDrawChamsModel@mod@csgo@3@PAUlua_State@@H@Z 100166a0 f i common_lua.obj
 0001:00015810       ?Get@?$Class@VClsEntity@lua@csgo@aw@@VBaseHandle@sdk@34@$00@lua@aw@@QAEPAVBaseHandle@sdk@csgo@3@PAUlua_State@@H@Z 10016810 f i common_lua.obj
 0001:00015980       ?Get@?$Class@VClsEspBuilder@lua@csgo@aw@@VEspBuilder@mod@34@$0A@@lua@aw@@QAEPAVEspBuilder@mod@csgo@3@PAUlua_State@@H@Z 10016980 f i common_lua.obj
 0001:00015af0       ?Get@?$Class@VClsGameEvent@lua@csgo@aw@@VGameEvent@sdk@34@$0A@@lua@aw@@QAEPAVGameEvent@sdk@csgo@3@PAUlua_State@@H@Z 10016af0 f i common_lua.obj
 0001:00015c60       ?Get@?$Class@VClsMaterial@lua@csgo@aw@@VMaterial@sdk@34@$0A@@lua@aw@@QAEPAVMaterial@sdk@csgo@3@PAUlua_State@@H@Z 10016c60 f i common_lua.obj
 0001:00015dd0       ?Get@?$Class@VClsPlane@lua@csgo@aw@@Ucplane_t@sdk@34@$00@lua@aw@@QAEPAUcplane_t@sdk@csgo@3@PAUlua_State@@H@Z 10016dd0 f i common_lua.obj
 0001:00015f40       ?Get@?$Class@VClsPlayerInfo@lua@csgo@aw@@ULuaPlayerInfo@234@$0A@@lua@aw@@QAEPAULuaPlayerInfo@2csgo@3@PAUlua_State@@H@Z 10016f40 f i common_lua.obj
 0001:000160b0       ?Get@?$Class@VClsStringCmd@lua@csgo@aw@@UStringCmd@234@$0A@@lua@aw@@QAEPAUStringCmd@2csgo@3@PAUlua_State@@H@Z 100170b0 f i common_lua.obj
 0001:00016220       ?Get@?$Class@VClsSurface@lua@csgo@aw@@Ucsurface_t@sdk@34@$00@lua@aw@@QAEPAUcsurface_t@sdk@csgo@3@PAUlua_State@@H@Z 10017220 f i common_lua.obj
 0001:00016390       ?Get@?$Class@VClsTrace@lua@csgo@aw@@VTrace@sdk@34@$0A@@lua@aw@@QAEPAVTrace@sdk@csgo@3@PAUlua_State@@H@Z 10017390 f i common_lua.obj
 0001:00016500       ?Get@?$Class@VClsUserCmd@lua@csgo@aw@@VUserCmdEx@234@$0A@@lua@aw@@QAEPAVUserCmdEx@2csgo@3@PAUlua_State@@H@Z 10017500 f i common_lua.obj
 0001:00016670       ?Get@?$Class@VClsUserMessage@lua@csgo@aw@@VUserMessage@sdk@34@$0A@@lua@aw@@QAEPAVUserMessage@sdk@csgo@3@PAUlua_State@@H@Z 10017670 f i common_lua.obj
 0001:000167e0       ?GetDrawModelCallbacks@CommonLua@impl@mod@csgo@aw@@UAEI_N000@Z 100177e0 f   common_lua.obj
 0001:00016d70       ?GetId@?$TypedObject@VCommonLua@mod@csgo@aw@@VModuleBase@4@@aw@@UAEIXZ 10017d70 f i common_lua.obj
 0001:00016d80       ?Init@?$Class@VClsDrawModelContext@lua@csgo@aw@@UDrawChamsModel@mod@34@$0A@@lua@aw@@UAEXPAVContext@23@@Z 10017d80 f i common_lua.obj
 0001:000170f0       ?Init@?$Class@VClsEntity@lua@csgo@aw@@VBaseHandle@sdk@34@$00@lua@aw@@UAEXPAVContext@23@@Z 100180f0 f i common_lua.obj
 0001:00017460       ?Init@?$Class@VClsEspBuilder@lua@csgo@aw@@VEspBuilder@mod@34@$0A@@lua@aw@@UAEXPAVContext@23@@Z 10018460 f i common_lua.obj
 0001:000177d0       ?Init@?$Class@VClsGameEvent@lua@csgo@aw@@VGameEvent@sdk@34@$0A@@lua@aw@@UAEXPAVContext@23@@Z 100187d0 f i common_lua.obj
 0001:00017b40       ?Init@?$Class@VClsMaterial@lua@csgo@aw@@VMaterial@sdk@34@$0A@@lua@aw@@UAEXPAVContext@23@@Z 10018b40 f i common_lua.obj
 0001:00017eb0       ?Init@?$Class@VClsPlane@lua@csgo@aw@@Ucplane_t@sdk@34@$00@lua@aw@@UAEXPAVContext@23@@Z 10018eb0 f i common_lua.obj
 0001:00018220       ?Init@?$Class@VClsPlayerInfo@lua@csgo@aw@@ULuaPlayerInfo@234@$0A@@lua@aw@@UAEXPAVContext@23@@Z 10019220 f i common_lua.obj
 0001:00018590       ?Init@?$Class@VClsStringCmd@lua@csgo@aw@@UStringCmd@234@$0A@@lua@aw@@UAEXPAVContext@23@@Z 10019590 f i common_lua.obj
 0001:00018900       ?Init@?$Class@VClsSurface@lua@csgo@aw@@Ucsurface_t@sdk@34@$00@lua@aw@@UAEXPAVContext@23@@Z 10019900 f i common_lua.obj
 0001:00018c70       ?Init@?$Class@VClsTrace@lua@csgo@aw@@VTrace@sdk@34@$0A@@lua@aw@@UAEXPAVContext@23@@Z 10019c70 f i common_lua.obj
 0001:00018fe0       ?Init@?$Class@VClsUserCmd@lua@csgo@aw@@VUserCmdEx@234@$0A@@lua@aw@@UAEXPAVContext@23@@Z 10019fe0 f i common_lua.obj
 0001:00019350       ?Init@?$Class@VClsUserMessage@lua@csgo@aw@@VUserMessage@sdk@34@$0A@@lua@aw@@UAEXPAVContext@23@@Z 1001a350 f i common_lua.obj
 0001:000196c0       ?OnCreateMove@CommonLua@impl@mod@csgo@aw@@IAEXAAULocalPostMove@345@@Z 1001a6c0 f   common_lua.obj
 0001:00019920       ?OnDrawChamsModel@CommonLua@impl@mod@csgo@aw@@IAEXAAUDrawChamsModel@345@@Z 1001a920 f   common_lua.obj
 0001:00019d30       ?OnGameEvent@CommonLua@impl@mod@csgo@aw@@IAEXAAUGameEvent@hk@45@@Z 1001ad30 f   common_lua.obj
 0001:00019f40       ?OnIsScriptRunning@LibraryBase@lua@aw@@UAEXAAUIsScriptRunning@23@@Z 1001af40 f i common_lua.obj
 0001:00019f50       ?OnLoadScript@LibraryBase@lua@aw@@UAEXAAULoadScript@23@@Z 1001af50 f i common_lua.obj
 0001:00019f60       ?OnParseNetMsg@CommonLua@impl@mod@csgo@aw@@IAEXAAUParseNetMsg@hk@45@@Z 1001af60 f   common_lua.obj
 0001:0001a260       ?OnPreMove@CommonLua@impl@mod@csgo@aw@@IAEXAAULocalPreMove@345@@Z 1001b260 f   common_lua.obj
 0001:0001a3a0       ?OnSendNetMsg@CommonLua@impl@mod@csgo@aw@@IAEXAAUSendNetMsg@hk@45@@Z 1001b3a0 f   common_lua.obj
 0001:0001a840       ?OnUnloadScript@LibraryBase@lua@aw@@UAEXAAUUnloadScript@23@@Z 1001b840 f i common_lua.obj
 0001:0001a850       ?_Insert_node@?$_Tree_val@U?$_Tree_simple_types@U?$pair@$$CBV?$basic_string@DU?$char_traits@D@std@@V?$allocator@D@2@@std@@P6AHPAUlua_State@@@Z@std@@@std@@@std@@QAEPAU?$_Tree_node@U?$pair@$$CBV?$basic_string@DU?$char_traits@D@std@@V?$allocator@D@2@@std@@P6AHPAUlua_State@@@Z@std@@PAX@2@U?$_Tree_id@PAU?$_Tree_node@U?$pair@$$CBV?$basic_string@DU?$char_traits@D@std@@V?$allocator@D@2@@std@@P6AHPAUlua_State@@@Z@std@@PAX@std@@@2@QAU32@@Z 1001b850 f i common_lua.obj
 0001:0001aa40       ?_Throw_tree_length_error@std@@YAXXZ 1001ba40 f i common_lua.obj
 0001:0001aa50       ??$CreateModule@VCommonInput@mod@csgo@aw@@@ModuleMgr@aw@@QAEPAVCommonInput@mod@csgo@1@XZ 1001ba50 f i common_modules.obj
 0001:0001aa70       ??$CreateModule@VCommonLua@mod@csgo@aw@@@ModuleMgr@aw@@QAEPAVCommonLua@mod@csgo@1@XZ 1001ba70 f i common_modules.obj
 0001:0001aa80       ??$CreateModule@VCommonRender@mod@csgo@aw@@@ModuleMgr@aw@@QAEPAVCommonRender@mod@csgo@1@XZ 1001ba80 f i common_modules.obj
 0001:0001aa90       ??$CreateModule@VCommonUI@mod@csgo@aw@@@ModuleMgr@aw@@QAEPAVCommonUI@mod@csgo@1@XZ 1001ba90 f i common_modules.obj
 0001:0001aaa0       ??$CreateModule@VContext@lua@aw@@@ModuleMgr@aw@@QAEPAVContext@lua@1@XZ 1001baa0 f i common_modules.obj
 0001:0001aac0       ??$CreateModule@VContext@ui@aw@@@ModuleMgr@aw@@QAEPAVContext@ui@1@XZ 1001bac0 f i common_modules.obj
 0001:0001aae0       ??$CreateModule@VGameInput@mod@csgo@aw@@@ModuleMgr@aw@@QAEPAVGameInput@mod@csgo@1@XZ 1001bae0 f i common_modules.obj
 0001:0001ab40       ??$CreateModule@VRenderContext@gfx@aw@@@ModuleMgr@aw@@QAEPAVRenderContext@gfx@1@XZ 1001bb40 f i common_modules.obj
 0001:0001ab60       ??$CreateModule@VRenderResources@gfx@aw@@@ModuleMgr@aw@@QAEPAVRenderResources@gfx@1@XZ 1001bb60 f i common_modules.obj
 0001:0001aba0       ??$CreateModule@VRenderSystem@gfx@aw@@@ModuleMgr@aw@@QAEPAVRenderSystem@gfx@1@XZ 1001bba0 f i common_modules.obj
 0001:0001aca0       ??$CreateModule@VRenderThread@gfx@aw@@@ModuleMgr@aw@@QAEPAVRenderThread@gfx@1@XZ 1001bca0 f i common_modules.obj
 0001:0001ad20       ??$FindModule@VCommonInput@mod@csgo@aw@@@ModuleMgr@aw@@QAEPAVCommonInput@mod@csgo@1@_N@Z 1001bd20 f i common_modules.obj
 0001:0001adf0       ??$FindModule@VCommonLua@mod@csgo@aw@@@ModuleMgr@aw@@QAEPAVCommonLua@mod@csgo@1@_N@Z 1001bdf0 f i common_modules.obj
 0001:0001aec0       ??$FindModule@VCommonRender@mod@csgo@aw@@@ModuleMgr@aw@@QAEPAVCommonRender@mod@csgo@1@_N@Z 1001bec0 f i common_modules.obj
 0001:0001af90       ??$FindModule@VCommonUI@mod@csgo@aw@@@ModuleMgr@aw@@QAEPAVCommonUI@mod@csgo@1@_N@Z 1001bf90 f i common_modules.obj
 0001:0001b060       ??$FindModule@VContext@lua@aw@@@ModuleMgr@aw@@QAEPAVContext@lua@1@_N@Z 1001c060 f i common_modules.obj
 0001:0001b130       ??$FindModule@VContext@ui@aw@@@ModuleMgr@aw@@QAEPAVContext@ui@1@_N@Z 1001c130 f i common_modules.obj
 0001:0001b200       ??$FindModule@VGameInput@mod@csgo@aw@@@ModuleMgr@aw@@QAEPAVGameInput@mod@csgo@1@_N@Z 1001c200 f i common_modules.obj
 0001:0001b2d0       ??$FindModule@VRenderContext@gfx@aw@@@ModuleMgr@aw@@QAEPAVRenderContext@gfx@1@_N@Z 1001c2d0 f i common_modules.obj
 0001:0001b3a0       ??$FindModule@VRenderResources@gfx@aw@@@ModuleMgr@aw@@QAEPAVRenderResources@gfx@1@_N@Z 1001c3a0 f i common_modules.obj
 0001:0001b470       ??$FindModule@VRenderSystem@gfx@aw@@@ModuleMgr@aw@@QAEPAVRenderSystem@gfx@1@_N@Z 1001c470 f i common_modules.obj
 0001:0001b540       ??$FindModule@VRenderThread@gfx@aw@@@ModuleMgr@aw@@QAEPAVRenderThread@gfx@1@_N@Z 1001c540 f i common_modules.obj
 0001:0001b610       ??$FindOrCreateModule@VCommonInput@mod@csgo@aw@@@ModuleMgr@aw@@QAEPAVCommonInput@mod@csgo@1@XZ 1001c610 f i common_modules.obj
 0001:0001b630       ??$FindOrCreateModule@VCommonLua@mod@csgo@aw@@@ModuleMgr@aw@@QAEPAVCommonLua@mod@csgo@1@XZ 1001c630 f i common_modules.obj
 0001:0001b650       ??$FindOrCreateModule@VCommonRender@mod@csgo@aw@@@ModuleMgr@aw@@QAEPAVCommonRender@mod@csgo@1@XZ 1001c650 f i common_modules.obj
 0001:0001b670       ??$FindOrCreateModule@VCommonUI@mod@csgo@aw@@@ModuleMgr@aw@@QAEPAVCommonUI@mod@csgo@1@XZ 1001c670 f i common_modules.obj
 0001:0001b690       ??$FindOrCreateModule@VContext@lua@aw@@@ModuleMgr@aw@@QAEPAVContext@lua@1@XZ 1001c690 f i common_modules.obj
 0001:0001b6b0       ??$FindOrCreateModule@VContext@ui@aw@@@ModuleMgr@aw@@QAEPAVContext@ui@1@XZ 1001c6b0 f i common_modules.obj
 0001:0001b6d0       ??$FindOrCreateModule@VGameInput@mod@csgo@aw@@@ModuleMgr@aw@@QAEPAVGameInput@mod@csgo@1@XZ 1001c6d0 f i common_modules.obj
 0001:0001b6f0       ??$FindOrCreateModule@VRenderContext@gfx@aw@@@ModuleMgr@aw@@QAEPAVRenderContext@gfx@1@XZ 1001c6f0 f i common_modules.obj
 0001:0001b710       ??$FindOrCreateModule@VRenderResources@gfx@aw@@@ModuleMgr@aw@@QAEPAVRenderResources@gfx@1@XZ 1001c710 f i common_modules.obj
 0001:0001b730       ??$FindOrCreateModule@VRenderSystem@gfx@aw@@@ModuleMgr@aw@@QAEPAVRenderSystem@gfx@1@XZ 1001c730 f i common_modules.obj
 0001:0001b750       ??$FindOrCreateModule@VRenderThread@gfx@aw@@@ModuleMgr@aw@@QAEPAVRenderThread@gfx@1@XZ 1001c750 f i common_modules.obj
 0001:0001b770       ??$RegisterModule@VCommonInput@mod@csgo@aw@@@ModuleMgr@aw@@QAEPAVCommonInput@mod@csgo@1@XZ 1001c770 f i common_modules.obj
 0001:0001b780       ??$RegisterModule@VCommonLua@mod@csgo@aw@@@ModuleMgr@aw@@QAEPAVCommonLua@mod@csgo@1@XZ 1001c780 f i common_modules.obj
 0001:0001b790       ??$RegisterModule@VCommonRender@mod@csgo@aw@@@ModuleMgr@aw@@QAEPAVCommonRender@mod@csgo@1@XZ 1001c790 f i common_modules.obj
 0001:0001b7a0       ??$RegisterModule@VCommonUI@mod@csgo@aw@@@ModuleMgr@aw@@QAEPAVCommonUI@mod@csgo@1@XZ 1001c7a0 f i common_modules.obj
 0001:0001b7b0       ??$RegisterModule@VContext@lua@aw@@@ModuleMgr@aw@@QAEPAVContext@lua@1@XZ 1001c7b0 f i common_modules.obj
 0001:0001b7c0       ??$RegisterModule@VContext@ui@aw@@@ModuleMgr@aw@@QAEPAVContext@ui@1@XZ 1001c7c0 f i common_modules.obj
 0001:0001b7d0       ??$RegisterModule@VGameInput@mod@csgo@aw@@@ModuleMgr@aw@@QAEPAVGameInput@mod@csgo@1@XZ 1001c7d0 f i common_modules.obj
 0001:0001b7e0       ??$RegisterModule@VRenderContext@gfx@aw@@@ModuleMgr@aw@@QAEPAVRenderContext@gfx@1@XZ 1001c7e0 f i common_modules.obj
 0001:0001b7f0       ??$RegisterModule@VRenderResources@gfx@aw@@@ModuleMgr@aw@@QAEPAVRenderResources@gfx@1@XZ 1001c7f0 f i common_modules.obj
 0001:0001b800       ??$RegisterModule@VRenderSystem@gfx@aw@@@ModuleMgr@aw@@QAEPAVRenderSystem@gfx@1@XZ 1001c800 f i common_modules.obj
 0001:0001b810       ??$_Erase_tree@V?$allocator@U?$_Tree_node@U?$pair@$$CBIV?$unique_ptr@VD3D9VertexBuffer@gfx@aw@@U?$default_delete@VD3D9VertexBuffer@gfx@aw@@@std@@@std@@@std@@PAX@std@@@std@@@?$_Tree_val@U?$_Tree_simple_types@U?$pair@$$CBIV?$unique_ptr@VD3D9VertexBuffer@gfx@aw@@U?$default_delete@VD3D9VertexBuffer@gfx@aw@@@std@@@std@@@std@@@std@@@std@@QAEXAAV?$allocator@U?$_Tree_node@U?$pair@$$CBIV?$unique_ptr@VD3D9VertexBuffer@gfx@aw@@U?$default_delete@VD3D9VertexBuffer@gfx@aw@@@std@@@std@@@std@@PAX@std@@@1@PAU?$_Tree_node@U?$pair@$$CBIV?$unique_ptr@VD3D9VertexBuffer@gfx@aw@@U?$default_delete@VD3D9VertexBuffer@gfx@aw@@@std@@@std@@@std@@PAX@1@@Z 1001c810 f i common_modules.obj
 0001:0001b890       ??0D3D9RestorableState@gfx@aw@@QAE@XZ 1001c890 f i common_modules.obj
 0001:0001bd30       ??0Win32Input@hk@aw@@QAE@XZ 1001cd30 f i common_modules.obj
 0001:0001bf40       ??1?$_Hash@V?$_Umap_traits@IU?$HResultPair@UStreamSource@D3D9RestorableState@gfx@aw@@@nt@aw@@V?$_Uhash_compare@IU?$hash@I@std@@U?$equal_to@I@2@@std@@V?$allocator@U?$pair@$$CBIU?$HResultPair@UStreamSource@D3D9RestorableState@gfx@aw@@@nt@aw@@@std@@@5@$0A@@std@@@std@@QAE@XZ 1001cf40 f i common_modules.obj
 0001:0001bfc0       ??1?$_Hash@V?$_Umap_traits@KU?$HResultPair@PAUIDirect3DBaseTexture9@@@nt@aw@@V?$_Uhash_compare@KU?$hash@K@std@@U?$equal_to@K@2@@std@@V?$allocator@U?$pair@$$CBKU?$HResultPair@PAUIDirect3DBaseTexture9@@@nt@aw@@@std@@@5@$0A@@std@@@std@@QAE@XZ 1001cfc0 f i common_modules.obj
 0001:0001c040       ??1?$_Hash@V?$_Umap_traits@W4_D3DRENDERSTATETYPE@@U?$HResultPair@K@nt@aw@@V?$_Uhash_compare@W4_D3DRENDERSTATETYPE@@U?$hash@W4_D3DRENDERSTATETYPE@@@std@@U?$equal_to@W4_D3DRENDERSTATETYPE@@@3@@std@@V?$allocator@U?$pair@$$CBW4_D3DRENDERSTATETYPE@@U?$HResultPair@K@nt@aw@@@std@@@6@$0A@@std@@@std@@QAE@XZ 1001d040 f i common_modules.obj
 0001:0001c0c0       ??1?$list@U?$pair@$$CBKV?$unordered_map@W4_D3DSAMPLERSTATETYPE@@U?$HResultPair@K@nt@aw@@U?$hash@W4_D3DSAMPLERSTATETYPE@@@std@@U?$equal_to@W4_D3DSAMPLERSTATETYPE@@@6@V?$allocator@U?$pair@$$CBW4_D3DSAMPLERSTATETYPE@@U?$HResultPair@K@nt@aw@@@std@@@6@@std@@@std@@V?$allocator@U?$pair@$$CBKV?$unordered_map@W4_D3DSAMPLERSTATETYPE@@U?$HResultPair@K@nt@aw@@U?$hash@W4_D3DSAMPLERSTATETYPE@@@std@@U?$equal_to@W4_D3DSAMPLERSTATETYPE@@@6@V?$allocator@U?$pair@$$CBW4_D3DSAMPLERSTATETYPE@@U?$HResultPair@K@nt@aw@@@std@@@6@@std@@@std@@@2@@std@@QAE@XZ 1001d0c0 f i common_modules.obj
 0001:0001c170       ??1?$list@U?$pair@$$CBKV?$unordered_map@W4_D3DTEXTURESTAGESTATETYPE@@U?$HResultPair@K@nt@aw@@U?$hash@W4_D3DTEXTURESTAGESTATETYPE@@@std@@U?$equal_to@W4_D3DTEXTURESTAGESTATETYPE@@@6@V?$allocator@U?$pair@$$CBW4_D3DTEXTURESTAGESTATETYPE@@U?$HResultPair@K@nt@aw@@@std@@@6@@std@@@std@@V?$allocator@U?$pair@$$CBKV?$unordered_map@W4_D3DTEXTURESTAGESTATETYPE@@U?$HResultPair@K@nt@aw@@U?$hash@W4_D3DTEXTURESTAGESTATETYPE@@@std@@U?$equal_to@W4_D3DTEXTURESTAGESTATETYPE@@@6@V?$allocator@U?$pair@$$CBW4_D3DTEXTURESTAGESTATETYPE@@U?$HResultPair@K@nt@aw@@@std@@@6@@std@@@std@@@2@@std@@QAE@XZ 1001d170 f i common_modules.obj
 0001:0001c220       ??1D3D9RestorableState@gfx@aw@@QAE@XZ 1001d220 f i common_modules.obj
 0001:0001c2e0       ??_E?$ModuleBaseImpl@VInputBase@hk@aw@@V?$TypedObject@VInputBase@hk@aw@@VModuleBase@3@@3@@aw@@UAEPAXI@Z 1001d2e0 f i common_modules.obj
 0001:0001c2e0       ??_G?$ModuleBaseImpl@VInputBase@hk@aw@@V?$TypedObject@VInputBase@hk@aw@@VModuleBase@3@@3@@aw@@UAEPAXI@Z 1001d2e0 f i common_modules.obj
 0001:0001c310       ??_E?$ModuleBaseImpl@VRenderSystem@gfx@aw@@V?$TypedObject@VRenderSystem@gfx@aw@@VModuleBase@3@@3@@aw@@UAEPAXI@Z 1001d310 f i common_modules.obj
 0001:0001c310       ??_G?$ModuleBaseImpl@VRenderSystem@gfx@aw@@V?$TypedObject@VRenderSystem@gfx@aw@@VModuleBase@3@@3@@aw@@UAEPAXI@Z 1001d310 f i common_modules.obj
 0001:0001c340       ??_ED3D9Resources@gfx@aw@@UAEPAXI@Z 1001d340 f i common_modules.obj
 0001:0001c340       ??_GD3D9Resources@gfx@aw@@UAEPAXI@Z 1001d340 f i common_modules.obj
 0001:0001c360       ??_ED3D9Thread@gfx@aw@@UAEPAXI@Z 1001d360 f i common_modules.obj
 0001:0001c360       ??_GD3D9Thread@gfx@aw@@UAEPAXI@Z 1001d360 f i common_modules.obj
 0001:0001c3c0       ??_EGameInput@mod@csgo@aw@@UAEPAXI@Z 1001d3c0 f i common_modules.obj
 0001:0001c3c0       ??_GGameInput@mod@csgo@aw@@UAEPAXI@Z 1001d3c0 f i common_modules.obj
 0001:0001c3f0       ??_EInputBase@hk@aw@@UAEPAXI@Z 1001d3f0 f i common_modules.obj
 0001:0001c3f0       ??_GInputBase@hk@aw@@UAEPAXI@Z 1001d3f0 f i common_modules.obj
 0001:0001c420       ??_ERenderSystem@gfx@aw@@UAEPAXI@Z 1001d420 f i common_modules.obj
 0001:0001c420       ??_GRenderSystem@gfx@aw@@UAEPAXI@Z 1001d420 f i common_modules.obj
 0001:0001c450       ??_EWin32Input@hk@aw@@UAEPAXI@Z 1001d450 f i common_modules.obj
 0001:0001c450       ??_GWin32Input@hk@aw@@UAEPAXI@Z 1001d450 f i common_modules.obj
 0001:0001c480       ?CreateModule@?$ModuleWithFactory@VInputBase@hk@aw@@@aw@@SAPAVInputBase@hk@2@XZ 1001d480 f   common_modules.obj
 0001:0001c4e0       ?CreateModule@?$ModuleWithFactory@VRenderResources@gfx@aw@@@aw@@SAPAVRenderResources@gfx@2@XZ 1001d4e0 f   common_modules.obj
 0001:0001c520       ?CreateModule@?$ModuleWithFactory@VRenderThread@gfx@aw@@@aw@@SAPAVRenderThread@gfx@2@XZ 1001d520 f   common_modules.obj
 0001:0001c5a0       ?GetId@?$TypedObject@VInputBase@hk@aw@@VModuleBase@3@@aw@@UAEIXZ 1001d5a0 f i common_modules.obj
 0001:0001c5b0       ?GetId@?$TypedObject@VRenderResources@gfx@aw@@VModuleBase@3@@aw@@UAEIXZ 1001d5b0 f i common_modules.obj
 0001:0001c5c0       ?GetId@?$TypedObject@VRenderSystem@gfx@aw@@VModuleBase@3@@aw@@UAEIXZ 1001d5c0 f i common_modules.obj
 0001:0001c5d0       ?GetId@?$TypedObject@VRenderThread@gfx@aw@@VModuleBase@3@@aw@@UAEIXZ 1001d5d0 f i common_modules.obj
 0001:0001c5e0       ??_E?$ModuleBaseImpl@VCommonRender@mod@csgo@aw@@V?$TypedObject@VCommonRender@mod@csgo@aw@@VModuleBase@4@@4@@aw@@UAEPAXI@Z 1001d5e0 f i common_render.obj
 0001:0001c5e0       ??_G?$ModuleBaseImpl@VCommonRender@mod@csgo@aw@@V?$TypedObject@VCommonRender@mod@csgo@aw@@VModuleBase@4@@4@@aw@@UAEPAXI@Z 1001d5e0 f i common_render.obj
 0001:0001c610       ??_ECommonRender@impl@mod@csgo@aw@@UAEPAXI@Z 1001d610 f i common_render.obj
 0001:0001c610       ??_GCommonRender@impl@mod@csgo@aw@@UAEPAXI@Z 1001d610 f i common_render.obj
 0001:0001c640       ?CreateModule@?$ModuleWithFactory@VCommonRender@mod@csgo@aw@@@aw@@SAPAVCommonRender@mod@csgo@2@XZ 1001d640 f   common_render.obj
 0001:0001c720       ?GetId@?$TypedObject@VCommonRender@mod@csgo@aw@@VModuleBase@4@@aw@@UAEIXZ 1001d720 f i common_render.obj
 0001:0001c730       ?GetPresentTime@CommonRender@impl@mod@csgo@aw@@UAEMXZ 1001d730 f   common_render.obj
 0001:0001c740       ?GetRenderTime@CommonRender@impl@mod@csgo@aw@@UAEMXZ 1001d740 f   common_render.obj
 0001:0001c750       ??_E?$ModuleBaseImpl@VCommonUI@mod@csgo@aw@@V?$TypedObject@VCommonUI@mod@csgo@aw@@VModuleBase@4@@4@@aw@@UAEPAXI@Z 1001d750 f i common_ui.obj
 0001:0001c750       ??_G?$ModuleBaseImpl@VCommonUI@mod@csgo@aw@@V?$TypedObject@VCommonUI@mod@csgo@aw@@VModuleBase@4@@4@@aw@@UAEPAXI@Z 1001d750 f i common_ui.obj
 0001:0001c780       ??_ECommonUI@impl@mod@csgo@aw@@UAEPAXI@Z 1001d780 f i common_ui.obj
 0001:0001c780       ??_GCommonUI@impl@mod@csgo@aw@@UAEPAXI@Z 1001d780 f i common_ui.obj
 0001:0001c7b0       ?CreateModule@?$ModuleWithFactory@VCommonUI@mod@csgo@aw@@@aw@@SAPAVCommonUI@mod@csgo@2@XZ 1001d7b0 f   common_ui.obj
 0001:0001c8f0       ?GetId@?$TypedObject@VCommonUI@mod@csgo@aw@@VModuleBase@4@@aw@@UAEIXZ 1001d8f0 f i common_ui.obj
 0001:0001c900       ?OnFrame@CommonUI@impl@mod@csgo@aw@@IAEXAAURenderFrame@gfx@5@@Z 1001d900 f   common_ui.obj
 0001:0001cb30       ?OnGameEvent@CommonUI@impl@mod@csgo@aw@@IAEXAAUGameEvent@hk@45@@Z 1001db30 f   common_ui.obj
 0001:0001cc10       ??$CreateModule@VResources@ui@aw@@@ModuleMgr@aw@@QAEPAVResources@ui@1@XZ 1001dc10 f i lagcompensation.obj
 0001:0001cc30       ??$FindModule@VResources@ui@aw@@@ModuleMgr@aw@@QAEPAVResources@ui@1@_N@Z 1001dc30 f i lagcompensation.obj
 0001:0001cd00       ??$FindOrCreateModule@VResources@ui@aw@@@ModuleMgr@aw@@QAEPAVResources@ui@1@XZ 1001dd00 f i lagcompensation.obj
 0001:0001cd20       ?GetNumPoseParameters@ModelHdr@sdk@csgo@aw@@QAEHXZ 1001dd20 f i lagcompensation.obj
 0001:0001cd40       ??$_Reallocate_grow_by@V<lambda_1>@?1??push_back@?$basic_string@DU?$char_traits@D@std@@V?$allocator@D@2@@std@@QAEXD@Z@D@?$basic_string@DU?$char_traits@D@std@@V?$allocator@D@2@@std@@AAEAAV01@IV<lambda_1>@?1??push_back@01@QAEXD@Z@D@Z 1001dd40 f i esp_element_base.obj
 0001:0001ce60       ??0EspAnchorPicker@mod@csgo@aw@@QAE@PAVObjectBase@ui@3@@Z 1001de60 f   esp_element_base.obj
 0001:0001cf50       ??0EspElementBase@mod@csgo@aw@@QAE@PAVEspEntityBase@123@@Z 1001df50 f   esp_element_base.obj
 0001:0001cf80       ??1?$vector@V?$unique_ptr@VColorPicker@ui@aw@@U?$default_delete@VColorPicker@ui@aw@@@std@@@std@@V?$allocator@V?$unique_ptr@VColorPicker@ui@aw@@U?$default_delete@VColorPicker@ui@aw@@@std@@@std@@@2@@std@@QAE@XZ 1001df80 f i esp_element_base.obj
 0001:0001cfe0       ??1EspElementBase@mod@csgo@aw@@UAE@XZ 1001dfe0 f i esp_element_base.obj
 0001:0001d000       ??1ObjectBase@ui@aw@@UAE@XZ 1001e000 f i esp_element_base.obj
 0001:0001d130       ??_EEspAnchorPicker@mod@csgo@aw@@UAEPAXI@Z 1001e130 f i esp_element_base.obj
 0001:0001d130       ??_GEspAnchorPicker@mod@csgo@aw@@UAEPAXI@Z 1001e130 f i esp_element_base.obj
 0001:0001d160       ??_EEspElementBase@mod@csgo@aw@@UAEPAXI@Z 1001e160 f i esp_element_base.obj
 0001:0001d160       ??_GEspElementBase@mod@csgo@aw@@UAEPAXI@Z 1001e160 f i esp_element_base.obj
 0001:0001d1a0       ??_EObjectBase@ui@aw@@UAEPAXI@Z 1001e1a0 f i esp_element_base.obj
 0001:0001d1a0       ??_GObjectBase@ui@aw@@UAEPAXI@Z 1001e1a0 f i esp_element_base.obj
 0001:0001d1d0       ?AllowVarHelper@EspAnchorPicker@mod@csgo@aw@@UAE_NXZ 1001e1d0 f   esp_element_base.obj
 0001:0001d1e0       ?AllowVarHelper@ObjectBase@ui@aw@@UAE_NXZ 1001e1e0 f i esp_element_base.obj
 0001:0001d1f0       ?DrawWeapon@EspElementBase@mod@csgo@aw@@IAEXAAVEspBuilder@234@HW4EspPosition@cheat@4@_NUColor@gfx@4@2@Z 1001e1f0 f   esp_element_base.obj
 0001:0001d390       ?GetAnchor@EspElementBase@mod@csgo@aw@@QAE?AW4EspPosition@cheat@4@XZ 1001e390 f   esp_element_base.obj
 0001:0001d3b0       ?GetAnchorPicker@EspElementBase@mod@csgo@aw@@QAEPAVEspAnchorPicker@234@XZ 1001e3b0 f   esp_element_base.obj
 0001:0001d3c0       ?GetColor@EspElementBase@mod@csgo@aw@@QAE?AUColor@gfx@4@XZ 1001e3c0 f   esp_element_base.obj
 0001:0001d3e0       ?GetType@?$Object@VEspAnchorPicker@mod@csgo@aw@@@ui@aw@@UAEIXZ 1001e3e0 f i esp_element_base.obj
 0001:0001d3f0       ?GetType@ObjectBase@ui@aw@@UAEIXZ 1001e3f0 f i esp_element_base.obj
 0001:0001d400       ?Load@EspAnchorPicker@mod@csgo@aw@@UAEXV?$basic_string_view@DU?$char_traits@D@std@@@std@@@Z 1001e400 f   esp_element_base.obj
 0001:0001d450       ?Load@ObjectBase@ui@aw@@UAEXV?$basic_string_view@DU?$char_traits@D@std@@@std@@@Z 1001e450 f i esp_element_base.obj
 0001:0001d460       ?Reset@EspAnchorPicker@mod@csgo@aw@@UAEXXZ 1001e460 f   esp_element_base.obj
 0001:0001d470       ?Reset@ObjectBase@ui@aw@@UAEXXZ 1001e470 f i esp_element_base.obj
 0001:0001d480       ?Save@EspAnchorPicker@mod@csgo@aw@@UAE?AV?$basic_string@DU?$char_traits@D@std@@V?$allocator@D@2@@std@@XZ 1001e480 f   esp_element_base.obj
 0001:0001d4d0       ?Save@ObjectBase@ui@aw@@UAE?AV?$basic_string@DU?$char_traits@D@std@@V?$allocator@D@2@@std@@XZ 1001e4d0 f i esp_element_base.obj
 0001:0001d4f0       ?SetDefault@ObjectBase@ui@aw@@UAEXXZ 1001e4f0 f i esp_element_base.obj
 0001:0001d500       ?Update@EspAnchorPicker@mod@csgo@aw@@UAEXAAVObjectUpdate@ui@4@@Z 1001e500 f   esp_element_base.obj
 0001:0001d510       ??$_Resize_reallocate@U_Value_init_tag@std@@@?$vector@V?$unique_ptr@VColorPicker@ui@aw@@U?$default_delete@VColorPicker@ui@aw@@@std@@@std@@V?$allocator@V?$unique_ptr@VColorPicker@ui@aw@@U?$default_delete@VColorPicker@ui@aw@@@std@@@std@@@2@@std@@AAEXIABU_Value_init_tag@1@@Z 1001e510 f i esp_element_ammo.obj
 0001:0001d650       ??0EspElementAmmo@mod@csgo@aw@@QAE@PAVEspEntityBase@123@@Z 1001e650 f   esp_element_ammo.obj
 0001:0001d920       ??_EEspElementAmmo@mod@csgo@aw@@UAEPAXI@Z 1001e920 f i esp_element_ammo.obj
 0001:0001d920       ??_GEspElementAmmo@mod@csgo@aw@@UAEPAXI@Z 1001e920 f i esp_element_ammo.obj
 0001:0001d950       ?IsEnabled@EspElementAmmo@mod@csgo@aw@@UAE_NXZ 1001e950 f   esp_element_ammo.obj
 0001:0001d960       ?Render@EspElementAmmo@mod@csgo@aw@@UAEXAAVEspBuilder@234@@Z 1001e960 f   esp_element_ammo.obj
 0001:0001db80       ?_Xlength@?$vector@V?$unique_ptr@VColorPicker@ui@aw@@U?$default_delete@VColorPicker@ui@aw@@@std@@@std@@V?$allocator@V?$unique_ptr@VColorPicker@ui@aw@@U?$default_delete@VColorPicker@ui@aw@@@std@@@std@@@2@@std@@CAXXZ 1001eb80 f i esp_element_ammo.obj
 0001:0001db90       ??0EspElementArmor@mod@csgo@aw@@QAE@PAVEspEntityBase@123@@Z 1001eb90 f   esp_element_armor.obj
 0001:0001ddc0       ??_EEspElementArmor@mod@csgo@aw@@UAEPAXI@Z 1001edc0 f i esp_element_armor.obj
 0001:0001ddc0       ??_GEspElementArmor@mod@csgo@aw@@UAEPAXI@Z 1001edc0 f i esp_element_armor.obj
 0001:0001ddf0       ?IsEnabled@EspElementArmor@mod@csgo@aw@@UAE_NXZ 1001edf0 f   esp_element_armor.obj
 0001:0001de00       ?Render@EspElementArmor@mod@csgo@aw@@UAEXAAVEspBuilder@234@@Z 1001ee00 f   esp_element_armor.obj
 0001:0001dec0       ??0EspElementBarrel@mod@csgo@aw@@QAE@PAVEspEntityBase@123@@Z 1001eec0 f   esp_element_barrel.obj
 0001:0001e0b0       ??_EEspElementBarrel@mod@csgo@aw@@UAEPAXI@Z 1001f0b0 f i esp_element_barrel.obj
 0001:0001e0b0       ??_GEspElementBarrel@mod@csgo@aw@@UAEPAXI@Z 1001f0b0 f i esp_element_barrel.obj
 0001:0001e0e0       ?IsEnabled@EspElementBarrel@mod@csgo@aw@@UAE_NXZ 1001f0e0 f   esp_element_barrel.obj
 0001:0001e0f0       ?Render@EspElementBarrel@mod@csgo@aw@@UAEXAAVEspBuilder@234@@Z 1001f0f0 f   esp_element_barrel.obj
 0001:0001e490       ??$_Destroy_range@V?$allocator@V?$basic_string@DU?$char_traits@D@std@@V?$allocator@D@2@@std@@@std@@@std@@YAXPAV?$basic_string@DU?$char_traits@D@std@@V?$allocator@D@2@@0@QAV10@AAV?$allocator@V?$basic_string@DU?$char_traits@D@std@@V?$allocator@D@2@@std@@@0@@Z 1001f490 f i esp_element_box.obj
 0001:0001e4e0       ??0?$basic_string@DU?$char_traits@D@std@@V?$allocator@D@2@@std@@QAE@ABV01@@Z 1001f4e0 f i esp_element_box.obj
 0001:0001e590       ??0EspElementBox@mod@csgo@aw@@QAE@PAVEspEntityBase@123@@Z 1001f590 f   esp_element_box.obj
 0001:0001e9d0       ??_EEspElementBox@mod@csgo@aw@@UAEPAXI@Z 1001f9d0 f i esp_element_box.obj
 0001:0001e9d0       ??_GEspElementBox@mod@csgo@aw@@UAEPAXI@Z 1001f9d0 f i esp_element_box.obj
 0001:0001ea10       ?IsEnabled@EspElementBox@mod@csgo@aw@@UAE_NXZ 1001fa10 f   esp_element_box.obj
 0001:0001ea20       ?IsPrecision@EspElementBox@mod@csgo@aw@@QAE_NXZ 1001fa20 f   esp_element_box.obj
 0001:0001ea30       ?Render@EspElementBox@mod@csgo@aw@@UAEXAAVEspBuilder@234@@Z 1001fa30 f   esp_element_box.obj
 0001:0001eaa0       ?SetColor@EspElementBox@mod@csgo@aw@@QAEXUColor@gfx@4@@Z 1001faa0 f   esp_element_box.obj
 0001:0001eac0       ?_Buy_raw@?$vector@V?$basic_string@DU?$char_traits@D@std@@V?$allocator@D@2@@std@@V?$allocator@V?$basic_string@DU?$char_traits@D@std@@V?$allocator@D@2@@std@@@2@@std@@AAEXI@Z 1001fac0 f i esp_element_box.obj
 0001:0001eb40       ?_Xlength@?$vector@V?$basic_string@DU?$char_traits@D@std@@V?$allocator@D@2@@std@@V?$allocator@V?$basic_string@DU?$char_traits@D@std@@V?$allocator@D@2@@std@@@2@@std@@CAXXZ 1001fb40 f i esp_element_box.obj
 0001:0001eb50       ??$FormatString@AAM@aw@@YA?AV?$basic_string@DU?$char_traits@D@std@@V?$allocator@D@2@@std@@V?$basic_format_string@DAAM@v9@fmt@@AAM@Z 1001fb50 f i esp_element_c4timer.obj
 0001:0001ebb0       ??0EspElementC4Timer@mod@csgo@aw@@QAE@PAVEspEntityBase@123@@Z 1001fbb0 f   esp_element_c4timer.obj
 0001:0001ecb0       ??_EEspElementC4Timer@mod@csgo@aw@@UAEPAXI@Z 1001fcb0 f i esp_element_c4timer.obj
 0001:0001ecb0       ??_GEspElementC4Timer@mod@csgo@aw@@UAEPAXI@Z 1001fcb0 f i esp_element_c4timer.obj
 0001:0001ece0       ?DrawC4Timer@EspElementC4Timer@mod@csgo@aw@@IAEXAAVEspBuilder@234@PAVPlantedC4@sdk@34@MM@Z 1001fce0 f   esp_element_c4timer.obj
 0001:0001f0c0       ?DrawTimerCircle@EspElementC4Timer@mod@csgo@aw@@IAEXPAVRenderContext@gfx@4@MMMMMUColor@64@@Z 100200c0 f   esp_element_c4timer.obj
 0001:0001f390       ?IsEnabled@EspElementC4Timer@mod@csgo@aw@@UAE_NXZ 10020390 f   esp_element_c4timer.obj
 0001:0001f3a0       ?Render@EspElementC4Timer@mod@csgo@aw@@UAEXAAVEspBuilder@234@@Z 100203a0 f   esp_element_c4timer.obj
 0001:0001f420       ??0EspElementDangerZone@mod@csgo@aw@@QAE@PAVEspEntityBase@123@@Z 10020420 f   esp_element_dangerzone.obj
 0001:0001f590       ??_EEspElementDangerZone@mod@csgo@aw@@UAEPAXI@Z 10020590 f i esp_element_dangerzone.obj
 0001:0001f590       ??_GEspElementDangerZone@mod@csgo@aw@@UAEPAXI@Z 10020590 f i esp_element_dangerzone.obj
 0001:0001f5d0       ?IsDzItems@EspElementDangerZone@mod@csgo@aw@@QAE_NXZ 100205d0 f   esp_element_dangerzone.obj
 0001:0001f5e0       ?IsDzTurret@EspElementDangerZone@mod@csgo@aw@@QAE_NXZ 100205e0 f   esp_element_dangerzone.obj
 0001:0001f5f0       ?IsEnabled@EspElementDangerZone@mod@csgo@aw@@UAE_NXZ 100205f0 f   esp_element_dangerzone.obj
 0001:0001f610       ?Render@EspElementDangerZone@mod@csgo@aw@@UAEXAAVEspBuilder@234@@Z 10020610 f   esp_element_dangerzone.obj
 0001:0001f620       ??0EspElementDefuser@mod@csgo@aw@@QAE@PAVEspEntityBase@123@@Z 10020620 f   esp_element_defuser.obj
 0001:0001f720       ??_EEspElementDefuser@mod@csgo@aw@@UAEPAXI@Z 10020720 f i esp_element_defuser.obj
 0001:0001f720       ??_GEspElementDefuser@mod@csgo@aw@@UAEPAXI@Z 10020720 f i esp_element_defuser.obj
 0001:0001f750       ?IsEnabled@EspElementDefuser@mod@csgo@aw@@UAE_NXZ 10020750 f   esp_element_defuser.obj
 0001:0001f760       ?Render@EspElementDefuser@mod@csgo@aw@@UAEXAAVEspBuilder@234@@Z 10020760 f   esp_element_defuser.obj
 0001:0001f770       ??0EspElementDormant@mod@csgo@aw@@QAE@PAVEspEntityBase@123@@Z 10020770 f   esp_element_dormant.obj
 0001:0001f870       ??_EEspElementDormant@mod@csgo@aw@@UAEPAXI@Z 10020870 f i esp_element_dormant.obj
 0001:0001f870       ??_GEspElementDormant@mod@csgo@aw@@UAEPAXI@Z 10020870 f i esp_element_dormant.obj
 0001:0001f8a0       ?IsEnabled@EspElementDormant@mod@csgo@aw@@UAE_NXZ 100208a0 f   esp_element_dormant.obj
 0001:0001f8b0       ?Render@EspElementDormant@mod@csgo@aw@@UAEXAAVEspBuilder@234@@Z 100208b0 f   esp_element_dormant.obj
 0001:0001f8c0       ??0EspElementFlags@mod@csgo@aw@@QAE@PAVEspEntityBase@123@@Z 100208c0 f   esp_element_flags.obj
 0001:00020260       ??1EspElementFlags@mod@csgo@aw@@UAE@XZ 10021260 f i esp_element_flags.obj
 0001:000203a0       ??_EEspElementFlags@mod@csgo@aw@@UAEPAXI@Z 100213a0 f i esp_element_flags.obj
 0001:000203a0       ??_GEspElementFlags@mod@csgo@aw@@UAEPAXI@Z 100213a0 f i esp_element_flags.obj
 0001:000203d0       ?IsEnabled@EspElementFlags@mod@csgo@aw@@UAE_NXZ 100213d0 f   esp_element_flags.obj
 0001:000203e0       ?Render@EspElementFlags@mod@csgo@aw@@UAEXAAVEspBuilder@234@@Z 100213e0 f   esp_element_flags.obj
 0001:000211b0       ??0EspElementHealth@mod@csgo@aw@@QAE@PAVEspEntityBase@123@@Z 100221b0 f   esp_element_health.obj
 0001:00021520       ??_EEspElementHealth@mod@csgo@aw@@UAEPAXI@Z 10022520 f i esp_element_health.obj
 0001:00021520       ??_GEspElementHealth@mod@csgo@aw@@UAEPAXI@Z 10022520 f i esp_element_health.obj
 0001:00021590       ?IsEnabled@EspElementHealth@mod@csgo@aw@@UAE_NXZ 10022590 f   esp_element_health.obj
 0001:000215b0       ?Render@EspElementHealth@mod@csgo@aw@@UAEXAAVEspBuilder@234@@Z 100225b0 f   esp_element_health.obj
 0001:00021780       ??0EspElementMoney@mod@csgo@aw@@QAE@PAVEspEntityBase@123@@Z 10022780 f   esp_element_money.obj
 0001:000219b0       ??_EEspElementMoney@mod@csgo@aw@@UAEPAXI@Z 100229b0 f i esp_element_money.obj
 0001:000219b0       ??_GEspElementMoney@mod@csgo@aw@@UAEPAXI@Z 100229b0 f i esp_element_money.obj
 0001:000219e0       ?IsEnabled@EspElementMoney@mod@csgo@aw@@UAE_NXZ 100229e0 f   esp_element_money.obj
 0001:000219f0       ?Render@EspElementMoney@mod@csgo@aw@@UAEXAAVEspBuilder@234@@Z 100229f0 f   esp_element_money.obj
 0001:00021b90       ??$_Erase_tree@V?$allocator@U?$_Tree_node@U?$pair@$$CBHM@std@@PAX@std@@@std@@@?$_Tree_val@U?$_Tree_simple_types@U?$pair@$$CBHM@std@@@std@@@std@@QAEXAAV?$allocator@U?$_Tree_node@U?$pair@$$CBHM@std@@PAX@std@@@1@PAU?$_Tree_node@U?$pair@$$CBHM@std@@PAX@1@@Z 10022b90 f i esp_element_nades.obj
 0001:00021bd0       ??$_Find_lower_bound@H@?$_Tree@V?$_Tmap_traits@HMU?$less@H@std@@V?$allocator@U?$pair@$$CBHM@std@@@2@$0A@@std@@@std@@IBE?AU?$_Tree_find_result@PAU?$_Tree_node@U?$pair@$$CBHM@std@@PAX@std@@@1@ABH@Z 10022bd0 f i esp_element_nades.obj
 0001:00021c20       ??0EspElementNades@mod@csgo@aw@@QAE@PAVEspEntityBase@123@@Z 10022c20 f   esp_element_nades.obj
 0001:00021ef0       ??1?$_Tree@V?$_Tmap_traits@HMU?$less@H@std@@V?$allocator@U?$pair@$$CBHM@std@@@2@$0A@@std@@@std@@QAE@XZ 10022ef0 f i esp_element_nades.obj
 0001:00021f30       ??E?$_Tree_unchecked_const_iterator@V?$_Tree_val@U?$_Tree_simple_types@U?$pair@$$CBHM@std@@@std@@@std@@U_Iterator_base0@2@@std@@QAEAAV01@XZ 10022f30 f i esp_element_nades.obj
 0001:00021f90       ??_EEspElementNades@mod@csgo@aw@@UAEPAXI@Z 10022f90 f i esp_element_nades.obj
 0001:00021f90       ??_GEspElementNades@mod@csgo@aw@@UAEPAXI@Z 10022f90 f i esp_element_nades.obj
 0001:00021ff0       ?AddDecoyToTracker@EspElementNades@mod@csgo@aw@@QAEXHM@Z 10022ff0 f   esp_element_nades.obj
 0001:00022080       ?IsEnabled@EspElementNades@mod@csgo@aw@@UAE_NXZ 10023080 f   esp_element_nades.obj
 0001:000220b0       ?Render@EspElementNades@mod@csgo@aw@@UAEXAAVEspBuilder@234@@Z 100230b0 f   esp_element_nades.obj
 0001:000223f0       ?UpdateDecoyTracker@EspElementNades@mod@csgo@aw@@QAEXXZ 100233f0 f   esp_element_nades.obj
 0001:00022480       ?_Extract@?$_Tree_val@U?$_Tree_simple_types@U?$pair@$$CBHM@std@@@std@@@std@@QAEPAU?$_Tree_node@U?$pair@$$CBHM@std@@PAX@2@V?$_Tree_unchecked_const_iterator@V?$_Tree_val@U?$_Tree_simple_types@U?$pair@$$CBHM@std@@@std@@@std@@U_Iterator_base0@2@@2@@Z 10023480 f i esp_element_nades.obj
 0001:00022780       ?_Insert_node@?$_Tree_val@U?$_Tree_simple_types@U?$pair@$$CBHM@std@@@std@@@std@@QAEPAU?$_Tree_node@U?$pair@$$CBHM@std@@PAX@2@U?$_Tree_id@PAU?$_Tree_node@U?$pair@$$CBHM@std@@PAX@std@@@2@QAU32@@Z 10023780 f i esp_element_nades.obj
 0001:00022970       ?_Lrotate@?$_Tree_val@U?$_Tree_simple_types@U?$pair@$$CBHM@std@@@std@@@std@@QAEXPAU?$_Tree_node@U?$pair@$$CBHM@std@@PAX@2@@Z 10023970 f i esp_element_nades.obj
 0001:000229c0       ?_Min@?$_Tree_val@U?$_Tree_simple_types@U?$pair@$$CBHM@std@@@std@@@std@@SAPAU?$_Tree_node@U?$pair@$$CBHM@std@@PAX@2@PAU32@@Z 100239c0 f i esp_element_nades.obj
 0001:000229e0       ?_Rrotate@?$_Tree_val@U?$_Tree_simple_types@U?$pair@$$CBHM@std@@@std@@@std@@QAEXPAU?$_Tree_node@U?$pair@$$CBHM@std@@PAX@2@@Z 100239e0 f i esp_element_nades.obj
 0001:00022a40       ??0EspElementNamePlayer@mod@csgo@aw@@QAE@PAVEspEntityBase@123@@Z 10023a40 f   esp_element_name_player.obj
 0001:00022c70       ??_EEspElementNamePlayer@mod@csgo@aw@@UAEPAXI@Z 10023c70 f i esp_element_name_player.obj
 0001:00022c70       ??_GEspElementNamePlayer@mod@csgo@aw@@UAEPAXI@Z 10023c70 f i esp_element_name_player.obj
 0001:00022ca0       ?IsEnabled@EspElementNamePlayer@mod@csgo@aw@@UAE_NXZ 10023ca0 f   esp_element_name_player.obj
 0001:00022cb0       ?Render@EspElementNamePlayer@mod@csgo@aw@@UAEXAAVEspBuilder@234@@Z 10023cb0 f   esp_element_name_player.obj
 0001:00022e00       ??0EspElementNameWeapon@mod@csgo@aw@@QAE@PAVEspEntityBase@123@@Z 10023e00 f   esp_element_name_weapon.obj
 0001:00023220       ??_EEspElementNameWeapon@mod@csgo@aw@@UAEPAXI@Z 10024220 f i esp_element_name_weapon.obj
 0001:00023220       ??_GEspElementNameWeapon@mod@csgo@aw@@UAEPAXI@Z 10024220 f i esp_element_name_weapon.obj
 0001:00023250       ?IsEnabled@EspElementNameWeapon@mod@csgo@aw@@UAE_NXZ 10024250 f   esp_element_name_weapon.obj
 0001:00023260       ?Render@EspElementNameWeapon@mod@csgo@aw@@UAEXAAVEspBuilder@234@@Z 10024260 f   esp_element_name_weapon.obj
 0001:00023380       ??0EspElementPing@mod@csgo@aw@@QAE@PAVEspEntityBase@123@@Z 10024380 f   esp_element_ping.obj
 0001:000235a0       ??_EEspElementPing@mod@csgo@aw@@UAEPAXI@Z 100245a0 f i esp_element_ping.obj
 0001:000235a0       ??_GEspElementPing@mod@csgo@aw@@UAEPAXI@Z 100245a0 f i esp_element_ping.obj
 0001:000235d0       ?IsEnabled@EspElementPing@mod@csgo@aw@@UAE_NXZ 100245d0 f   esp_element_ping.obj
 0001:000235e0       ?Render@EspElementPing@mod@csgo@aw@@UAEXAAVEspBuilder@234@@Z 100245e0 f   esp_element_ping.obj
 0001:00023790       ??0EspElementSkeleton@mod@csgo@aw@@QAE@PAVEspEntityBase@123@@Z 10024790 f   esp_element_skeleton.obj
 0001:00023980       ??_EEspElementSkeleton@mod@csgo@aw@@UAEPAXI@Z 10024980 f i esp_element_skeleton.obj
 0001:00023980       ??_GEspElementSkeleton@mod@csgo@aw@@UAEPAXI@Z 10024980 f i esp_element_skeleton.obj
 0001:000239b0       ?IsEnabled@EspElementSkeleton@mod@csgo@aw@@UAE_NXZ 100249b0 f   esp_element_skeleton.obj
 0001:000239c0       ?Render@EspElementSkeleton@mod@csgo@aw@@UAEXAAVEspBuilder@234@@Z 100249c0 f   esp_element_skeleton.obj
 0001:00023c10       ??0EspElementWeapon@mod@csgo@aw@@QAE@PAVEspEntityBase@123@@Z 10024c10 f   esp_element_weapon.obj
 0001:000242c0       ??_EEspElementWeapon@mod@csgo@aw@@UAEPAXI@Z 100252c0 f i esp_element_weapon.obj
 0001:000242c0       ??_GEspElementWeapon@mod@csgo@aw@@UAEPAXI@Z 100252c0 f i esp_element_weapon.obj
 0001:00024330       ?IsEnabled@EspElementWeapon@mod@csgo@aw@@UAE_NXZ 10025330 f   esp_element_weapon.obj
 0001:00024340       ?Render@EspElementWeapon@mod@csgo@aw@@UAEXAAVEspBuilder@234@@Z 10025340 f   esp_element_weapon.obj
 0001:000245b0       ??_E?$ModuleBaseImpl@VClientServerNetInfo@mod@csgo@aw@@V?$TypedObject@VClientServerNetInfo@mod@csgo@aw@@VModuleBase@4@@4@@aw@@UAEPAXI@Z 100255b0 f i clientservernetinfo.obj
 0001:000245b0       ??_G?$ModuleBaseImpl@VClientServerNetInfo@mod@csgo@aw@@V?$TypedObject@VClientServerNetInfo@mod@csgo@aw@@VModuleBase@4@@4@@aw@@UAEPAXI@Z 100255b0 f i clientservernetinfo.obj
 0001:000245e0       ??_EClientServerNetInfo@impl@mod@csgo@aw@@UAEPAXI@Z 100255e0 f i clientservernetinfo.obj
 0001:000245e0       ??_GClientServerNetInfo@impl@mod@csgo@aw@@UAEPAXI@Z 100255e0 f i clientservernetinfo.obj
 0001:00024610       ?CreateModule@?$ModuleWithFactory@VClientServerNetInfo@mod@csgo@aw@@@aw@@SAPAVClientServerNetInfo@mod@csgo@2@XZ 10025610 f   clientservernetinfo.obj
 0001:00024730       ?GetId@?$TypedObject@VClientServerNetInfo@mod@csgo@aw@@VModuleBase@4@@aw@@UAEIXZ 10025730 f i clientservernetinfo.obj
 0001:00024740       ?GetIncomingLatency@ClientServerNetInfo@impl@mod@csgo@aw@@UAEMXZ 10025740 f i clientservernetinfo.obj
 0001:00024750       ?GetLatencyInfo@ClientServerNetInfo@impl@mod@csgo@aw@@UAEAAULatencyInfo@345@W4LatencyType@345@@Z 10025750 f i clientservernetinfo.obj
 0001:00024770       ?GetLatencyJitter@ClientServerNetInfo@impl@mod@csgo@aw@@UAEMW4LatencyType@345@@Z 10025770 f i clientservernetinfo.obj
 0001:00024780       ?GetLatencyTicks@ClientServerNetInfo@impl@mod@csgo@aw@@UAEHW4LatencyType@345@@Z 10025780 f i clientservernetinfo.obj
 0001:00024790       ?GetLatencyTime@ClientServerNetInfo@impl@mod@csgo@aw@@UAEMW4LatencyType@345@@Z 10025790 f i clientservernetinfo.obj
 0001:000247a0       ?GetOutgoingLatency@ClientServerNetInfo@impl@mod@csgo@aw@@UAEMXZ 100257a0 f i clientservernetinfo.obj
 0001:000247b0       ??_E?$ModuleBaseImpl@VFakeLag@mod@csgo@aw@@V?$TypedObject@VFakeLag@mod@csgo@aw@@VModuleBase@4@@4@@aw@@UAEPAXI@Z 100257b0 f i fakelag.obj
 0001:000247b0       ??_G?$ModuleBaseImpl@VFakeLag@mod@csgo@aw@@V?$TypedObject@VFakeLag@mod@csgo@aw@@VModuleBase@4@@4@@aw@@UAEPAXI@Z 100257b0 f i fakelag.obj
 0001:000247e0       ??_EFakeLag@impl@mod@csgo@aw@@UAEPAXI@Z 100257e0 f i fakelag.obj
 0001:000247e0       ??_GFakeLag@impl@mod@csgo@aw@@UAEPAXI@Z 100257e0 f i fakelag.obj
 0001:00024810       ?CreateModule@?$ModuleWithFactory@VFakeLag@mod@csgo@aw@@@aw@@SAPAVFakeLag@mod@csgo@2@XZ 10025810 f   fakelag.obj
 0001:00024970       ?GetId@?$TypedObject@VFakeLag@mod@csgo@aw@@VModuleBase@4@@aw@@UAEIXZ 10025970 f i fakelag.obj
 0001:00024980       ?IsActive@FakeLag@impl@mod@csgo@aw@@UAE_NXZ 10025980 f   fakelag.obj
 0001:00024ab0       ?OnEnemyAttackRequest@FakeLag@impl@mod@csgo@aw@@IAEXAAUEnemyAttackCheckRequest@345@@Z 10025ab0 f   fakelag.obj
 0001:00024ae0       ?OnFinishMove@FakeLag@impl@mod@csgo@aw@@IAEXAAULocalFinishMove@345@@Z 10025ae0 f   fakelag.obj
 0001:00024b10       ?OnPostMove@FakeLag@impl@mod@csgo@aw@@IAEXAAULocalPostMove@345@@Z 10025b10 f   fakelag.obj
 0001:00024bc0       ?OnServerStateRequest@FakeLag@impl@mod@csgo@aw@@IAEXAAUServerStateEarlyRequest@345@@Z 10025bc0 f   fakelag.obj
 0001:00024e30       ??_E?$ModuleBaseImpl@VFakeLatency@mod@csgo@aw@@V?$TypedObject@VFakeLatency@mod@csgo@aw@@VModuleBase@4@@4@@aw@@UAEPAXI@Z 10025e30 f i fakelatency.obj
 0001:00024e30       ??_G?$ModuleBaseImpl@VFakeLatency@mod@csgo@aw@@V?$TypedObject@VFakeLatency@mod@csgo@aw@@VModuleBase@4@@4@@aw@@UAEPAXI@Z 10025e30 f i fakelatency.obj
 0001:00024e60       ??_EFakeLatency@impl@mod@csgo@aw@@UAEPAXI@Z 10025e60 f i fakelatency.obj
 0001:00024e60       ??_GFakeLatency@impl@mod@csgo@aw@@UAEPAXI@Z 10025e60 f i fakelatency.obj
 0001:00024e90       ?CreateModule@?$ModuleWithFactory@VFakeLatency@mod@csgo@aw@@@aw@@SAPAVFakeLatency@mod@csgo@2@XZ 10025e90 f   fakelatency.obj
 0001:00024fa0       ?GetId@?$TypedObject@VFakeLatency@mod@csgo@aw@@VModuleBase@4@@aw@@UAEIXZ 10025fa0 f i fakelatency.obj
 0001:00024fb0       ?OnNetChannelCreated@FakeLatency@impl@mod@csgo@aw@@IAEXAAUNetChannelCreated@hk@45@@Z 10025fb0 f   fakelatency.obj
 0001:00024fd0       ?OnNetUpdateEnd@FakeLatency@impl@mod@csgo@aw@@IAEXAAUSuppressLists_NetUpdateEnd@hk@45@@Z 10025fd0 f   fakelatency.obj
 0001:00025040       ?OnSendDatagram@FakeLatency@impl@mod@csgo@aw@@IAEXAAUSendDatagram@hk@45@@Z 10026040 f   fakelatency.obj
 0001:00025170       ?IsFiring@LocalPostMove@mod@csgo@aw@@QAE_NXZ 10026170 f   localmove.obj
 0001:00025200       ?IsInputMoving@LocalMoveBase@mod@csgo@aw@@QAE_NXZ 10026200 f   localmove.obj
 0001:00025210       ??_E?$ModuleBaseImpl@VLocalMovement@mod@csgo@aw@@V?$TypedObject@VLocalMovement@mod@csgo@aw@@VModuleBase@4@@4@@aw@@UAEPAXI@Z 10026210 f i localmovement.obj
 0001:00025210       ??_G?$ModuleBaseImpl@VLocalMovement@mod@csgo@aw@@V?$TypedObject@VLocalMovement@mod@csgo@aw@@VModuleBase@4@@4@@aw@@UAEPAXI@Z 10026210 f i localmovement.obj
 0001:00025240       ??_ELocalMovement@impl@mod@csgo@aw@@UAEPAXI@Z 10026240 f i localmovement.obj
 0001:00025240       ??_GLocalMovement@impl@mod@csgo@aw@@UAEPAXI@Z 10026240 f i localmovement.obj
 0001:00025270       ?AutoJumpBug@LocalMovement@impl@mod@csgo@aw@@IAEXAAULocalPreMove@345@@Z 10026270 f   localmovement.obj
 0001:000254b0       ?AutoStopNextTick@LocalMovement@impl@mod@csgo@aw@@UAEX_N0@Z 100264b0 f i localmovement.obj
 0001:000254d0       ?CreateModule@?$ModuleWithFactory@VLocalMovement@mod@csgo@aw@@@aw@@SAPAVLocalMovement@mod@csgo@2@XZ 100264d0 f   localmovement.obj
 0001:00025670       ?GetId@?$TypedObject@VLocalMovement@mod@csgo@aw@@VModuleBase@4@@aw@@UAEIXZ 10026670 f i localmovement.obj
 0001:00025680       ?GetMoveSpeed@LocalMovement@impl@mod@csgo@aw@@UAEMXZ 10026680 f i localmovement.obj
 0001:00025690       ?GetViewAnglesMoveVectors@LocalMovement@impl@mod@csgo@aw@@IAEXABVEulerAngles@5@AAVVector3@5@1@Z 10026690 f   localmovement.obj
 0001:000257f0       ?IsAntiUntrustedValveDS@CheatSecurity@mod@csgo@aw@@QAE_NXZ 100267f0 f i localmovement.obj
 0001:00025820       ?IsWalking@LocalMovement@impl@mod@csgo@aw@@UAE_NPAVCSPlayer@sdk@45@@Z 10026820 f   localmovement.obj
 0001:00025850       ?OnPostMove@LocalMovement@impl@mod@csgo@aw@@IAEXAAULocalPostMove@345@@Z 10026850 f   localmovement.obj
 0001:000258c0       ?OnPreMove@LocalMovement@impl@mod@csgo@aw@@IAEXAAULocalPreMove@345@@Z 100268c0 f   localmovement.obj
 0001:00025ba0       ?OnPreMoveStart@LocalMovement@impl@mod@csgo@aw@@IAEXAAULocalPreMove@345@@Z 10026ba0 f   localmovement.obj
 0001:00025bb0       ?OnServerStateRequest@LocalMovement@impl@mod@csgo@aw@@IAEXAAUServerStateEarlyRequest@345@@Z 10026bb0 f   localmovement.obj
 0001:00025c40       ?RequestSpeedBurst@LocalMovement@impl@mod@csgo@aw@@UAEXXZ 10026c40 f   localmovement.obj
 0001:00025c50       ?UpdateParameters@LocalMovement@impl@mod@csgo@aw@@IAEXAAULocalPreMove@345@@Z 10026c50 f   localmovement.obj
 0001:00025e10       ?__offset_GetGroundEntity@BaseEntity@sdk@csgo@aw@@QAEHXZ 10026e10 f i localmovement.obj
 0001:00025e40       ?__offset_GetWaterJumpTime@BasePlayer@sdk@csgo@aw@@QAEHXZ 10026e40 f i localmovement.obj
 0001:00025e70       ?__offset_GetWaterType@BaseEntity@sdk@csgo@aw@@QAEHXZ 10026e70 f i localmovement.obj
 0001:00025ea0       ??_E?$ModuleBaseImpl@VLocalPlayer@mod@csgo@aw@@V?$TypedObject@VLocalPlayer@mod@csgo@aw@@VModuleBase@4@@4@@aw@@UAEPAXI@Z 10026ea0 f i localplayer.obj
 0001:00025ea0       ??_G?$ModuleBaseImpl@VLocalPlayer@mod@csgo@aw@@V?$TypedObject@VLocalPlayer@mod@csgo@aw@@VModuleBase@4@@4@@aw@@UAEPAXI@Z 10026ea0 f i localplayer.obj
 0001:00025ed0       ??_ELocalFinishMove@mod@csgo@aw@@UAEPAXI@Z 10026ed0 f i localplayer.obj
 0001:00025ed0       ??_GLocalFinishMove@mod@csgo@aw@@UAEPAXI@Z 10026ed0 f i localplayer.obj
 0001:00025f00       ??_ELocalPlayer@impl@mod@csgo@aw@@UAEPAXI@Z 10026f00 f i localplayer.obj
 0001:00025f00       ??_GLocalPlayer@impl@mod@csgo@aw@@UAEPAXI@Z 10026f00 f i localplayer.obj
 0001:00025f30       ??_ELocalPreMove@mod@csgo@aw@@UAEPAXI@Z 10026f30 f i localplayer.obj
 0001:00025f30       ??_GLocalPreMove@mod@csgo@aw@@UAEPAXI@Z 10026f30 f i localplayer.obj
 0001:00025f60       ?CreateModule@?$ModuleWithFactory@VLocalPlayer@mod@csgo@aw@@@aw@@SAPAVLocalPlayer@mod@csgo@2@XZ 10026f60 f   localplayer.obj
 0001:00025f80       ?GetFrameTime@LocalPlayer@impl@mod@csgo@aw@@UAEMXZ 10026f80 f i localplayer.obj
 0001:00025f90       ?GetId@?$TypedObject@ULocalFinishMove@mod@csgo@aw@@UCallbackVars@4@@aw@@UAEIXZ 10026f90 f i localplayer.obj
 0001:00025fa0       ?GetId@?$TypedObject@ULocalPreMove@mod@csgo@aw@@UCallbackVars@4@@aw@@UAEIXZ 10026fa0 f i localplayer.obj
 0001:00025fb0       ?GetId@?$TypedObject@VLocalPlayer@mod@csgo@aw@@VModuleBase@4@@aw@@UAEIXZ 10026fb0 f i localplayer.obj
 0001:00025fc0       ??_E?$ModuleBaseImpl@VLocalWeapon@mod@csgo@aw@@V?$TypedObject@VLocalWeapon@mod@csgo@aw@@VModuleBase@4@@4@@aw@@UAEPAXI@Z 10026fc0 f i localweapon.obj
 0001:00025fc0       ??_G?$ModuleBaseImpl@VLocalWeapon@mod@csgo@aw@@V?$TypedObject@VLocalWeapon@mod@csgo@aw@@VModuleBase@4@@4@@aw@@UAEPAXI@Z 10026fc0 f i localweapon.obj
 0001:00025ff0       ??_ELocalWeapon@impl@mod@csgo@aw@@UAEPAXI@Z 10026ff0 f i localweapon.obj
 0001:00025ff0       ??_GLocalWeapon@impl@mod@csgo@aw@@UAEPAXI@Z 10026ff0 f i localweapon.obj
 0001:00026020       ?CreateModule@?$ModuleWithFactory@VLocalWeapon@mod@csgo@aw@@@aw@@SAPAVLocalWeapon@mod@csgo@2@XZ 10027020 f   localweapon.obj
 0001:00026040       ?GetId@?$TypedObject@VLocalWeapon@mod@csgo@aw@@VModuleBase@4@@aw@@UAEIXZ 10027040 f i localweapon.obj
 0001:00026050       ?GetViewAnglesLock@LocalWeapon@impl@mod@csgo@aw@@UAEAAVEulerAngles@5@XZ 10027050 f i localweapon.obj
 0001:00026060       ?IsViewAnglesLocked@LocalWeapon@impl@mod@csgo@aw@@UAE_NXZ 10027060 f i localweapon.obj
 0001:00026070       ?OnFinishMove@LocalWeapon@impl@mod@csgo@aw@@IAEXAAULocalFinishMove@345@@Z 10027070 f   localweapon.obj
 0001:000260c0       ?OnPostRunCommand@LocalWeapon@impl@mod@csgo@aw@@IAEXAAURunCommand@hk@45@@Z 100270c0 f   localweapon.obj
 0001:00026160       ?OnPreMove@LocalWeapon@impl@mod@csgo@aw@@IAEXAAULocalPreMove@345@@Z 10027160 f   localweapon.obj
 0001:00026180       ?OnPreRunCommand@LocalWeapon@impl@mod@csgo@aw@@IAEXAAURunCommand@hk@45@@Z 10027180 f   localweapon.obj
 0001:000261c0       ?UpdateWeaponFireVars@LocalWeapon@impl@mod@csgo@aw@@UAEXAAULocalPostMove@345@M_N@Z 100271c0 f   localweapon.obj
 0001:00026390       ??$TransferDataMapFields@$00@PredictionCopy@mod@csgo@aw@@KA_NPAVBaseEntity@sdk@23@PAEPAUdatamapinfo_t@523@@Z 10027390 f i predictioncopy.obj
 0001:000265a0       ??$TransferDataMapFields@$0A@@PredictionCopy@mod@csgo@aw@@KA_NPAVBaseEntity@sdk@23@PAEPAUdatamapinfo_t@523@@Z 100275a0 f i predictioncopy.obj
 0001:000267b0       ??$_Destroy_range@V?$allocator@UPredictionSendPropFields@mod@csgo@aw@@@std@@@std@@YAXPAUPredictionSendPropFields@mod@csgo@aw@@QAU1234@AAV?$allocator@UPredictionSendPropFields@mod@csgo@aw@@@0@@Z 100277b0 f i predictioncopy.obj
 0001:00026810       ??$_Emplace_reallocate@ABUPredictionSendPropEntry@mod@csgo@aw@@@?$vector@UPredictionSendPropEntry@mod@csgo@aw@@V?$allocator@UPredictionSendPropEntry@mod@csgo@aw@@@std@@@std@@AAEPAUPredictionSendPropEntry@mod@csgo@aw@@QAU2345@ABU2345@@Z 10027810 f i predictioncopy.obj
 0001:00026950       ??$_Find_last@I@?$_Hash@V?$_Umap_traits@IUPredictionSendPropMap@mod@csgo@aw@@V?$_Uhash_compare@IU?$hash@I@std@@U?$equal_to@I@2@@std@@V?$allocator@U?$pair@$$CBIUPredictionSendPropMap@mod@csgo@aw@@@std@@@6@$0A@@std@@@std@@IBE?AU?$_Hash_find_last_result@PAU?$_List_node@U?$pair@$$CBIUPredictionSendPropMap@mod@csgo@aw@@@std@@PAX@std@@@1@ABII@Z 10027950 f i predictioncopy.obj
 0001:000269c0       ??$_Resize@U_Value_init_tag@std@@@?$vector@EV?$allocator@E@std@@@std@@AAEXIABU_Value_init_tag@1@@Z 100279c0 f i predictioncopy.obj
 0001:00026af0       ??$_Resize_reallocate@U_Value_init_tag@std@@@?$vector@UPredictionSendPropFields@mod@csgo@aw@@V?$allocator@UPredictionSendPropFields@mod@csgo@aw@@@std@@@std@@AAEXIABU_Value_init_tag@1@@Z 10027af0 f i predictioncopy.obj
 0001:00026c90       ??$_Try_emplace@ABI$$V@?$_Hash@V?$_Umap_traits@IUPredictionSendPropMap@mod@csgo@aw@@V?$_Uhash_compare@IU?$hash@I@std@@U?$equal_to@I@2@@std@@V?$allocator@U?$pair@$$CBIUPredictionSendPropMap@mod@csgo@aw@@@std@@@6@$0A@@std@@@std@@IAE?AU?$pair@PAU?$_List_node@U?$pair@$$CBIUPredictionSendPropMap@mod@csgo@aw@@@std@@PAX@std@@_N@1@ABI@Z 10027c90 f i predictioncopy.obj
 0001:00026e70       ??$_Uninitialized_value_construct_n@V?$allocator@UPredictionSendPropFields@mod@csgo@aw@@@std@@@std@@YAPAUPredictionSendPropFields@mod@csgo@aw@@PAU1234@IAAV?$allocator@UPredictionSendPropFields@mod@csgo@aw@@@0@@Z 10027e70 f i predictioncopy.obj
 0001:00026ec0       ??$fill@PAV?$_List_unchecked_iterator@V?$_List_val@U?$_List_simple_types@U?$pair@$$CBIUPredictionSendPropMap@mod@csgo@aw@@@std@@@std@@@std@@@std@@V12@@std@@YAXQAV?$_List_unchecked_iterator@V?$_List_val@U?$_List_simple_types@U?$pair@$$CBIUPredictionSendPropMap@mod@csgo@aw@@@std@@@std@@@std@@@0@0ABV10@@Z 10027ec0 f i predictioncopy.obj
 0001:00026f20       ??1?$list@U?$pair@$$CBIUPredictionSendPropMap@mod@csgo@aw@@@std@@V?$allocator@U?$pair@$$CBIUPredictionSendPropMap@mod@csgo@aw@@@std@@@2@@std@@QAE@XZ 10027f20 f i predictioncopy.obj
 0001:00026f70       ??1?$vector@UPredictionSendPropFields@mod@csgo@aw@@V?$allocator@UPredictionSendPropFields@mod@csgo@aw@@@std@@@std@@QAE@XZ 10027f70 f i predictioncopy.obj
 0001:00026ff0       ?GetNetworkedDataMapProps@PredictionCopy@mod@csgo@aw@@KAAAUPredictionSendPropMap@234@PAVBaseEntity@sdk@34@PAUdatamapinfo_t@734@@Z 10027ff0 f   predictioncopy.obj
 0001:000272b0       ?TransferData@PredictionCopy@mod@csgo@aw@@QAE_NPAVBaseEntity@sdk@34@H@Z 100282b0 f   predictioncopy.obj
 0001:000272f0       ?TransferDataMapCopy@PredictionCopy@mod@csgo@aw@@KA_NPAVBaseEntity@sdk@34@PAV?$vector@EV?$allocator@E@std@@@std@@PAUdatamap_t@634@W4TransferMode@1234@@Z 100282f0 f   predictioncopy.obj
 0001:00027430       ?TransferFieldForProp@PredictionCopy@mod@csgo@aw@@KA_NPAX0HPBDPAVSendProp@sdk@34@@Z 10028430 f   predictioncopy.obj
 0001:00027520       ?_Assign_grow@?$_Hash_vec@V?$allocator@V?$_List_unchecked_iterator@V?$_List_val@U?$_List_simple_types@U?$pair@$$CBIUPredictionSendPropMap@mod@csgo@aw@@@std@@@std@@@std@@@std@@@std@@@std@@QAEXIV?$_List_unchecked_iterator@V?$_List_val@U?$_List_simple_types@U?$pair@$$CBIUPredictionSendPropMap@mod@csgo@aw@@@std@@@std@@@std@@@2@@Z 10028520 f i predictioncopy.obj
 0001:000275f0       ?_Forced_rehash@?$_Hash@V?$_Umap_traits@IUPredictionSendPropMap@mod@csgo@aw@@V?$_Uhash_compare@IU?$hash@I@std@@U?$equal_to@I@2@@std@@V?$allocator@U?$pair@$$CBIUPredictionSendPropMap@mod@csgo@aw@@@std@@@6@$0A@@std@@@std@@IAEXI@Z 100285f0 f i predictioncopy.obj
 0001:00027750       ?_Xlength@?$vector@EV?$allocator@E@std@@@std@@CAXXZ 10028750 f i predictioncopy.obj
 0001:00027760       ?_Xlength@?$vector@UPredictionSendPropEntry@mod@csgo@aw@@V?$allocator@UPredictionSendPropEntry@mod@csgo@aw@@@std@@@std@@CAXXZ 10028760 f i predictioncopy.obj
 0001:00027770       ?_Xlength@?$vector@UPredictionSendPropFields@mod@csgo@aw@@V?$allocator@UPredictionSendPropFields@mod@csgo@aw@@@std@@@std@@CAXXZ 10028770 f i predictioncopy.obj
 0001:00027780       ??$_Assign_counted_range@PAE@?$vector@EV?$allocator@E@std@@@std@@AAEXPAEI@Z 10028780 f i predictionstate.obj
 0001:000278c0       ??$_Emplace_reallocate@UEnemyAttackInfo@mod@csgo@aw@@@?$vector@UEnemyAttackInfo@mod@csgo@aw@@V?$allocator@UEnemyAttackInfo@mod@csgo@aw@@@std@@@std@@AAEPAUEnemyAttackInfo@mod@csgo@aw@@QAU2345@$$QAU2345@@Z 100288c0 f i predictionstate.obj
 0001:00027a60       ??$_Find_last@PAVBaseEntity@sdk@csgo@aw@@@?$_Hash@V?$_Umap_traits@PAVBaseEntity@sdk@csgo@aw@@UPredictableLocalData@impl@mod@34@V?$_Uhash_compare@PAVBaseEntity@sdk@csgo@aw@@U?$hash@PAVBaseEntity@sdk@csgo@aw@@@std@@U?$equal_to@PAVBaseEntity@sdk@csgo@aw@@@6@@std@@V?$allocator@U?$pair@QAVBaseEntity@sdk@csgo@aw@@UPredictableLocalData@impl@mod@34@@std@@@9@$0A@@std@@@std@@IBE?AU?$_Hash_find_last_result@PAU?$_List_node@U?$pair@QAVBaseEntity@sdk@csgo@aw@@UPredictableLocalData@impl@mod@34@@std@@PAX@std@@@1@ABQAVBaseEntity@sdk@csgo@aw@@I@Z 10028a60 f i predictionstate.obj
 0001:00027ad0       ??$_Free_non_head@V?$allocator@U?$_List_node@U?$pair@QAVBaseEntity@sdk@csgo@aw@@UPredictableLocalData@impl@mod@34@@std@@PAX@std@@@std@@@?$_List_node@U?$pair@QAVBaseEntity@sdk@csgo@aw@@UPredictableLocalData@impl@mod@34@@std@@PAX@std@@SAXAAV?$allocator@U?$_List_node@U?$pair@QAVBaseEntity@sdk@csgo@aw@@UPredictableLocalData@impl@mod@34@@std@@PAX@std@@@1@PAU01@@Z 10028ad0 f i predictionstate.obj
 0001:00027b10       ??$_Try_emplace@ABQAVBaseEntity@sdk@csgo@aw@@$$V@?$_Hash@V?$_Umap_traits@PAVBaseEntity@sdk@csgo@aw@@UPredictableLocalData@impl@mod@34@V?$_Uhash_compare@PAVBaseEntity@sdk@csgo@aw@@U?$hash@PAVBaseEntity@sdk@csgo@aw@@@std@@U?$equal_to@PAVBaseEntity@sdk@csgo@aw@@@6@@std@@V?$allocator@U?$pair@QAVBaseEntity@sdk@csgo@aw@@UPredictableLocalData@impl@mod@34@@std@@@9@$0A@@std@@@std@@IAE?AU?$pair@PAU?$_List_node@U?$pair@QAVBaseEntity@sdk@csgo@aw@@UPredictableLocalData@impl@mod@34@@std@@PAX@std@@_N@1@ABQAVBaseEntity@sdk@csgo@aw@@@Z 10028b10 f i predictionstate.obj
 0001:00027cf0       ??$fill@PAV?$_List_unchecked_iterator@V?$_List_val@U?$_List_simple_types@U?$pair@QAVBaseEntity@sdk@csgo@aw@@UPredictableLocalData@impl@mod@34@@std@@@std@@@std@@@std@@V12@@std@@YAXQAV?$_List_unchecked_iterator@V?$_List_val@U?$_List_simple_types@U?$pair@QAVBaseEntity@sdk@csgo@aw@@UPredictableLocalData@impl@mod@34@@std@@@std@@@std@@@0@0ABV10@@Z 10028cf0 f i predictionstate.obj
 0001:00027d50       ??0PredictableLocalData@impl@mod@csgo@aw@@QAE@XZ 10028d50 f i predictionstate.obj
 0001:00027dd0       ??0PredictionState@impl@mod@csgo@aw@@QAE@XZ 10028dd0 f i predictionstate.obj
 0001:00028270       ??1?$CircularArray@UPredictableCommandData@impl@mod@csgo@aw@@$0JG@@aw@@QAE@XZ 10029270 f i predictionstate.obj
 0001:000282d0       ??1?$_Hash@V?$_Umap_traits@PAVBaseEntity@sdk@csgo@aw@@UPredictableLocalData@impl@mod@34@V?$_Uhash_compare@PAVBaseEntity@sdk@csgo@aw@@U?$hash@PAVBaseEntity@sdk@csgo@aw@@@std@@U?$equal_to@PAVBaseEntity@sdk@csgo@aw@@@6@@std@@V?$allocator@U?$pair@QAVBaseEntity@sdk@csgo@aw@@UPredictableLocalData@impl@mod@34@@std@@@9@$0A@@std@@@std@@QAE@XZ 100292d0 f i predictionstate.obj
 0001:00028330       ??1PredictableLocalData@impl@mod@csgo@aw@@QAE@XZ 10029330 f i predictionstate.obj
 0001:000283b0       ??4PredictionCopy@mod@csgo@aw@@QAEAAV0123@$$QAV0123@@Z 100293b0 f i predictionstate.obj
 0001:00028420       ??_E?$ModuleBaseImpl@VPredictionState@mod@csgo@aw@@V?$TypedObject@VPredictionState@mod@csgo@aw@@VModuleBase@4@@4@@aw@@UAEPAXI@Z 10029420 f i predictionstate.obj
 0001:00028420       ??_G?$ModuleBaseImpl@VPredictionState@mod@csgo@aw@@V?$TypedObject@VPredictionState@mod@csgo@aw@@VModuleBase@4@@4@@aw@@UAEPAXI@Z 10029420 f i predictionstate.obj
 0001:00028450       ??_EEnemyAttackCheckRequest@mod@csgo@aw@@UAEPAXI@Z 10029450 f i predictionstate.obj
 0001:00028450       ??_GEnemyAttackCheckRequest@mod@csgo@aw@@UAEPAXI@Z 10029450 f i predictionstate.obj
 0001:00028480       ??_EPredictionState@impl@mod@csgo@aw@@UAEPAXI@Z 10029480 f i predictionstate.obj
 0001:00028480       ??_GPredictionState@impl@mod@csgo@aw@@UAEPAXI@Z 10029480 f i predictionstate.obj
 0001:00028510       ?BackupToCommandHistory@PredictionState@impl@mod@csgo@aw@@IAEXH@Z 10029510 f   predictionstate.obj
 0001:00028630       ?BackupToPostMove@PredictionState@impl@mod@csgo@aw@@UAEXAAULocalMoveBase@345@@Z 10029630 f   predictionstate.obj
 0001:00028640       ?BackupToPreMove@PredictionState@impl@mod@csgo@aw@@UAEXAAULocalMoveBase@345@@Z 10029640 f   predictionstate.obj
 0001:00028650       ?CreateModule@?$ModuleWithFactory@VPredictionState@mod@csgo@aw@@@aw@@SAPAVPredictionState@mod@csgo@2@XZ 10029650 f   predictionstate.obj
 0001:00028680       ?FindDescMapPredictables@PredictionState@impl@mod@csgo@aw@@UAEXPAVBaseEntity@sdk@45@AAV?$StaticVector@PAVBaseEntity@sdk@csgo@aw@@$0BA@@5@@Z 10029680 f   predictionstate.obj
 0001:000286b0       ?FindDescMapPredictablesR@PredictionState@impl@mod@csgo@aw@@IAEXPAVBaseEntity@sdk@45@0PAUdatamap_t@745@AAV?$StaticVector@PAVBaseEntity@sdk@csgo@aw@@$0BA@@5@@Z 100296b0 f   predictionstate.obj
 0001:00028840       ?Get@Prediction@sdk@csgo@aw@@SAPAV1234@XZ 10029840 f i predictionstate.obj
 0001:00028850       ?GetId@?$TypedObject@UEnemyAttackCheckRequest@mod@csgo@aw@@UCallbackVars@4@@aw@@UAEIXZ 10029850 f i predictionstate.obj
 0001:00028860       ?GetId@?$TypedObject@VPredictionState@mod@csgo@aw@@VModuleBase@4@@aw@@UAEIXZ 10029860 f i predictionstate.obj
 0001:00028870       ?GetPotentialEnemyAttacks@PredictionState@impl@mod@csgo@aw@@UAEABV?$vector@UEnemyAttackInfo@mod@csgo@aw@@V?$allocator@UEnemyAttackInfo@mod@csgo@aw@@@std@@@std@@XZ 10029870 f   predictionstate.obj
 0001:00028880       ?GetPredictablesMemoryUsage@PredictionState@impl@mod@csgo@aw@@UAEHXZ 10029880 f   predictionstate.obj
 0001:00028960       ?InvalidatePredictablesPhysics@PredictionState@impl@mod@csgo@aw@@IAEXAAULocalMoveBase@345@@Z 10029960 f   predictionstate.obj
 0001:000289b0       ?OnConnectionStart@PredictionState@impl@mod@csgo@aw@@IAEXAAUConnectionStart@hk@45@@Z 100299b0 f   predictionstate.obj
 0001:000289c0       ?OnFinishMove@PredictionState@impl@mod@csgo@aw@@IAEXAAULocalFinishMove@345@@Z 100299c0 f   predictionstate.obj
 0001:00028be0       ?OnLevelInit@PredictionState@impl@mod@csgo@aw@@IAEXAAULevelInit@hk@45@@Z 10029be0 f   predictionstate.obj
 0001:00028bf0       ?OnPostMove@PredictionState@impl@mod@csgo@aw@@IAEXAAULocalPostMove@345@@Z 10029bf0 f   predictionstate.obj
 0001:00028dc0       ?OnPostPlayerPostThink@PredictionState@impl@mod@csgo@aw@@IAEXAAUPlayerPostThink@hk@45@@Z 10029dc0 f   predictionstate.obj
 0001:00028e20       ?OnPostPrediction@PredictionState@impl@mod@csgo@aw@@IAEXAAURunPrediction@hk@45@@Z 10029e20 f   predictionstate.obj
 0001:00028e40       ?OnPostRunCommand@PredictionState@impl@mod@csgo@aw@@IAEXAAURunCommand@hk@45@@Z 10029e40 f   predictionstate.obj
 0001:00028e50       ?OnPreMove@PredictionState@impl@mod@csgo@aw@@IAEXAAULocalPreMove@345@@Z 10029e50 f   predictionstate.obj
 0001:00028f30       ?OnPrePlayerPostThink@PredictionState@impl@mod@csgo@aw@@IAEXAAUPlayerPostThink@hk@45@@Z 10029f30 f   predictionstate.obj
 0001:00028f70       ?OnPrePrediction@PredictionState@impl@mod@csgo@aw@@IAEXAAURunPrediction@hk@45@@Z 10029f70 f   predictionstate.obj
 0001:00028fa0       ?OnPreRunCommand@PredictionState@impl@mod@csgo@aw@@IAEXAAURunCommand@hk@45@@Z 10029fa0 f   predictionstate.obj
 0001:00029030       ?OnPredictionGetUserCmd@PredictionState@impl@mod@csgo@aw@@IAEXAAUGetUserCmd@hk@45@@Z 1002a030 f   predictionstate.obj
 0001:00029090       ?OnReadPacketEntities@PredictionState@impl@mod@csgo@aw@@IAEXAAUReadPacketEntities@hk@45@@Z 1002a090 f   predictionstate.obj
 0001:000291d0       ?PredictEnemyAttacks@PredictionState@impl@mod@csgo@aw@@IAEXAAULocalMoveBase@345@@Z 1002a1d0 f   predictionstate.obj
 0001:00029960       ?PredictFlinchState@PredictionState@impl@mod@csgo@aw@@IAEXAAULocalMoveBase@345@@Z 1002a960 f   predictionstate.obj
 0001:00029e90       ?PredictPlayerPostThink@PredictionState@impl@mod@csgo@aw@@UAEXAAULocalFinishMove@345@@Z 1002ae90 f   predictionstate.obj
 0001:00029f10       ?PredictPlayerTick@PredictionState@impl@mod@csgo@aw@@UAEXAAULocalPostMove@345@_N@Z 1002af10 f   predictionstate.obj
 0001:0002a0a0       ?ResetPredictableList@PredictionState@impl@mod@csgo@aw@@IAEXXZ 1002b0a0 f   predictionstate.obj
 0001:0002a110       ?RestoreClientPredictionState@PredictionState@impl@mod@csgo@aw@@UAEXAAULocalMoveBase@345@@Z 1002b110 f   predictionstate.obj
 0001:0002a280       ?RestoreEntityToPredictedFrame@Prediction@sdk@csgo@aw@@QAEXHH@Z 1002b280 f i predictionstate.obj
 0001:0002a3b0       ?RestoreOriginalEntityState@Prediction@sdk@csgo@aw@@QAEXH@Z 1002b3b0 f i predictionstate.obj
 0001:0002a570       ?RestoreToPostMove@PredictionState@impl@mod@csgo@aw@@UAEXAAULocalMoveBase@345@@Z 1002b570 f   predictionstate.obj
 0001:0002a590       ?RestoreToPreMove@PredictionState@impl@mod@csgo@aw@@UAEXAAULocalMoveBase@345@@Z 1002b590 f   predictionstate.obj
 0001:0002a5b0       ?TransferPredictableData@PredictionState@impl@mod@csgo@aw@@IAEXAAULocalMoveBase@345@HW4PredictableMoveSlot@345@@Z 1002b5b0 f   predictionstate.obj
 0001:0002a6a0       ?UpdatePredictableList@PredictionState@impl@mod@csgo@aw@@IAEXAAULocalMoveBase@345@@Z 1002b6a0 f   predictionstate.obj
 0001:0002aa30       ?UpdateTickTime@PredictionState@impl@mod@csgo@aw@@UAEXAAULocalMoveBase@345@@Z 1002ba30 f   predictionstate.obj
 0001:0002aab0       ?_Assign_grow@?$_Hash_vec@V?$allocator@V?$_List_unchecked_iterator@V?$_List_val@U?$_List_simple_types@U?$pair@QAVBaseEntity@sdk@csgo@aw@@UPredictableLocalData@impl@mod@34@@std@@@std@@@std@@@std@@@std@@@std@@QAEXIV?$_List_unchecked_iterator@V?$_List_val@U?$_List_simple_types@U?$pair@QAVBaseEntity@sdk@csgo@aw@@UPredictableLocalData@impl@mod@34@@std@@@std@@@std@@@2@@Z 1002bab0 f i predictionstate.obj
 0001:0002ab80       ?_Forced_rehash@?$_Hash@V?$_Umap_traits@PAVBaseEntity@sdk@csgo@aw@@UPredictableLocalData@impl@mod@34@V?$_Uhash_compare@PAVBaseEntity@sdk@csgo@aw@@U?$hash@PAVBaseEntity@sdk@csgo@aw@@@std@@U?$equal_to@PAVBaseEntity@sdk@csgo@aw@@@6@@std@@V?$allocator@U?$pair@QAVBaseEntity@sdk@csgo@aw@@UPredictableLocalData@impl@mod@34@@std@@@9@$0A@@std@@@std@@IAEXI@Z 1002bb80 f i predictionstate.obj
 0001:0002ace0       ?_Unchecked_erase@?$_Hash@V?$_Umap_traits@PAVBaseEntity@sdk@csgo@aw@@UPredictableLocalData@impl@mod@34@V?$_Uhash_compare@PAVBaseEntity@sdk@csgo@aw@@U?$hash@PAVBaseEntity@sdk@csgo@aw@@@std@@U?$equal_to@PAVBaseEntity@sdk@csgo@aw@@@6@@std@@V?$allocator@U?$pair@QAVBaseEntity@sdk@csgo@aw@@UPredictableLocalData@impl@mod@34@@std@@@9@$0A@@std@@@std@@AAEPAU?$_List_node@U?$pair@QAVBaseEntity@sdk@csgo@aw@@UPredictableLocalData@impl@mod@34@@std@@PAX@2@PAU32@QAU32@@Z 1002bce0 f i predictionstate.obj
 0001:0002ae90       ?_Xlength@?$vector@UEnemyAttackInfo@mod@csgo@aw@@V?$allocator@UEnemyAttackInfo@mod@csgo@aw@@@std@@@std@@CAXXZ 1002be90 f i predictionstate.obj
 0001:0002aea0       ?__offset_GetButtons@BasePlayer@sdk@csgo@aw@@QAEHXZ 1002bea0 f i predictionstate.obj
 0001:0002aed0       ?__offset_GetButtonsLast@BasePlayer@sdk@csgo@aw@@QAEHXZ 1002bed0 f i predictionstate.obj
 0001:0002af00       ?__offset_GetButtonsPressed@BasePlayer@sdk@csgo@aw@@QAEHXZ 1002bf00 f i predictionstate.obj
 0001:0002af30       ?__offset_GetButtonsReleased@BasePlayer@sdk@csgo@aw@@QAEHXZ 1002bf30 f i predictionstate.obj
 0001:0002af60       ?__offset_GetOldButtons@BasePlayer@sdk@csgo@aw@@QAEHXZ 1002bf60 f i predictionstate.obj
 0001:0002af90       ??0ServerState@impl@mod@csgo@aw@@QAE@XZ 1002bf90 f i serverstate.obj
 0001:0002b240       ??0ServerStateData@impl@mod@csgo@aw@@QAE@XZ 1002c240 f i serverstate.obj
 0001:0002b3c0       ??0UserCmd@sdk@csgo@aw@@QAE@ABV0123@@Z 1002c3c0 f i serverstate.obj
 0001:0002b470       ??_E?$ModuleBaseImpl@VServerState@mod@csgo@aw@@V?$TypedObject@VServerState@mod@csgo@aw@@VModuleBase@4@@4@@aw@@UAEPAXI@Z 1002c470 f i serverstate.obj
 0001:0002b470       ??_G?$ModuleBaseImpl@VServerState@mod@csgo@aw@@V?$TypedObject@VServerState@mod@csgo@aw@@VModuleBase@4@@4@@aw@@UAEPAXI@Z 1002c470 f i serverstate.obj
 0001:0002b4a0       ??_EServerState@impl@mod@csgo@aw@@UAEPAXI@Z 1002c4a0 f i serverstate.obj
 0001:0002b4a0       ??_GServerState@impl@mod@csgo@aw@@UAEPAXI@Z 1002c4a0 f i serverstate.obj
 0001:0002b4d0       ??_EServerStateEarlyRequest@mod@csgo@aw@@UAEPAXI@Z 1002c4d0 f i serverstate.obj
 0001:0002b4d0       ??_GServerStateEarlyRequest@mod@csgo@aw@@UAEPAXI@Z 1002c4d0 f i serverstate.obj
 0001:0002b500       ?CreateModule@?$ModuleWithFactory@VServerState@mod@csgo@aw@@@aw@@SAPAVServerState@mod@csgo@2@XZ 1002c500 f   serverstate.obj
 0001:0002b530       ?Get@HLClient@sdk@csgo@aw@@SAPAV1234@XZ 1002c530 f i serverstate.obj
 0001:0002b540       ?GetChokedCmds@ServerStateCommandMask@mod@csgo@aw@@QBEHXZ 1002c540 f   serverstate.obj
 0001:0002b550       ?GetClockCorrectionTicks@ServerState@impl@mod@csgo@aw@@MAEHXZ 1002c550 f   serverstate.obj
 0001:0002b5d0       ?GetCommandContext@ServerState@impl@mod@csgo@aw@@MAEPBUServerStateCommandContext@345@H@Z 1002c5d0 f   serverstate.obj
 0001:0002b610       ?GetCommandMask@ServerState@impl@mod@csgo@aw@@MAEABUServerStateCommandMask@345@XZ 1002c610 f i serverstate.obj
 0001:0002b620       ?GetCommandsAcknowledged@ServerState@impl@mod@csgo@aw@@MAEHXZ 1002c620 f i serverstate.obj
 0001:0002b630       ?GetCommandsBlocked@ServerState@impl@mod@csgo@aw@@MAEHXZ 1002c630 f i serverstate.obj
 0001:0002b640       ?GetCommandsBurstedThisMove@ServerState@impl@mod@csgo@aw@@MAEHXZ 1002c640 f i serverstate.obj
 0001:0002b650       ?GetCommandsChokedThisMove@ServerState@impl@mod@csgo@aw@@MAEHXZ 1002c650 f i serverstate.obj
 0001:0002b660       ?GetCommandsPredicted@ServerState@impl@mod@csgo@aw@@MAEHXZ 1002c660 f i serverstate.obj
 0001:0002b670       ?GetCommandsShifted@ServerState@impl@mod@csgo@aw@@MAEHXZ 1002c670 f i serverstate.obj
 0001:0002b680       ?GetDynamic@HLClient@sdk@csgo@aw@@SAPAV1234@XZ 1002c680 f i serverstate.obj
 0001:0002b6a0       ?GetId@?$TypedObject@UServerStateEarlyRequest@mod@csgo@aw@@UCallbackVars@4@@aw@@UAEIXZ 1002c6a0 f i serverstate.obj
 0001:0002b6b0       ?GetId@?$TypedObject@VServerState@mod@csgo@aw@@VModuleBase@4@@aw@@UAEIXZ 1002c6b0 f i serverstate.obj
 0001:0002b6c0       ?GetMaxUserCmdProcessTicks@ServerState@impl@mod@csgo@aw@@MAEHXZ 1002c6c0 f i serverstate.obj
 0001:0002b6d0       ?GetMin@ServerStateRequest@mod@csgo@aw@@QBEHXZ 1002c6d0 f   serverstate.obj
 0001:0002b6e0       ?GetProcessedCmds@ServerStateCommandMask@mod@csgo@aw@@QBEHXZ 1002c6e0 f   serverstate.obj
 0001:0002b740       ?GetRequestData@ServerState@impl@mod@csgo@aw@@UAEPAUServerStateRequestData@345@XZ 1002c740 f i serverstate.obj
 0001:0002b750       ?GetServerTick@ServerState@impl@mod@csgo@aw@@MAEHXZ 1002c750 f i serverstate.obj
 0001:0002b760       ?GetServerTickReceived@ServerState@impl@mod@csgo@aw@@MAEHXZ 1002c760 f i serverstate.obj
 0001:0002b770       ?GetTickBase@ServerState@impl@mod@csgo@aw@@MAEHXZ 1002c770 f i serverstate.obj
 0001:0002b780       ?GetTickBaseReceived@ServerState@impl@mod@csgo@aw@@MAEHXZ 1002c780 f i serverstate.obj
 0001:0002b790       ?GetTicksAllowedForProcessing@ServerState@impl@mod@csgo@aw@@MAEHXZ 1002c790 f i serverstate.obj
 0001:0002b7a0       ?GetTicksAllowedForProcessingServer@ServerState@impl@mod@csgo@aw@@MAEHXZ 1002c7a0 f i serverstate.obj
 0001:0002b7b0       ?GetTimeBase@ServerState@impl@mod@csgo@aw@@MAEMXZ 1002c7b0 f i serverstate.obj
 0001:0002b7d0       ?IsSet@ServerStateRequest@mod@csgo@aw@@QBE_NXZ 1002c7d0 f   serverstate.obj
 0001:0002b7f0       ?Max@ServerStateRequest@mod@csgo@aw@@QAEXH@Z 1002c7f0 f   serverstate.obj
 0001:0002b820       ?Min@ServerStateRequest@mod@csgo@aw@@QAEXH@Z 1002c820 f   serverstate.obj
 0001:0002b840       ?Process@ServerStateRequestData@mod@csgo@aw@@QAEXAAULocalMoveBase@234@PAVServerState@234@@Z 1002c840 f   serverstate.obj
 0001:0002b950       ?Reset@ServerStateRequest@mod@csgo@aw@@QAEXXZ 1002c950 f   serverstate.obj
 0001:0002b960       ?Validate@ServerStateRequestData@mod@csgo@aw@@QAEXXZ 1002c960 f   serverstate.obj
 0001:0002b9c0       ??$_Find_last@I@?$_Hash@V?$_Uset_traits@IV?$_Uhash_compare@IU?$RawHasher@I@aw@@U?$equal_to@I@std@@@std@@V?$allocator@I@2@$0A@@std@@@std@@IBE?AU?$_Hash_find_last_result@PAU?$_List_node@IPAX@std@@@1@ABII@Z 1002c9c0 f i cheatsecurity.obj
 0001:0002ba30       ??$_Find_last@V?$basic_string@DU?$char_traits@D@std@@V?$allocator@D@2@@std@@@?$_Hash@V?$_Umap_traits@V?$basic_string@DU?$char_traits@D@std@@V?$allocator@D@2@@std@@V12@V?$_Uhash_compare@V?$basic_string@DU?$char_traits@D@std@@V?$allocator@D@2@@std@@U?$hash@V?$basic_string@DU?$char_traits@D@std@@V?$allocator@D@2@@std@@@2@U?$equal_to@V?$basic_string@DU?$char_traits@D@std@@V?$allocator@D@2@@std@@@2@@2@V?$allocator@U?$pair@$$CBV?$basic_string@DU?$char_traits@D@std@@V?$allocator@D@2@@std@@V12@@std@@@2@$0A@@std@@@std@@IBE?AU?$_Hash_find_last_result@PAU?$_List_node@U?$pair@$$CBV?$basic_string@DU?$char_traits@D@std@@V?$allocator@D@2@@std@@V12@@std@@PAX@std@@@1@ABV?$basic_string@DU?$char_traits@D@std@@V?$allocator@D@2@@1@I@Z 1002ca30 f i cheatsecurity.obj
 0001:0002bb10       ??$_Resize@U_Value_init_tag@std@@@?$vector@IV?$allocator@I@std@@@std@@AAEXIABU_Value_init_tag@1@@Z 1002cb10 f i cheatsecurity.obj
 0001:0002bc60       ??$_Resize_reallocate@U_Value_init_tag@std@@@?$vector@V?$basic_string@DU?$char_traits@D@std@@V?$allocator@D@2@@std@@V?$allocator@V?$basic_string@DU?$char_traits@D@std@@V?$allocator@D@2@@std@@@2@@std@@AAEXIABU_Value_init_tag@1@@Z 1002cc60 f i cheatsecurity.obj
 0001:0002bdd0       ??$_Try_emplace@V?$basic_string@DU?$char_traits@D@std@@V?$allocator@D@2@@std@@$$V@?$_Hash@V?$_Umap_traits@V?$basic_string@DU?$char_traits@D@std@@V?$allocator@D@2@@std@@V12@V?$_Uhash_compare@V?$basic_string@DU?$char_traits@D@std@@V?$allocator@D@2@@std@@U?$hash@V?$basic_string@DU?$char_traits@D@std@@V?$allocator@D@2@@std@@@2@U?$equal_to@V?$basic_string@DU?$char_traits@D@std@@V?$allocator@D@2@@std@@@2@@2@V?$allocator@U?$pair@$$CBV?$basic_string@DU?$char_traits@D@std@@V?$allocator@D@2@@std@@V12@@std@@@2@$0A@@std@@@std@@IAE?AU?$pair@PAU?$_List_node@U?$pair@$$CBV?$basic_string@DU?$char_traits@D@std@@V?$allocator@D@2@@std@@V12@@std@@PAX@std@@_N@1@$$QAV?$basic_string@DU?$char_traits@D@std@@V?$allocator@D@2@@1@@Z 1002cdd0 f i cheatsecurity.obj
 0001:0002bfd0       ??$_Uninitialized_value_construct_n@V?$allocator@V?$basic_string@DU?$char_traits@D@std@@V?$allocator@D@2@@std@@@std@@@std@@YAPAV?$basic_string@DU?$char_traits@D@std@@V?$allocator@D@2@@0@PAV10@IAAV?$allocator@V?$basic_string@DU?$char_traits@D@std@@V?$allocator@D@2@@std@@@0@@Z 1002cfd0 f i cheatsecurity.obj
 0001:0002c020       ??$emplace@ABI@?$_Hash@V?$_Uset_traits@IV?$_Uhash_compare@IU?$RawHasher@I@aw@@U?$equal_to@I@std@@@std@@V?$allocator@I@2@$0A@@std@@@std@@QAE?AU?$pair@V?$_List_const_iterator@V?$_List_val@U?$_List_simple_types@I@std@@@std@@@std@@_N@1@ABI@Z 1002d020 f i cheatsecurity.obj
 0001:0002c1b0       ??$fill@PAV?$_List_unchecked_const_iterator@V?$_List_val@U?$_List_simple_types@I@std@@@std@@U_Iterator_base0@2@@std@@V12@@std@@YAXQAV?$_List_unchecked_const_iterator@V?$_List_val@U?$_List_simple_types@I@std@@@std@@U_Iterator_base0@2@@0@0ABV10@@Z 1002d1b0 f i cheatsecurity.obj
 0001:0002c210       ??$fill@PAV?$_List_unchecked_iterator@V?$_List_val@U?$_List_simple_types@U?$pair@$$CBV?$basic_string@DU?$char_traits@D@std@@V?$allocator@D@2@@std@@V12@@std@@@std@@@std@@@std@@V12@@std@@YAXQAV?$_List_unchecked_iterator@V?$_List_val@U?$_List_simple_types@U?$pair@$$CBV?$basic_string@DU?$char_traits@D@std@@V?$allocator@D@2@@std@@V12@@std@@@std@@@std@@@0@0ABV10@@Z 1002d210 f i cheatsecurity.obj
 0001:0002c270       ??0?$unordered_map@V?$basic_string@DU?$char_traits@D@std@@V?$allocator@D@2@@std@@V12@U?$hash@V?$basic_string@DU?$char_traits@D@std@@V?$allocator@D@2@@std@@@2@U?$equal_to@V?$basic_string@DU?$char_traits@D@std@@V?$allocator@D@2@@std@@@2@V?$allocator@U?$pair@$$CBV?$basic_string@DU?$char_traits@D@std@@V?$allocator@D@2@@std@@V12@@std@@@2@@std@@QAE@XZ 1002d270 f i cheatsecurity.obj
 0001:0002c2e0       ??0CheatSecurity@impl@mod@csgo@aw@@QAE@XZ 1002d2e0 f i cheatsecurity.obj
 0001:0002c570       ??1?$_Hash@V?$_Uset_traits@IV?$_Uhash_compare@IU?$RawHasher@I@aw@@U?$equal_to@I@std@@@std@@V?$allocator@I@2@$0A@@std@@@std@@QAE@XZ 1002d570 f i cheatsecurity.obj
 0001:0002c5f0       ??1?$list@U?$pair@$$CBV?$basic_string@DU?$char_traits@D@std@@V?$allocator@D@2@@std@@V12@@std@@V?$allocator@U?$pair@$$CBV?$basic_string@DU?$char_traits@D@std@@V?$allocator@D@2@@std@@V12@@std@@@2@@std@@QAE@XZ 1002d5f0 f i cheatsecurity.obj
 0001:0002c640       ??1?$pair@$$CBV?$basic_string@DU?$char_traits@D@std@@V?$allocator@D@2@@std@@V12@@std@@QAE@XZ 1002d640 f i cheatsecurity.obj
 0001:0002c6b0       ??1ServerAntiCheat@impl@mod@csgo@aw@@QAE@XZ 1002d6b0 f i cheatsecurity.obj
 0001:0002c740       ??4?$unordered_set@IU?$RawHasher@I@aw@@U?$equal_to@I@std@@V?$allocator@I@4@@std@@QAEAAV01@V?$initializer_list@I@1@@Z 1002d740 f i cheatsecurity.obj
 0001:0002c900       ??4ServerAntiCheat@impl@mod@csgo@aw@@QAEAAU01234@$$QAU01234@@Z 1002d900 f i cheatsecurity.obj
 0001:0002ca20       ??_E?$ModuleBaseImpl@VCheatSecurity@mod@csgo@aw@@V?$TypedObject@VCheatSecurity@mod@csgo@aw@@VModuleBase@4@@4@@aw@@UAEPAXI@Z 1002da20 f i cheatsecurity.obj
 0001:0002ca20       ??_G?$ModuleBaseImpl@VCheatSecurity@mod@csgo@aw@@V?$TypedObject@VCheatSecurity@mod@csgo@aw@@VModuleBase@4@@4@@aw@@UAEPAXI@Z 1002da20 f i cheatsecurity.obj
 0001:0002ca50       ??_ECheatSecurity@impl@mod@csgo@aw@@UAEPAXI@Z 1002da50 f i cheatsecurity.obj
 0001:0002ca50       ??_GCheatSecurity@impl@mod@csgo@aw@@UAEPAXI@Z 1002da50 f i cheatsecurity.obj
 0001:0002ca90       ?AddDetectedGameEvent@CheatSecurity@impl@mod@csgo@aw@@UAEXI@Z 1002da90 f   cheatsecurity.obj
 0001:0002cae0       ?CreateModule@?$ModuleWithFactory@VCheatSecurity@mod@csgo@aw@@@aw@@SAPAVCheatSecurity@mod@csgo@2@XZ 1002dae0 f   cheatsecurity.obj
 0001:0002cb10       ?GetId@?$TypedObject@VCheatSecurity@mod@csgo@aw@@VModuleBase@4@@aw@@UAEIXZ 1002db10 f i cheatsecurity.obj
 0001:0002cb20       ?IsAntiSMAC@CheatSecurity@impl@mod@csgo@aw@@UAE_NXZ 1002db20 f   cheatsecurity.obj
 0001:0002cb70       ?IsAntiUntrusted@CheatSecurity@impl@mod@csgo@aw@@UAE_NXZ 1002db70 f   cheatsecurity.obj
 0001:0002cb90       ?IsServerInsecure@CheatSecurity@impl@mod@csgo@aw@@UAE_NXZ 1002db90 f   cheatsecurity.obj
 0001:0002cbb0       ?IsValveDS@CheatSecurity@impl@mod@csgo@aw@@UAE_NXZ 1002dbb0 f   cheatsecurity.obj
 0001:0002cbe0       ?IsValveViewDeltaLimit@CheatSecurity@impl@mod@csgo@aw@@UAE_NXZ 1002dbe0 f   cheatsecurity.obj
 0001:0002cc30       ?OnConnectionStart@CheatSecurity@impl@mod@csgo@aw@@IAEXAAUConnectionStart@hk@45@@Z 1002dc30 f   cheatsecurity.obj
 0001:0002cda0       ?OnFrameEnd@CheatSecurity@impl@mod@csgo@aw@@IAEXAAUFrameEnd@hk@45@@Z 1002dda0 f   cheatsecurity.obj
 0001:0002cdb0       ?OnInit@CheatSecurity@impl@mod@csgo@aw@@IAEXAAUCommonInit@5@@Z 1002ddb0 f   cheatsecurity.obj
 0001:0002d200       ?OnParseNetMsg@CheatSecurity@impl@mod@csgo@aw@@IAEXAAUParseNetMsg@hk@45@@Z 1002e200 f   cheatsecurity.obj
 0001:0002d250       ?OnSendGCMsg@CheatSecurity@impl@mod@csgo@aw@@IAEXAAUSendGCMsg@hk@45@@Z 1002e250 f   cheatsecurity.obj
 0001:0002d270       ?OnSendNetMsg@CheatSecurity@impl@mod@csgo@aw@@IAEXAAUSendNetMsg@hk@45@@Z 1002e270 f   cheatsecurity.obj
 0001:0002d2c0       ?_Assign_grow@?$_Hash_vec@V?$allocator@V?$_List_unchecked_const_iterator@V?$_List_val@U?$_List_simple_types@I@std@@@std@@U_Iterator_base0@2@@std@@@std@@@std@@QAEXIV?$_List_unchecked_const_iterator@V?$_List_val@U?$_List_simple_types@I@std@@@std@@U_Iterator_base0@2@@2@@Z 1002e2c0 f i cheatsecurity.obj
 0001:0002d390       ?_Assign_grow@?$_Hash_vec@V?$allocator@V?$_List_unchecked_iterator@V?$_List_val@U?$_List_simple_types@U?$pair@$$CBV?$basic_string@DU?$char_traits@D@std@@V?$allocator@D@2@@std@@V12@@std@@@std@@@std@@@std@@@std@@@std@@QAEXIV?$_List_unchecked_iterator@V?$_List_val@U?$_List_simple_types@U?$pair@$$CBV?$basic_string@DU?$char_traits@D@std@@V?$allocator@D@2@@std@@V12@@std@@@std@@@std@@@2@@Z 1002e390 f i cheatsecurity.obj
 0001:0002d460       ?_Forced_rehash@?$_Hash@V?$_Umap_traits@V?$basic_string@DU?$char_traits@D@std@@V?$allocator@D@2@@std@@V12@V?$_Uhash_compare@V?$basic_string@DU?$char_traits@D@std@@V?$allocator@D@2@@std@@U?$hash@V?$basic_string@DU?$char_traits@D@std@@V?$allocator@D@2@@std@@@2@U?$equal_to@V?$basic_string@DU?$char_traits@D@std@@V?$allocator@D@2@@std@@@2@@2@V?$allocator@U?$pair@$$CBV?$basic_string@DU?$char_traits@D@std@@V?$allocator@D@2@@std@@V12@@std@@@2@$0A@@std@@@std@@IAEXI@Z 1002e460 f i cheatsecurity.obj
 0001:0002d6e0       ?_Forced_rehash@?$_Hash@V?$_Uset_traits@IV?$_Uhash_compare@IU?$RawHasher@I@aw@@U?$equal_to@I@std@@@std@@V?$allocator@I@2@$0A@@std@@@std@@IAEXI@Z 1002e6e0 f i cheatsecurity.obj
 0001:0002d800       ?_Tidy@?$vector@V?$basic_string@DU?$char_traits@D@std@@V?$allocator@D@2@@std@@V?$allocator@V?$basic_string@DU?$char_traits@D@std@@V?$allocator@D@2@@std@@@2@@std@@AAEXXZ 1002e800 f i cheatsecurity.obj
 0001:0002d870       ?_Unchecked_erase@?$_Hash@V?$_Umap_traits@V?$basic_string@DU?$char_traits@D@std@@V?$allocator@D@2@@std@@V12@V?$_Uhash_compare@V?$basic_string@DU?$char_traits@D@std@@V?$allocator@D@2@@std@@U?$hash@V?$basic_string@DU?$char_traits@D@std@@V?$allocator@D@2@@std@@@2@U?$equal_to@V?$basic_string@DU?$char_traits@D@std@@V?$allocator@D@2@@std@@@2@@2@V?$allocator@U?$pair@$$CBV?$basic_string@DU?$char_traits@D@std@@V?$allocator@D@2@@std@@V12@@std@@@2@$0A@@std@@@std@@AAEPAU?$_List_node@U?$pair@$$CBV?$basic_string@DU?$char_traits@D@std@@V?$allocator@D@2@@std@@V12@@std@@PAX@2@PAU32@QAU32@@Z 1002e870 f i cheatsecurity.obj
 0001:0002da00       ?_Xlength@?$vector@IV?$allocator@I@std@@@std@@CAXXZ 1002ea00 f i cheatsecurity.obj
 0001:0002da10       ?_Xran@?$_String_val@U?$_Simple_types@D@std@@@std@@SAXXZ 1002ea10 f i cheatsecurity.obj
 0001:0002da20       ?allocate@?$allocator@V?$basic_string@DU?$char_traits@D@std@@V?$allocator@D@2@@std@@@std@@QAEPAV?$basic_string@DU?$char_traits@D@std@@V?$allocator@D@2@@2@I@Z 1002ea20 f i cheatsecurity.obj
 0001:0002da80       ?assign@?$basic_string@DU?$char_traits@D@std@@V?$allocator@D@2@@std@@QAEAAV12@QBDI@Z 1002ea80 f i cheatsecurity.obj
 0001:0002db90       ?clear@?$_Hash@V?$_Umap_traits@V?$basic_string@DU?$char_traits@D@std@@V?$allocator@D@2@@std@@V12@V?$_Uhash_compare@V?$basic_string@DU?$char_traits@D@std@@V?$allocator@D@2@@std@@U?$hash@V?$basic_string@DU?$char_traits@D@std@@V?$allocator@D@2@@std@@@2@U?$equal_to@V?$basic_string@DU?$char_traits@D@std@@V?$allocator@D@2@@std@@@2@@2@V?$allocator@U?$pair@$$CBV?$basic_string@DU?$char_traits@D@std@@V?$allocator@D@2@@std@@V12@@std@@@2@$0A@@std@@@std@@QAEXXZ 1002eb90 f i cheatsecurity.obj
 0001:0002dc20       ?clear@?$_Hash@V?$_Uset_traits@IV?$_Uhash_compare@IU?$RawHasher@I@aw@@U?$equal_to@I@std@@@std@@V?$allocator@I@2@$0A@@std@@@std@@QAEXXZ 1002ec20 f i cheatsecurity.obj
 0001:0002dc90       ??$_Emplace_reallocate@ABH@?$vector@HV?$allocator@H@std@@@std@@AAEPAHQAHABH@Z 1002ec90 f i appearance.obj
 0001:0002ddd0       ??_E?$ModuleBaseImpl@VAppearance@mod@csgo@aw@@V?$TypedObject@VAppearance@mod@csgo@aw@@VModuleBase@4@@4@@aw@@UAEPAXI@Z 1002edd0 f i appearance.obj
 0001:0002ddd0       ??_G?$ModuleBaseImpl@VAppearance@mod@csgo@aw@@V?$TypedObject@VAppearance@mod@csgo@aw@@VModuleBase@4@@4@@aw@@UAEPAXI@Z 1002edd0 f i appearance.obj
 0001:0002de00       ??_EAppearance@impl@mod@csgo@aw@@UAEPAXI@Z 1002ee00 f i appearance.obj
 0001:0002de00       ??_GAppearance@impl@mod@csgo@aw@@UAEPAXI@Z 1002ee00 f i appearance.obj
 0001:0002de30       ?CreateModule@?$ModuleWithFactory@VAppearance@mod@csgo@aw@@@aw@@SAPAVAppearance@mod@csgo@2@XZ 1002ee30 f   appearance.obj
 0001:0002df60       ?GetId@?$TypedObject@VAppearance@mod@csgo@aw@@VModuleBase@4@@aw@@UAEIXZ 1002ef60 f i appearance.obj
 0001:0002df70       ?OnConnectionStart@Appearance@impl@mod@csgo@aw@@IAEXAAUConnectionStart@hk@45@@Z 1002ef70 f   appearance.obj
 0001:0002df80       ?OnCreateMove@Appearance@impl@mod@csgo@aw@@IAEXAAUCreateMove@hk@45@@Z 1002ef80 f   appearance.obj
 0001:0002e120       ?OnFrame@Appearance@impl@mod@csgo@aw@@IAEXAAURenderFrame@gfx@5@@Z 1002f120 f   appearance.obj
 0001:0002e5e0       ?_Xlength@?$vector@HV?$allocator@H@std@@@std@@CAXXZ 1002f5e0 f i appearance.obj
 0001:0002e5f0       ??_E?$ModuleBaseImpl@VAutoStrafer@mod@csgo@aw@@V?$TypedObject@VAutoStrafer@mod@csgo@aw@@VModuleBase@4@@4@@aw@@UAEPAXI@Z 1002f5f0 f i autostrafer.obj
 0001:0002e5f0       ??_G?$ModuleBaseImpl@VAutoStrafer@mod@csgo@aw@@V?$TypedObject@VAutoStrafer@mod@csgo@aw@@VModuleBase@4@@4@@aw@@UAEPAXI@Z 1002f5f0 f i autostrafer.obj
 0001:0002e620       ??_EAutoStrafer@impl@mod@csgo@aw@@UAEPAXI@Z 1002f620 f i autostrafer.obj
 0001:0002e620       ??_GAutoStrafer@impl@mod@csgo@aw@@UAEPAXI@Z 1002f620 f i autostrafer.obj
 0001:0002e650       ?CircleStrafe@AutoStrafer@impl@mod@csgo@aw@@IAEXPAVUserCmd@sdk@45@@Z 1002f650 f   autostrafer.obj
 0001:0002ea00       ?CreateModule@?$ModuleWithFactory@VAutoStrafer@mod@csgo@aw@@@aw@@SAPAVAutoStrafer@mod@csgo@2@XZ 1002fa00 f   autostrafer.obj
 0001:0002eac0       ?GetId@?$TypedObject@VAutoStrafer@mod@csgo@aw@@VModuleBase@4@@aw@@UAEIXZ 1002fac0 f i autostrafer.obj
 0001:0002ead0       ?IsHittingObstacleInFuture@AutoStrafer@impl@mod@csgo@aw@@IAE_NMM@Z 1002fad0 f   autostrafer.obj
 0001:0002ec00       ??$_Erase_tree@V?$allocator@U?$_Tree_node@PAVBaseEntity@sdk@csgo@aw@@PAX@std@@@std@@@?$_Tree_val@U?$_Tree_simple_types@PAVBaseEntity@sdk@csgo@aw@@@std@@@std@@QAEXAAV?$allocator@U?$_Tree_node@PAVBaseEntity@sdk@csgo@aw@@PAX@std@@@1@PAU?$_Tree_node@PAVBaseEntity@sdk@csgo@aw@@PAX@1@@Z 1002fc00 f i autothrow.obj
 0001:0002ec40       ??1?$_Tree@V?$_Tset_traits@PAVBaseEntity@sdk@csgo@aw@@U?$less@PAVBaseEntity@sdk@csgo@aw@@@std@@V?$allocator@PAVBaseEntity@sdk@csgo@aw@@@6@$0A@@std@@@std@@QAE@XZ 1002fc40 f i autothrow.obj
 0001:0002ec80       ??_E?$ModuleBaseImpl@VAutoThrow@mod@csgo@aw@@V?$TypedObject@VAutoThrow@mod@csgo@aw@@VModuleBase@4@@4@@aw@@UAEPAXI@Z 1002fc80 f i autothrow.obj
 0001:0002ec80       ??_G?$ModuleBaseImpl@VAutoThrow@mod@csgo@aw@@V?$TypedObject@VAutoThrow@mod@csgo@aw@@VModuleBase@4@@4@@aw@@UAEPAXI@Z 1002fc80 f i autothrow.obj
 0001:0002ecb0       ??_EAutoThrow@impl@mod@csgo@aw@@UAEPAXI@Z 1002fcb0 f i autothrow.obj
 0001:0002ecb0       ??_GAutoThrow@impl@mod@csgo@aw@@UAEPAXI@Z 1002fcb0 f i autothrow.obj
 0001:0002ece0       ?CreateModule@?$ModuleWithFactory@VAutoThrow@mod@csgo@aw@@@aw@@SAPAVAutoThrow@mod@csgo@2@XZ 1002fce0 f   autothrow.obj
 0001:0002edb0       ?Get@GameMovement@sdk@csgo@aw@@SAPAV1234@XZ 1002fdb0 f i autothrow.obj
 0001:0002edc0       ?GetId@?$TypedObject@VAutoThrow@mod@csgo@aw@@VModuleBase@4@@aw@@UAEIXZ 1002fdc0 f i autothrow.obj
 0001:0002edd0       ?OnBounce@TraceGrenade@mod@csgo@aw@@UAEXABVVector3@4@0@Z 1002fdd0 f i autothrow.obj
 0001:0002ede0       ?OnExplode@TraceGrenade@mod@csgo@aw@@UAEXABVVector3@4@@Z 1002fde0 f i autothrow.obj
 0001:0002edf0       ?OnPostMove@AutoThrow@impl@mod@csgo@aw@@IAEXAAULocalPostMove@345@@Z 1002fdf0 f   autothrow.obj
 0001:0002f0c0       ?OnTravel@TraceGrenade@mod@csgo@aw@@UAEXABVVector3@4@0@Z 100300c0 f i autothrow.obj
 0001:0002f0d0       ??_E?$ModuleBaseImpl@VCustomGameState@mod@csgo@aw@@V?$TypedObject@VCustomGameState@mod@csgo@aw@@VModuleBase@4@@4@@aw@@UAEPAXI@Z 100300d0 f i customgamestate.obj
 0001:0002f0d0       ??_G?$ModuleBaseImpl@VCustomGameState@mod@csgo@aw@@V?$TypedObject@VCustomGameState@mod@csgo@aw@@VModuleBase@4@@4@@aw@@UAEPAXI@Z 100300d0 f i customgamestate.obj
 0001:0002f100       ??_ECustomGameState@impl@mod@csgo@aw@@UAEPAXI@Z 10030100 f i customgamestate.obj
 0001:0002f100       ??_GCustomGameState@impl@mod@csgo@aw@@UAEPAXI@Z 10030100 f i customgamestate.obj
 0001:0002f130       ?CreateModule@?$ModuleWithFactory@VCustomGameState@mod@csgo@aw@@@aw@@SAPAVCustomGameState@mod@csgo@2@XZ 10030130 f   customgamestate.obj
 0001:0002f270       ?GetId@?$TypedObject@VCustomGameState@mod@csgo@aw@@VModuleBase@4@@aw@@UAEIXZ 10030270 f i customgamestate.obj
 0001:0002f280       ?OnPreMove@CustomGameState@impl@mod@csgo@aw@@IAEXAAULocalPreMove@345@@Z 10030280 f   customgamestate.obj
 0001:0002f300       ?OnProcessPacket@CustomGameState@impl@mod@csgo@aw@@IAEXAAUProcessPacket@hk@45@@Z 10030300 f   customgamestate.obj
 0001:0002f340       ?OnRenderFrame@CustomGameState@impl@mod@csgo@aw@@IAEXAAURenderFrame@gfx@5@@Z 10030340 f   customgamestate.obj
 0001:0002f3b0       ?OnSendNetMsg@CustomGameState@impl@mod@csgo@aw@@IAEXAAUSendNetMsg@hk@45@@Z 100303b0 f   customgamestate.obj
 0001:0002f400       ??_ECrashHandlerPublic@aw@@UAEPAXI@Z 10030400 f i main.obj
 0001:0002f400       ??_GCrashHandlerPublic@aw@@UAEPAXI@Z 10030400 f i main.obj
 0001:0002f420       _aw_csgo_threadmain@4      10030420 f   main.obj
 0001:0002f430       ??$CreateModule@VAppearance@mod@csgo@aw@@@ModuleMgr@aw@@QAEPAVAppearance@mod@csgo@1@XZ 10030430 f i modules.obj
 0001:0002f440       ??$CreateModule@VAutoStrafer@mod@csgo@aw@@@ModuleMgr@aw@@QAEPAVAutoStrafer@mod@csgo@1@XZ 10030440 f i modules.obj
 0001:0002f450       ??$CreateModule@VAutoThrow@mod@csgo@aw@@@ModuleMgr@aw@@QAEPAVAutoThrow@mod@csgo@1@XZ 10030450 f i modules.obj
 0001:0002f460       ??$CreateModule@VCamera@mod@csgo@aw@@@ModuleMgr@aw@@QAEPAVCamera@mod@csgo@1@XZ 10030460 f i modules.obj
 0001:0002f470       ??$CreateModule@VCheatSecurity@mod@csgo@aw@@@ModuleMgr@aw@@QAEPAVCheatSecurity@mod@csgo@1@XZ 10030470 f i modules.obj
 0001:0002f480       ??$CreateModule@VClientServerNetInfo@mod@csgo@aw@@@ModuleMgr@aw@@QAEPAVClientServerNetInfo@mod@csgo@1@XZ 10030480 f i modules.obj
 0001:0002f490       ??$CreateModule@VCrosshair@mod@csgo@aw@@@ModuleMgr@aw@@QAEPAVCrosshair@mod@csgo@1@XZ 10030490 f i modules.obj
 0001:0002f4a0       ??$CreateModule@VCustomGameState@mod@csgo@aw@@@ModuleMgr@aw@@QAEPAVCustomGameState@mod@csgo@1@XZ 100304a0 f i modules.obj
 0001:0002f4b0       ??$CreateModule@VEffectRemoval@mod@csgo@aw@@@ModuleMgr@aw@@QAEPAVEffectRemoval@mod@csgo@1@XZ 100304b0 f i modules.obj
 0001:0002f4c0       ??$CreateModule@VEntityExtender@mod@csgo@aw@@@ModuleMgr@aw@@QAEPAVEntityExtender@mod@csgo@1@XZ 100304c0 f i modules.obj
 0001:0002f4d0       ??$CreateModule@VEspBulletTracer@mod@csgo@aw@@@ModuleMgr@aw@@QAEPAVEspBulletTracer@mod@csgo@1@XZ 100304d0 f i modules.obj
 0001:0002f4e0       ??$CreateModule@VEspDamageIndicator@mod@csgo@aw@@@ModuleMgr@aw@@QAEPAVEspDamageIndicator@mod@csgo@1@XZ 100304e0 f i modules.obj
 0001:0002f4f0       ??$CreateModule@VEspDrawHelper@mod@csgo@aw@@@ModuleMgr@aw@@QAEPAVEspDrawHelper@mod@csgo@1@XZ 100304f0 f i modules.obj
 0001:0002f500       ??$CreateModule@VEspGrenadeOverlay@mod@csgo@aw@@@ModuleMgr@aw@@QAEPAVEspGrenadeOverlay@mod@csgo@1@XZ 10030500 f i modules.obj
 0001:0002f510       ??$CreateModule@VEspInferno@mod@csgo@aw@@@ModuleMgr@aw@@QAEPAVEspInferno@mod@csgo@1@XZ 10030510 f i modules.obj
 0001:0002f520       ??$CreateModule@VEspOverlay@mod@csgo@aw@@@ModuleMgr@aw@@QAEPAVEspOverlay@mod@csgo@1@XZ 10030520 f i modules.obj
 0001:0002f530       ??$CreateModule@VEspSound@mod@csgo@aw@@@ModuleMgr@aw@@QAEPAVEspSound@mod@csgo@1@XZ 10030530 f i modules.obj
 0001:0002f540       ??$CreateModule@VEspWallbang@mod@csgo@aw@@@ModuleMgr@aw@@QAEPAVEspWallbang@mod@csgo@1@XZ 10030540 f i modules.obj
 0001:0002f550       ??$CreateModule@VEventLog@mod@csgo@aw@@@ModuleMgr@aw@@QAEPAVEventLog@mod@csgo@1@XZ 10030550 f i modules.obj
 0001:0002f560       ??$CreateModule@VFakeLag@mod@csgo@aw@@@ModuleMgr@aw@@QAEPAVFakeLag@mod@csgo@1@XZ 10030560 f i modules.obj
 0001:0002f570       ??$CreateModule@VFakeLatency@mod@csgo@aw@@@ModuleMgr@aw@@QAEPAVFakeLatency@mod@csgo@1@XZ 10030570 f i modules.obj
 0001:0002f580       ??$CreateModule@VGameMaterials@mod@csgo@aw@@@ModuleMgr@aw@@QAEPAVGameMaterials@mod@csgo@1@XZ 10030580 f i modules.obj
 0001:0002f590       ??$CreateModule@VGameSceneRenderer@mod@csgo@aw@@@ModuleMgr@aw@@QAEPAVGameSceneRenderer@mod@csgo@1@XZ 10030590 f i modules.obj
 0001:0002f5b0       ??$CreateModule@VGameVisuals@mod@csgo@aw@@@ModuleMgr@aw@@QAEPAVGameVisuals@mod@csgo@1@XZ 100305b0 f i modules.obj
 0001:0002f5c0       ??$CreateModule@VHitmarker@mod@csgo@aw@@@ModuleMgr@aw@@QAEPAVHitmarker@mod@csgo@1@XZ 100305c0 f i modules.obj
 0001:0002f5d0       ??$CreateModule@VLegitAimbot@mod@csgo@aw@@@ModuleMgr@aw@@QAEPAVLegitAimbot@mod@csgo@1@XZ 100305d0 f i modules.obj
 0001:0002f5e0       ??$CreateModule@VLocalMovement@mod@csgo@aw@@@ModuleMgr@aw@@QAEPAVLocalMovement@mod@csgo@1@XZ 100305e0 f i modules.obj
 0001:0002f5f0       ??$CreateModule@VLocalPlayer@mod@csgo@aw@@@ModuleMgr@aw@@QAEPAVLocalPlayer@mod@csgo@1@XZ 100305f0 f i modules.obj
 0001:0002f600       ??$CreateModule@VLocalWeapon@mod@csgo@aw@@@ModuleMgr@aw@@QAEPAVLocalWeapon@mod@csgo@1@XZ 10030600 f i modules.obj
 0001:0002f610       ??$CreateModule@VMapEntityBreakables@mod@csgo@aw@@@ModuleMgr@aw@@QAEPAVMapEntityBreakables@mod@csgo@1@XZ 10030610 f i modules.obj
 0001:0002f620       ??$CreateModule@VModelChams@mod@csgo@aw@@@ModuleMgr@aw@@QAEPAVModelChams@mod@csgo@1@XZ 10030620 f i modules.obj
 0001:0002f630       ??$CreateModule@VNetworkSharedInfo@mod@csgo@aw@@@ModuleMgr@aw@@QAEPAVNetworkSharedInfo@mod@csgo@1@XZ 10030630 f i modules.obj
 0001:0002f640       ??$CreateModule@VOverwatchRevealer@mod@csgo@aw@@@ModuleMgr@aw@@QAEPAVOverwatchRevealer@mod@csgo@1@XZ 10030640 f i modules.obj
 0001:0002f650       ??$CreateModule@VPlayerOverride@skinchanger@mod@csgo@aw@@@ModuleMgr@aw@@QAEPAVPlayerOverride@skinchanger@mod@csgo@1@XZ 10030650 f i modules.obj
 0001:0002f660       ??$CreateModule@VPredictionState@mod@csgo@aw@@@ModuleMgr@aw@@QAEPAVPredictionState@mod@csgo@1@XZ 10030660 f i modules.obj
 0001:0002f670       ??$CreateModule@VPreserveKillfeed@mod@csgo@aw@@@ModuleMgr@aw@@QAEPAVPreserveKillfeed@mod@csgo@1@XZ 10030670 f i modules.obj
 0001:0002f680       ??$CreateModule@VRageAimbot@mod@csgo@aw@@@ModuleMgr@aw@@QAEPAVRageAimbot@mod@csgo@1@XZ 10030680 f i modules.obj
 0001:0002f690       ??$CreateModule@VRageAntiAim@mod@csgo@aw@@@ModuleMgr@aw@@QAEPAVRageAntiAim@mod@csgo@1@XZ 10030690 f i modules.obj
 0001:0002f6a0       ??$CreateModule@VReplicatedGameState@mod@csgo@aw@@@ModuleMgr@aw@@QAEPAVReplicatedGameState@mod@csgo@1@XZ 100306a0 f i modules.obj
 0001:0002f6b0       ??$CreateModule@VServerState@mod@csgo@aw@@@ModuleMgr@aw@@QAEPAVServerState@mod@csgo@1@XZ 100306b0 f i modules.obj
 0001:0002f6c0       ??$CreateModule@VShotAnalysis@mod@csgo@aw@@@ModuleMgr@aw@@QAEPAVShotAnalysis@mod@csgo@1@XZ 100306c0 f i modules.obj
 0001:0002f6d0       ??$CreateModule@VSkinChanger@mod@csgo@aw@@@ModuleMgr@aw@@QAEPAVSkinChanger@mod@csgo@1@XZ 100306d0 f i modules.obj
 0001:0002f6e0       ??$CreateModule@VWeaponIconAtlas@mod@csgo@aw@@@ModuleMgr@aw@@QAEPAVWeaponIconAtlas@mod@csgo@1@XZ 100306e0 f i modules.obj
 0001:0002f6f0       ??$CreateModule@VWeaponOverride@skinchanger@mod@csgo@aw@@@ModuleMgr@aw@@QAEPAVWeaponOverride@skinchanger@mod@csgo@1@XZ 100306f0 f i modules.obj
 0001:0002f700       ??$CreateModule@VWearableOverride@skinchanger@mod@csgo@aw@@@ModuleMgr@aw@@QAEPAVWearableOverride@skinchanger@mod@csgo@1@XZ 10030700 f i modules.obj
 0001:0002f710       ??$FindModule@VAppearance@mod@csgo@aw@@@ModuleMgr@aw@@QAEPAVAppearance@mod@csgo@1@_N@Z 10030710 f i modules.obj
 0001:0002f7e0       ??$FindModule@VAutoStrafer@mod@csgo@aw@@@ModuleMgr@aw@@QAEPAVAutoStrafer@mod@csgo@1@_N@Z 100307e0 f i modules.obj
 0001:0002f8b0       ??$FindModule@VAutoThrow@mod@csgo@aw@@@ModuleMgr@aw@@QAEPAVAutoThrow@mod@csgo@1@_N@Z 100308b0 f i modules.obj
 0001:0002f980       ??$FindModule@VCamera@mod@csgo@aw@@@ModuleMgr@aw@@QAEPAVCamera@mod@csgo@1@_N@Z 10030980 f i modules.obj
 0001:0002fa50       ??$FindModule@VCheatSecurity@mod@csgo@aw@@@ModuleMgr@aw@@QAEPAVCheatSecurity@mod@csgo@1@_N@Z 10030a50 f i modules.obj
 0001:0002fb20       ??$FindModule@VClientServerNetInfo@mod@csgo@aw@@@ModuleMgr@aw@@QAEPAVClientServerNetInfo@mod@csgo@1@_N@Z 10030b20 f i modules.obj
 0001:0002fbf0       ??$FindModule@VCrosshair@mod@csgo@aw@@@ModuleMgr@aw@@QAEPAVCrosshair@mod@csgo@1@_N@Z 10030bf0 f i modules.obj
 0001:0002fcc0       ??$FindModule@VCustomGameState@mod@csgo@aw@@@ModuleMgr@aw@@QAEPAVCustomGameState@mod@csgo@1@_N@Z 10030cc0 f i modules.obj
 0001:0002fd90       ??$FindModule@VEffectRemoval@mod@csgo@aw@@@ModuleMgr@aw@@QAEPAVEffectRemoval@mod@csgo@1@_N@Z 10030d90 f i modules.obj
 0001:0002fe60       ??$FindModule@VEntityExtender@mod@csgo@aw@@@ModuleMgr@aw@@QAEPAVEntityExtender@mod@csgo@1@_N@Z 10030e60 f i modules.obj
 0001:0002ff30       ??$FindModule@VEspBulletTracer@mod@csgo@aw@@@ModuleMgr@aw@@QAEPAVEspBulletTracer@mod@csgo@1@_N@Z 10030f30 f i modules.obj
 0001:00030000       ??$FindModule@VEspDamageIndicator@mod@csgo@aw@@@ModuleMgr@aw@@QAEPAVEspDamageIndicator@mod@csgo@1@_N@Z 10031000 f i modules.obj
 0001:000300d0       ??$FindModule@VEspDrawHelper@mod@csgo@aw@@@ModuleMgr@aw@@QAEPAVEspDrawHelper@mod@csgo@1@_N@Z 100310d0 f i modules.obj
 0001:000301a0       ??$FindModule@VEspGrenadeOverlay@mod@csgo@aw@@@ModuleMgr@aw@@QAEPAVEspGrenadeOverlay@mod@csgo@1@_N@Z 100311a0 f i modules.obj
 0001:00030270       ??$FindModule@VEspInferno@mod@csgo@aw@@@ModuleMgr@aw@@QAEPAVEspInferno@mod@csgo@1@_N@Z 10031270 f i modules.obj
 0001:00030340       ??$FindModule@VEspOverlay@mod@csgo@aw@@@ModuleMgr@aw@@QAEPAVEspOverlay@mod@csgo@1@_N@Z 10031340 f i modules.obj
 0001:00030410       ??$FindModule@VEspSound@mod@csgo@aw@@@ModuleMgr@aw@@QAEPAVEspSound@mod@csgo@1@_N@Z 10031410 f i modules.obj
 0001:000304e0       ??$FindModule@VEspWallbang@mod@csgo@aw@@@ModuleMgr@aw@@QAEPAVEspWallbang@mod@csgo@1@_N@Z 100314e0 f i modules.obj
 0001:000305b0       ??$FindModule@VEventLog@mod@csgo@aw@@@ModuleMgr@aw@@QAEPAVEventLog@mod@csgo@1@_N@Z 100315b0 f i modules.obj
 0001:00030680       ??$FindModule@VFakeLag@mod@csgo@aw@@@ModuleMgr@aw@@QAEPAVFakeLag@mod@csgo@1@_N@Z 10031680 f i modules.obj
 0001:00030750       ??$FindModule@VFakeLatency@mod@csgo@aw@@@ModuleMgr@aw@@QAEPAVFakeLatency@mod@csgo@1@_N@Z 10031750 f i modules.obj
 0001:00030820       ??$FindModule@VGameMaterials@mod@csgo@aw@@@ModuleMgr@aw@@QAEPAVGameMaterials@mod@csgo@1@_N@Z 10031820 f i modules.obj
 0001:000308f0       ??$FindModule@VGameSceneRenderer@mod@csgo@aw@@@ModuleMgr@aw@@QAEPAVGameSceneRenderer@mod@csgo@1@_N@Z 100318f0 f i modules.obj
 0001:000309c0       ??$FindModule@VGameVisuals@mod@csgo@aw@@@ModuleMgr@aw@@QAEPAVGameVisuals@mod@csgo@1@_N@Z 100319c0 f i modules.obj
 0001:00030a90       ??$FindModule@VHitmarker@mod@csgo@aw@@@ModuleMgr@aw@@QAEPAVHitmarker@mod@csgo@1@_N@Z 10031a90 f i modules.obj
 0001:00030b60       ??$FindModule@VLegitAimbot@mod@csgo@aw@@@ModuleMgr@aw@@QAEPAVLegitAimbot@mod@csgo@1@_N@Z 10031b60 f i modules.obj
 0001:00030c30       ??$FindModule@VLocalMovement@mod@csgo@aw@@@ModuleMgr@aw@@QAEPAVLocalMovement@mod@csgo@1@_N@Z 10031c30 f i modules.obj
 0001:00030d00       ??$FindModule@VLocalPlayer@mod@csgo@aw@@@ModuleMgr@aw@@QAEPAVLocalPlayer@mod@csgo@1@_N@Z 10031d00 f i modules.obj
 0001:00030dd0       ??$FindModule@VLocalWeapon@mod@csgo@aw@@@ModuleMgr@aw@@QAEPAVLocalWeapon@mod@csgo@1@_N@Z 10031dd0 f i modules.obj
 0001:00030ea0       ??$FindModule@VMapEntityBreakables@mod@csgo@aw@@@ModuleMgr@aw@@QAEPAVMapEntityBreakables@mod@csgo@1@_N@Z 10031ea0 f i modules.obj
 0001:00030f70       ??$FindModule@VModelChams@mod@csgo@aw@@@ModuleMgr@aw@@QAEPAVModelChams@mod@csgo@1@_N@Z 10031f70 f i modules.obj
 0001:00031040       ??$FindModule@VNetworkSharedInfo@mod@csgo@aw@@@ModuleMgr@aw@@QAEPAVNetworkSharedInfo@mod@csgo@1@_N@Z 10032040 f i modules.obj
 0001:00031110       ??$FindModule@VOverwatchRevealer@mod@csgo@aw@@@ModuleMgr@aw@@QAEPAVOverwatchRevealer@mod@csgo@1@_N@Z 10032110 f i modules.obj
 0001:000311e0       ??$FindModule@VPlayerOverride@skinchanger@mod@csgo@aw@@@ModuleMgr@aw@@QAEPAVPlayerOverride@skinchanger@mod@csgo@1@_N@Z 100321e0 f i modules.obj
 0001:000312b0       ??$FindModule@VPredictionState@mod@csgo@aw@@@ModuleMgr@aw@@QAEPAVPredictionState@mod@csgo@1@_N@Z 100322b0 f i modules.obj
 0001:00031380       ??$FindModule@VPreserveKillfeed@mod@csgo@aw@@@ModuleMgr@aw@@QAEPAVPreserveKillfeed@mod@csgo@1@_N@Z 10032380 f i modules.obj
 0001:00031450       ??$FindModule@VRageAimbot@mod@csgo@aw@@@ModuleMgr@aw@@QAEPAVRageAimbot@mod@csgo@1@_N@Z 10032450 f i modules.obj
 0001:00031520       ??$FindModule@VRageAntiAim@mod@csgo@aw@@@ModuleMgr@aw@@QAEPAVRageAntiAim@mod@csgo@1@_N@Z 10032520 f i modules.obj
 0001:000315f0       ??$FindModule@VReplicatedGameState@mod@csgo@aw@@@ModuleMgr@aw@@QAEPAVReplicatedGameState@mod@csgo@1@_N@Z 100325f0 f i modules.obj
 0001:000316c0       ??$FindModule@VServerState@mod@csgo@aw@@@ModuleMgr@aw@@QAEPAVServerState@mod@csgo@1@_N@Z 100326c0 f i modules.obj
 0001:00031790       ??$FindModule@VShotAnalysis@mod@csgo@aw@@@ModuleMgr@aw@@QAEPAVShotAnalysis@mod@csgo@1@_N@Z 10032790 f i modules.obj
 0001:00031860       ??$FindModule@VSkinChanger@mod@csgo@aw@@@ModuleMgr@aw@@QAEPAVSkinChanger@mod@csgo@1@_N@Z 10032860 f i modules.obj
 0001:00031930       ??$FindModule@VWeaponIconAtlas@mod@csgo@aw@@@ModuleMgr@aw@@QAEPAVWeaponIconAtlas@mod@csgo@1@_N@Z 10032930 f i modules.obj
 0001:00031a00       ??$FindModule@VWeaponOverride@skinchanger@mod@csgo@aw@@@ModuleMgr@aw@@QAEPAVWeaponOverride@skinchanger@mod@csgo@1@_N@Z 10032a00 f i modules.obj
 0001:00031ad0       ??$FindModule@VWearableOverride@skinchanger@mod@csgo@aw@@@ModuleMgr@aw@@QAEPAVWearableOverride@skinchanger@mod@csgo@1@_N@Z 10032ad0 f i modules.obj
 0001:00031ba0       ??$FindOrCreateModule@VAppearance@mod@csgo@aw@@@ModuleMgr@aw@@QAEPAVAppearance@mod@csgo@1@XZ 10032ba0 f i modules.obj
 0001:00031bc0       ??$FindOrCreateModule@VAutoStrafer@mod@csgo@aw@@@ModuleMgr@aw@@QAEPAVAutoStrafer@mod@csgo@1@XZ 10032bc0 f i modules.obj
 0001:00031be0       ??$FindOrCreateModule@VAutoThrow@mod@csgo@aw@@@ModuleMgr@aw@@QAEPAVAutoThrow@mod@csgo@1@XZ 10032be0 f i modules.obj
 0001:00031c00       ??$FindOrCreateModule@VCamera@mod@csgo@aw@@@ModuleMgr@aw@@QAEPAVCamera@mod@csgo@1@XZ 10032c00 f i modules.obj
 0001:00031c20       ??$FindOrCreateModule@VCheatSecurity@mod@csgo@aw@@@ModuleMgr@aw@@QAEPAVCheatSecurity@mod@csgo@1@XZ 10032c20 f i modules.obj
 0001:00031c40       ??$FindOrCreateModule@VClientServerNetInfo@mod@csgo@aw@@@ModuleMgr@aw@@QAEPAVClientServerNetInfo@mod@csgo@1@XZ 10032c40 f i modules.obj
 0001:00031c60       ??$FindOrCreateModule@VCrosshair@mod@csgo@aw@@@ModuleMgr@aw@@QAEPAVCrosshair@mod@csgo@1@XZ 10032c60 f i modules.obj
 0001:00031c80       ??$FindOrCreateModule@VCustomGameState@mod@csgo@aw@@@ModuleMgr@aw@@QAEPAVCustomGameState@mod@csgo@1@XZ 10032c80 f i modules.obj
 0001:00031ca0       ??$FindOrCreateModule@VEffectRemoval@mod@csgo@aw@@@ModuleMgr@aw@@QAEPAVEffectRemoval@mod@csgo@1@XZ 10032ca0 f i modules.obj
 0001:00031cc0       ??$FindOrCreateModule@VEntityExtender@mod@csgo@aw@@@ModuleMgr@aw@@QAEPAVEntityExtender@mod@csgo@1@XZ 10032cc0 f i modules.obj
 0001:00031ce0       ??$FindOrCreateModule@VEspBulletTracer@mod@csgo@aw@@@ModuleMgr@aw@@QAEPAVEspBulletTracer@mod@csgo@1@XZ 10032ce0 f i modules.obj
 0001:00031d00       ??$FindOrCreateModule@VEspDamageIndicator@mod@csgo@aw@@@ModuleMgr@aw@@QAEPAVEspDamageIndicator@mod@csgo@1@XZ 10032d00 f i modules.obj
 0001:00031d20       ??$FindOrCreateModule@VEspDrawHelper@mod@csgo@aw@@@ModuleMgr@aw@@QAEPAVEspDrawHelper@mod@csgo@1@XZ 10032d20 f i modules.obj
 0001:00031d40       ??$FindOrCreateModule@VEspGrenadeOverlay@mod@csgo@aw@@@ModuleMgr@aw@@QAEPAVEspGrenadeOverlay@mod@csgo@1@XZ 10032d40 f i modules.obj
 0001:00031d60       ??$FindOrCreateModule@VEspInferno@mod@csgo@aw@@@ModuleMgr@aw@@QAEPAVEspInferno@mod@csgo@1@XZ 10032d60 f i modules.obj
 0001:00031d80       ??$FindOrCreateModule@VEspOverlay@mod@csgo@aw@@@ModuleMgr@aw@@QAEPAVEspOverlay@mod@csgo@1@XZ 10032d80 f i modules.obj
 0001:00031da0       ??$FindOrCreateModule@VEspSound@mod@csgo@aw@@@ModuleMgr@aw@@QAEPAVEspSound@mod@csgo@1@XZ 10032da0 f i modules.obj
 0001:00031dc0       ??$FindOrCreateModule@VEspWallbang@mod@csgo@aw@@@ModuleMgr@aw@@QAEPAVEspWallbang@mod@csgo@1@XZ 10032dc0 f i modules.obj
 0001:00031de0       ??$FindOrCreateModule@VEventLog@mod@csgo@aw@@@ModuleMgr@aw@@QAEPAVEventLog@mod@csgo@1@XZ 10032de0 f i modules.obj
 0001:00031e00       ??$FindOrCreateModule@VFakeLag@mod@csgo@aw@@@ModuleMgr@aw@@QAEPAVFakeLag@mod@csgo@1@XZ 10032e00 f i modules.obj
 0001:00031e20       ??$FindOrCreateModule@VFakeLatency@mod@csgo@aw@@@ModuleMgr@aw@@QAEPAVFakeLatency@mod@csgo@1@XZ 10032e20 f i modules.obj
 0001:00031e40       ??$FindOrCreateModule@VGameMaterials@mod@csgo@aw@@@ModuleMgr@aw@@QAEPAVGameMaterials@mod@csgo@1@XZ 10032e40 f i modules.obj
 0001:00031e60       ??$FindOrCreateModule@VGameSceneRenderer@mod@csgo@aw@@@ModuleMgr@aw@@QAEPAVGameSceneRenderer@mod@csgo@1@XZ 10032e60 f i modules.obj
 0001:00031e80       ??$FindOrCreateModule@VGameVisuals@mod@csgo@aw@@@ModuleMgr@aw@@QAEPAVGameVisuals@mod@csgo@1@XZ 10032e80 f i modules.obj
 0001:00031ea0       ??$FindOrCreateModule@VHitmarker@mod@csgo@aw@@@ModuleMgr@aw@@QAEPAVHitmarker@mod@csgo@1@XZ 10032ea0 f i modules.obj
 0001:00031ec0       ??$FindOrCreateModule@VLegitAimbot@mod@csgo@aw@@@ModuleMgr@aw@@QAEPAVLegitAimbot@mod@csgo@1@XZ 10032ec0 f i modules.obj
 0001:00031ee0       ??$FindOrCreateModule@VLocalMovement@mod@csgo@aw@@@ModuleMgr@aw@@QAEPAVLocalMovement@mod@csgo@1@XZ 10032ee0 f i modules.obj
 0001:00031f00       ??$FindOrCreateModule@VLocalPlayer@mod@csgo@aw@@@ModuleMgr@aw@@QAEPAVLocalPlayer@mod@csgo@1@XZ 10032f00 f i modules.obj
 0001:00031f20       ??$FindOrCreateModule@VLocalWeapon@mod@csgo@aw@@@ModuleMgr@aw@@QAEPAVLocalWeapon@mod@csgo@1@XZ 10032f20 f i modules.obj
 0001:00031f40       ??$FindOrCreateModule@VMapEntityBreakables@mod@csgo@aw@@@ModuleMgr@aw@@QAEPAVMapEntityBreakables@mod@csgo@1@XZ 10032f40 f i modules.obj
 0001:00031f60       ??$FindOrCreateModule@VModelChams@mod@csgo@aw@@@ModuleMgr@aw@@QAEPAVModelChams@mod@csgo@1@XZ 10032f60 f i modules.obj
 0001:00031f80       ??$FindOrCreateModule@VNetworkSharedInfo@mod@csgo@aw@@@ModuleMgr@aw@@QAEPAVNetworkSharedInfo@mod@csgo@1@XZ 10032f80 f i modules.obj
 0001:00031fa0       ??$FindOrCreateModule@VOverwatchRevealer@mod@csgo@aw@@@ModuleMgr@aw@@QAEPAVOverwatchRevealer@mod@csgo@1@XZ 10032fa0 f i modules.obj
 0001:00031fc0       ??$FindOrCreateModule@VPlayerOverride@skinchanger@mod@csgo@aw@@@ModuleMgr@aw@@QAEPAVPlayerOverride@skinchanger@mod@csgo@1@XZ 10032fc0 f i modules.obj
 0001:00031fe0       ??$FindOrCreateModule@VPredictionState@mod@csgo@aw@@@ModuleMgr@aw@@QAEPAVPredictionState@mod@csgo@1@XZ 10032fe0 f i modules.obj
 0001:00032000       ??$FindOrCreateModule@VPreserveKillfeed@mod@csgo@aw@@@ModuleMgr@aw@@QAEPAVPreserveKillfeed@mod@csgo@1@XZ 10033000 f i modules.obj
 0001:00032020       ??$FindOrCreateModule@VRageAimbot@mod@csgo@aw@@@ModuleMgr@aw@@QAEPAVRageAimbot@mod@csgo@1@XZ 10033020 f i modules.obj
 0001:00032040       ??$FindOrCreateModule@VRageAntiAim@mod@csgo@aw@@@ModuleMgr@aw@@QAEPAVRageAntiAim@mod@csgo@1@XZ 10033040 f i modules.obj
 0001:00032060       ??$FindOrCreateModule@VReplicatedGameState@mod@csgo@aw@@@ModuleMgr@aw@@QAEPAVReplicatedGameState@mod@csgo@1@XZ 10033060 f i modules.obj
 0001:00032080       ??$FindOrCreateModule@VServerState@mod@csgo@aw@@@ModuleMgr@aw@@QAEPAVServerState@mod@csgo@1@XZ 10033080 f i modules.obj
 0001:000320a0       ??$FindOrCreateModule@VShotAnalysis@mod@csgo@aw@@@ModuleMgr@aw@@QAEPAVShotAnalysis@mod@csgo@1@XZ 100330a0 f i modules.obj
 0001:000320c0       ??$FindOrCreateModule@VSkinChanger@mod@csgo@aw@@@ModuleMgr@aw@@QAEPAVSkinChanger@mod@csgo@1@XZ 100330c0 f i modules.obj
 0001:000320e0       ??$FindOrCreateModule@VWeaponIconAtlas@mod@csgo@aw@@@ModuleMgr@aw@@QAEPAVWeaponIconAtlas@mod@csgo@1@XZ 100330e0 f i modules.obj
 0001:00032100       ??$FindOrCreateModule@VWeaponOverride@skinchanger@mod@csgo@aw@@@ModuleMgr@aw@@QAEPAVWeaponOverride@skinchanger@mod@csgo@1@XZ 10033100 f i modules.obj
 0001:00032120       ??$FindOrCreateModule@VWearableOverride@skinchanger@mod@csgo@aw@@@ModuleMgr@aw@@QAEPAVWearableOverride@skinchanger@mod@csgo@1@XZ 10033120 f i modules.obj
 0001:00032140       ??$RegisterModule@VAppearance@mod@csgo@aw@@@ModuleMgr@aw@@QAEPAVAppearance@mod@csgo@1@XZ 10033140 f i modules.obj
 0001:00032150       ??$RegisterModule@VAutoStrafer@mod@csgo@aw@@@ModuleMgr@aw@@QAEPAVAutoStrafer@mod@csgo@1@XZ 10033150 f i modules.obj
 0001:00032160       ??$RegisterModule@VAutoThrow@mod@csgo@aw@@@ModuleMgr@aw@@QAEPAVAutoThrow@mod@csgo@1@XZ 10033160 f i modules.obj
 0001:00032170       ??$RegisterModule@VCamera@mod@csgo@aw@@@ModuleMgr@aw@@QAEPAVCamera@mod@csgo@1@XZ 10033170 f i modules.obj
 0001:00032180       ??$RegisterModule@VCheatSecurity@mod@csgo@aw@@@ModuleMgr@aw@@QAEPAVCheatSecurity@mod@csgo@1@XZ 10033180 f i modules.obj
 0001:00032190       ??$RegisterModule@VClientServerNetInfo@mod@csgo@aw@@@ModuleMgr@aw@@QAEPAVClientServerNetInfo@mod@csgo@1@XZ 10033190 f i modules.obj
 0001:000321a0       ??$RegisterModule@VCrosshair@mod@csgo@aw@@@ModuleMgr@aw@@QAEPAVCrosshair@mod@csgo@1@XZ 100331a0 f i modules.obj
 0001:000321b0       ??$RegisterModule@VCustomGameState@mod@csgo@aw@@@ModuleMgr@aw@@QAEPAVCustomGameState@mod@csgo@1@XZ 100331b0 f i modules.obj
 0001:000321c0       ??$RegisterModule@VEffectRemoval@mod@csgo@aw@@@ModuleMgr@aw@@QAEPAVEffectRemoval@mod@csgo@1@XZ 100331c0 f i modules.obj
 0001:000321d0       ??$RegisterModule@VEntityExtender@mod@csgo@aw@@@ModuleMgr@aw@@QAEPAVEntityExtender@mod@csgo@1@XZ 100331d0 f i modules.obj
 0001:000321e0       ??$RegisterModule@VEspBulletTracer@mod@csgo@aw@@@ModuleMgr@aw@@QAEPAVEspBulletTracer@mod@csgo@1@XZ 100331e0 f i modules.obj
 0001:000321f0       ??$RegisterModule@VEspDamageIndicator@mod@csgo@aw@@@ModuleMgr@aw@@QAEPAVEspDamageIndicator@mod@csgo@1@XZ 100331f0 f i modules.obj
 0001:00032200       ??$RegisterModule@VEspDrawHelper@mod@csgo@aw@@@ModuleMgr@aw@@QAEPAVEspDrawHelper@mod@csgo@1@XZ 10033200 f i modules.obj
 0001:00032210       ??$RegisterModule@VEspGrenadeOverlay@mod@csgo@aw@@@ModuleMgr@aw@@QAEPAVEspGrenadeOverlay@mod@csgo@1@XZ 10033210 f i modules.obj
 0001:00032220       ??$RegisterModule@VEspInferno@mod@csgo@aw@@@ModuleMgr@aw@@QAEPAVEspInferno@mod@csgo@1@XZ 10033220 f i modules.obj
 0001:00032230       ??$RegisterModule@VEspOverlay@mod@csgo@aw@@@ModuleMgr@aw@@QAEPAVEspOverlay@mod@csgo@1@XZ 10033230 f i modules.obj
 0001:00032240       ??$RegisterModule@VEspSound@mod@csgo@aw@@@ModuleMgr@aw@@QAEPAVEspSound@mod@csgo@1@XZ 10033240 f i modules.obj
 0001:00032250       ??$RegisterModule@VEspWallbang@mod@csgo@aw@@@ModuleMgr@aw@@QAEPAVEspWallbang@mod@csgo@1@XZ 10033250 f i modules.obj
 0001:00032260       ??$RegisterModule@VEventLog@mod@csgo@aw@@@ModuleMgr@aw@@QAEPAVEventLog@mod@csgo@1@XZ 10033260 f i modules.obj
 0001:00032270       ??$RegisterModule@VFakeLag@mod@csgo@aw@@@ModuleMgr@aw@@QAEPAVFakeLag@mod@csgo@1@XZ 10033270 f i modules.obj
 0001:00032280       ??$RegisterModule@VFakeLatency@mod@csgo@aw@@@ModuleMgr@aw@@QAEPAVFakeLatency@mod@csgo@1@XZ 10033280 f i modules.obj
 0001:00032290       ??$RegisterModule@VGameMaterials@mod@csgo@aw@@@ModuleMgr@aw@@QAEPAVGameMaterials@mod@csgo@1@XZ 10033290 f i modules.obj
 0001:000322a0       ??$RegisterModule@VGameSceneRenderer@mod@csgo@aw@@@ModuleMgr@aw@@QAEPAVGameSceneRenderer@mod@csgo@1@XZ 100332a0 f i modules.obj
 0001:000322b0       ??$RegisterModule@VGameVisuals@mod@csgo@aw@@@ModuleMgr@aw@@QAEPAVGameVisuals@mod@csgo@1@XZ 100332b0 f i modules.obj
 0001:000322c0       ??$RegisterModule@VHitmarker@mod@csgo@aw@@@ModuleMgr@aw@@QAEPAVHitmarker@mod@csgo@1@XZ 100332c0 f i modules.obj
 0001:000322d0       ??$RegisterModule@VLegitAimbot@mod@csgo@aw@@@ModuleMgr@aw@@QAEPAVLegitAimbot@mod@csgo@1@XZ 100332d0 f i modules.obj
 0001:000322e0       ??$RegisterModule@VLocalMovement@mod@csgo@aw@@@ModuleMgr@aw@@QAEPAVLocalMovement@mod@csgo@1@XZ 100332e0 f i modules.obj
 0001:000322f0       ??$RegisterModule@VLocalPlayer@mod@csgo@aw@@@ModuleMgr@aw@@QAEPAVLocalPlayer@mod@csgo@1@XZ 100332f0 f i modules.obj
 0001:00032300       ??$RegisterModule@VLocalWeapon@mod@csgo@aw@@@ModuleMgr@aw@@QAEPAVLocalWeapon@mod@csgo@1@XZ 10033300 f i modules.obj
 0001:00032310       ??$RegisterModule@VMapEntityBreakables@mod@csgo@aw@@@ModuleMgr@aw@@QAEPAVMapEntityBreakables@mod@csgo@1@XZ 10033310 f i modules.obj
 0001:00032320       ??$RegisterModule@VModelChams@mod@csgo@aw@@@ModuleMgr@aw@@QAEPAVModelChams@mod@csgo@1@XZ 10033320 f i modules.obj
 0001:00032330       ??$RegisterModule@VNetworkSharedInfo@mod@csgo@aw@@@ModuleMgr@aw@@QAEPAVNetworkSharedInfo@mod@csgo@1@XZ 10033330 f i modules.obj
 0001:00032340       ??$RegisterModule@VOverwatchRevealer@mod@csgo@aw@@@ModuleMgr@aw@@QAEPAVOverwatchRevealer@mod@csgo@1@XZ 10033340 f i modules.obj
 0001:00032350       ??$RegisterModule@VPlayerOverride@skinchanger@mod@csgo@aw@@@ModuleMgr@aw@@QAEPAVPlayerOverride@skinchanger@mod@csgo@1@XZ 10033350 f i modules.obj
 0001:00032360       ??$RegisterModule@VPredictionState@mod@csgo@aw@@@ModuleMgr@aw@@QAEPAVPredictionState@mod@csgo@1@XZ 10033360 f i modules.obj
 0001:00032370       ??$RegisterModule@VPreserveKillfeed@mod@csgo@aw@@@ModuleMgr@aw@@QAEPAVPreserveKillfeed@mod@csgo@1@XZ 10033370 f i modules.obj
 0001:00032380       ??$RegisterModule@VRageAimbot@mod@csgo@aw@@@ModuleMgr@aw@@QAEPAVRageAimbot@mod@csgo@1@XZ 10033380 f i modules.obj
 0001:00032390       ??$RegisterModule@VRageAntiAim@mod@csgo@aw@@@ModuleMgr@aw@@QAEPAVRageAntiAim@mod@csgo@1@XZ 10033390 f i modules.obj
 0001:000323a0       ??$RegisterModule@VReplicatedGameState@mod@csgo@aw@@@ModuleMgr@aw@@QAEPAVReplicatedGameState@mod@csgo@1@XZ 100333a0 f i modules.obj
 0001:000323b0       ??$RegisterModule@VServerState@mod@csgo@aw@@@ModuleMgr@aw@@QAEPAVServerState@mod@csgo@1@XZ 100333b0 f i modules.obj
 0001:000323c0       ??$RegisterModule@VShotAnalysis@mod@csgo@aw@@@ModuleMgr@aw@@QAEPAVShotAnalysis@mod@csgo@1@XZ 100333c0 f i modules.obj
 0001:000323d0       ??$RegisterModule@VSkinChanger@mod@csgo@aw@@@ModuleMgr@aw@@QAEPAVSkinChanger@mod@csgo@1@XZ 100333d0 f i modules.obj
 0001:000323e0       ??$RegisterModule@VWeaponIconAtlas@mod@csgo@aw@@@ModuleMgr@aw@@QAEPAVWeaponIconAtlas@mod@csgo@1@XZ 100333e0 f i modules.obj
 0001:000323f0       ??$RegisterModule@VWeaponOverride@skinchanger@mod@csgo@aw@@@ModuleMgr@aw@@QAEPAVWeaponOverride@skinchanger@mod@csgo@1@XZ 100333f0 f i modules.obj
 0001:00032400       ??$RegisterModule@VWearableOverride@skinchanger@mod@csgo@aw@@@ModuleMgr@aw@@QAEPAVWearableOverride@skinchanger@mod@csgo@1@XZ 10033400 f i modules.obj
 0001:00032410       ??0ReplicatedMovement@mod@csgo@aw@@QAE@AAVVector3@3@000@Z 10033410 f   replicatedmovement.obj
 0001:00032520       ?PredictTick@ReplicatedMovement@mod@csgo@aw@@QAE_NMMABVEulerAngles@4@_N@Z 10033520 f   replicatedmovement.obj
 0001:00032c10       ??$_Find_last@V?$basic_string@DU?$char_traits@D@std@@V?$allocator@D@2@@std@@@?$_Hash@V?$_Uset_traits@V?$basic_string@DU?$char_traits@D@std@@V?$allocator@D@2@@std@@V?$_Uhash_compare@V?$basic_string@DU?$char_traits@D@std@@V?$allocator@D@2@@std@@U?$hash@V?$basic_string@DU?$char_traits@D@std@@V?$allocator@D@2@@std@@@2@U?$equal_to@V?$basic_string@DU?$char_traits@D@std@@V?$allocator@D@2@@std@@@2@@2@V?$allocator@V?$basic_string@DU?$char_traits@D@std@@V?$allocator@D@2@@std@@@2@$0A@@std@@@std@@IBE?AU?$_Hash_find_last_result@PAU?$_List_node@V?$basic_string@DU?$char_traits@D@std@@V?$allocator@D@2@@std@@PAX@std@@@1@ABV?$basic_string@DU?$char_traits@D@std@@V?$allocator@D@2@@1@I@Z 10033c10 f i mapentitybreakables.obj
 0001:00032cf0       ??$_Free_non_head@V?$allocator@U?$_List_node@V?$basic_string@DU?$char_traits@D@std@@V?$allocator@D@2@@std@@PAX@std@@@std@@@?$_List_node@V?$basic_string@DU?$char_traits@D@std@@V?$allocator@D@2@@std@@PAX@std@@SAXAAV?$allocator@U?$_List_node@V?$basic_string@DU?$char_traits@D@std@@V?$allocator@D@2@@std@@PAX@std@@@1@PAU01@@Z 10033cf0 f i mapentitybreakables.obj
 0001:00032d50       ??$emplace@ABV?$basic_string@DU?$char_traits@D@std@@V?$allocator@D@2@@std@@@?$_Hash@V?$_Uset_traits@V?$basic_string@DU?$char_traits@D@std@@V?$allocator@D@2@@std@@V?$_Uhash_compare@V?$basic_string@DU?$char_traits@D@std@@V?$allocator@D@2@@std@@U?$hash@V?$basic_string@DU?$char_traits@D@std@@V?$allocator@D@2@@std@@@2@U?$equal_to@V?$basic_string@DU?$char_traits@D@std@@V?$allocator@D@2@@std@@@2@@2@V?$allocator@V?$basic_string@DU?$char_traits@D@std@@V?$allocator@D@2@@std@@@2@$0A@@std@@@std@@QAE?AU?$pair@V?$_List_const_iterator@V?$_List_val@U?$_List_simple_types@V?$basic_string@DU?$char_traits@D@std@@V?$allocator@D@2@@std@@@std@@@std@@@std@@_N@1@ABV?$basic_string@DU?$char_traits@D@std@@V?$allocator@D@2@@1@@Z 10033d50 f i mapentitybreakables.obj
 0001:00032f10       ??$fill@PAV?$_List_unchecked_const_iterator@V?$_List_val@U?$_List_simple_types@V?$basic_string@DU?$char_traits@D@std@@V?$allocator@D@2@@std@@@std@@@std@@U_Iterator_base0@2@@std@@V12@@std@@YAXQAV?$_List_unchecked_const_iterator@V?$_List_val@U?$_List_simple_types@V?$basic_string@DU?$char_traits@D@std@@V?$allocator@D@2@@std@@@std@@@std@@U_Iterator_base0@2@@0@0ABV10@@Z 10033f10 f i mapentitybreakables.obj
 0001:00032f70       ??1?$_Hash@V?$_Uset_traits@V?$basic_string@DU?$char_traits@D@std@@V?$allocator@D@2@@std@@V?$_Uhash_compare@V?$basic_string@DU?$char_traits@D@std@@V?$allocator@D@2@@std@@U?$hash@V?$basic_string@DU?$char_traits@D@std@@V?$allocator@D@2@@std@@@2@U?$equal_to@V?$basic_string@DU?$char_traits@D@std@@V?$allocator@D@2@@std@@@2@@2@V?$allocator@V?$basic_string@DU?$char_traits@D@std@@V?$allocator@D@2@@std@@@2@$0A@@std@@@std@@QAE@XZ 10033f70 f i mapentitybreakables.obj
 0001:00032fd0       ??_E?$ModuleBaseImpl@VMapEntityBreakables@mod@csgo@aw@@V?$TypedObject@VMapEntityBreakables@mod@csgo@aw@@VModuleBase@4@@4@@aw@@UAEPAXI@Z 10033fd0 f i mapentitybreakables.obj
 0001:00032fd0       ??_G?$ModuleBaseImpl@VMapEntityBreakables@mod@csgo@aw@@V?$TypedObject@VMapEntityBreakables@mod@csgo@aw@@VModuleBase@4@@4@@aw@@UAEPAXI@Z 10033fd0 f i mapentitybreakables.obj
 0001:00033000       ??_EMapEntityBreakables@impl@mod@csgo@aw@@UAEPAXI@Z 10034000 f i mapentitybreakables.obj
 0001:00033000       ??_GMapEntityBreakables@impl@mod@csgo@aw@@UAEPAXI@Z 10034000 f i mapentitybreakables.obj
 0001:00033030       ?CreateModule@?$ModuleWithFactory@VMapEntityBreakables@mod@csgo@aw@@@aw@@SAPAVMapEntityBreakables@mod@csgo@2@XZ 10034030 f   mapentitybreakables.obj
 0001:000331a0       ?GetId@?$TypedObject@VMapEntityBreakables@mod@csgo@aw@@VModuleBase@4@@aw@@UAEIXZ 100341a0 f i mapentitybreakables.obj
 0001:000331b0       ?IsBreakable@MapEntityBreakables@impl@mod@csgo@aw@@UAE_NPAVBaseEntity@sdk@45@@Z 100341b0 f   mapentitybreakables.obj
 0001:00033340       ?OnHook@MapEntityBreakables@impl@mod@csgo@aw@@IAEXAAUCommonHook@5@@Z 10034340 f   mapentitybreakables.obj
 0001:00033350       ?OnLevelInit@MapEntityBreakables@impl@mod@csgo@aw@@IAEXAAULevelInit@hk@45@@Z 10034350 f   mapentitybreakables.obj
 0001:00033360       ?ParseEntity@MapEntityBreakables@impl@mod@csgo@aw@@IAEPBDPBD@Z 10034360 f   mapentitybreakables.obj
 0001:000338e0       ?ParseMapEntities@MapEntityBreakables@impl@mod@csgo@aw@@IAEXXZ 100348e0 f   mapentitybreakables.obj
 0001:00033960       ?_Assign_grow@?$_Hash_vec@V?$allocator@V?$_List_unchecked_const_iterator@V?$_List_val@U?$_List_simple_types@V?$basic_string@DU?$char_traits@D@std@@V?$allocator@D@2@@std@@@std@@@std@@U_Iterator_base0@2@@std@@@std@@@std@@QAEXIV?$_List_unchecked_const_iterator@V?$_List_val@U?$_List_simple_types@V?$basic_string@DU?$char_traits@D@std@@V?$allocator@D@2@@std@@@std@@@std@@U_Iterator_base0@2@@2@@Z 10034960 f i mapentitybreakables.obj
 0001:00033a30       ?_Forced_rehash@?$_Hash@V?$_Uset_traits@V?$basic_string@DU?$char_traits@D@std@@V?$allocator@D@2@@std@@V?$_Uhash_compare@V?$basic_string@DU?$char_traits@D@std@@V?$allocator@D@2@@std@@U?$hash@V?$basic_string@DU?$char_traits@D@std@@V?$allocator@D@2@@std@@@2@U?$equal_to@V?$basic_string@DU?$char_traits@D@std@@V?$allocator@D@2@@std@@@2@@2@V?$allocator@V?$basic_string@DU?$char_traits@D@std@@V?$allocator@D@2@@std@@@2@$0A@@std@@@std@@IAEXI@Z 10034a30 f i mapentitybreakables.obj
 0001:00033cb0       ?_Unchecked_erase@?$_Hash@V?$_Uset_traits@V?$basic_string@DU?$char_traits@D@std@@V?$allocator@D@2@@std@@V?$_Uhash_compare@V?$basic_string@DU?$char_traits@D@std@@V?$allocator@D@2@@std@@U?$hash@V?$basic_string@DU?$char_traits@D@std@@V?$allocator@D@2@@std@@@2@U?$equal_to@V?$basic_string@DU?$char_traits@D@std@@V?$allocator@D@2@@std@@@2@@2@V?$allocator@V?$basic_string@DU?$char_traits@D@std@@V?$allocator@D@2@@std@@@2@$0A@@std@@@std@@AAEPAU?$_List_node@V?$basic_string@DU?$char_traits@D@std@@V?$allocator@D@2@@std@@PAX@2@PAU32@QAU32@@Z 10034cb0 f i mapentitybreakables.obj
 0001:00033ed0       ?clear@?$_Hash@V?$_Uset_traits@V?$basic_string@DU?$char_traits@D@std@@V?$allocator@D@2@@std@@V?$_Uhash_compare@V?$basic_string@DU?$char_traits@D@std@@V?$allocator@D@2@@std@@U?$hash@V?$basic_string@DU?$char_traits@D@std@@V?$allocator@D@2@@std@@@2@U?$equal_to@V?$basic_string@DU?$char_traits@D@std@@V?$allocator@D@2@@std@@@2@@2@V?$allocator@V?$basic_string@DU?$char_traits@D@std@@V?$allocator@D@2@@std@@@2@$0A@@std@@@std@@QAEXXZ 10034ed0 f i mapentitybreakables.obj
 0001:00033f30       ??$?5UNetworkSharedPlayer@msg@aw@@$0EA@@msg@aw@@YAAAVBuffer@net@1@AAV231@AAV?$Vector@UNetworkSharedPlayer@msg@aw@@$0EA@@01@@Z 10034f30 f i networksharedinfo.obj
 0001:000340d0       ??$_Erase_tree@V?$allocator@U?$_Tree_node@U?$pair@$$CB_KH@std@@PAX@std@@@std@@@?$_Tree_val@U?$_Tree_simple_types@U?$pair@$$CB_KH@std@@@std@@@std@@QAEXAAV?$allocator@U?$_Tree_node@U?$pair@$$CB_KH@std@@PAX@std@@@1@PAU?$_Tree_node@U?$pair@$$CB_KH@std@@PAX@1@@Z 100350d0 f i networksharedinfo.obj
 0001:00034110       ??$_Uninitialized_value_construct_n@V?$allocator@UNetworkSharedPlayer@msg@aw@@@std@@@std@@YAPAUNetworkSharedPlayer@msg@aw@@PAU123@IAAV?$allocator@UNetworkSharedPlayer@msg@aw@@@0@@Z 10035110 f i networksharedinfo.obj
 0001:00034130       ??1?$_Tree@V?$_Tmap_traits@_KHU?$less@_K@std@@V?$allocator@U?$pair@$$CB_KH@std@@@2@$0A@@std@@@std@@QAE@XZ 10035130 f i networksharedinfo.obj
 0001:00034170       ??_E?$ModuleBaseImpl@VNetworkSharedInfo@mod@csgo@aw@@V?$TypedObject@VNetworkSharedInfo@mod@csgo@aw@@VModuleBase@4@@4@@aw@@UAEPAXI@Z 10035170 f i networksharedinfo.obj
 0001:00034170       ??_G?$ModuleBaseImpl@VNetworkSharedInfo@mod@csgo@aw@@V?$TypedObject@VNetworkSharedInfo@mod@csgo@aw@@VModuleBase@4@@4@@aw@@UAEPAXI@Z 10035170 f i networksharedinfo.obj
 0001:000341a0       ??_ENetworkSharedInfo@impl@mod@csgo@aw@@UAEPAXI@Z 100351a0 f i networksharedinfo.obj
 0001:000341a0       ??_GNetworkSharedInfo@impl@mod@csgo@aw@@UAEPAXI@Z 100351a0 f i networksharedinfo.obj
 0001:000341d0       ??_ESteamNetworkingSession@impl@mod@csgo@aw@@UAEPAXI@Z 100351d0 f i networksharedinfo.obj
 0001:000341d0       ??_GSteamNetworkingSession@impl@mod@csgo@aw@@UAEPAXI@Z 100351d0 f i networksharedinfo.obj
 0001:00034200       ?CreateModule@?$ModuleWithFactory@VNetworkSharedInfo@mod@csgo@aw@@@aw@@SAPAVNetworkSharedInfo@mod@csgo@2@XZ 10035200 f   networksharedinfo.obj
 0001:00034380       ?GetId@?$TypedObject@USteamNetworkingSession@impl@mod@csgo@aw@@UCallbackVars@5@@aw@@UAEIXZ 10035380 f i networksharedinfo.obj
 0001:00034390       ?GetId@?$TypedObject@VNetworkSharedInfo@mod@csgo@aw@@VModuleBase@4@@aw@@UAEIXZ 10035390 f i networksharedinfo.obj
 0001:000343a0       ?_Insert_node@?$_Tree_val@U?$_Tree_simple_types@U?$pair@$$CB_KH@std@@@std@@@std@@QAEPAU?$_Tree_node@U?$pair@$$CB_KH@std@@PAX@2@U?$_Tree_id@PAU?$_Tree_node@U?$pair@$$CB_KH@std@@PAX@std@@@2@QAU32@@Z 100353a0 f i networksharedinfo.obj
 0001:00034590       ?_Xlength@?$vector@UNetworkSharedPlayer@msg@aw@@V?$allocator@UNetworkSharedPlayer@msg@aw@@@std@@@std@@CAXXZ 10035590 f i networksharedinfo.obj
 0001:000345a0       ?allocate@?$allocator@UNetworkSharedPlayer@msg@aw@@@std@@QAEPAUNetworkSharedPlayer@msg@aw@@I@Z 100355a0 f i networksharedinfo.obj
 0001:00034600       ??$?4H@bigint@detail@v9@fmt@@QAEXH@Z 10035600 f i replicatedanimstate.obj
 0001:00034650       ??$?4Vuint128_fallback@detail@v9@fmt@@@bigint@detail@v9@fmt@@QAEXVuint128_fallback@123@@Z 10035650 f i replicatedanimstate.obj
 0001:000346d0       ??$?XH@bigint@detail@v9@fmt@@QAEAAV0123@H@Z 100356d0 f i replicatedanimstate.obj
 0001:00034750       ??$FormatStringBufferN@$0EA@PBD@aw@@YA?A_PAAY0EA@DV?$basic_format_string@DPBD@v9@fmt@@$$QAPBD@Z 10035750 f i replicatedanimstate.obj
 0001:000348a0       ??$_Assign_counted_range@PAVUtlSymbol@sdk@csgo@aw@@@?$vector@VUtlSymbol@sdk@csgo@aw@@V?$allocator@VUtlSymbol@sdk@csgo@aw@@@std@@@std@@AAEXPAVUtlSymbol@sdk@csgo@aw@@I@Z 100358a0 f i replicatedanimstate.obj
 0001:00034a10       ??$append@D@?$buffer@D@detail@v9@fmt@@QAEXPBD0@Z 10035a10 f i replicatedanimstate.obj
 0001:00034a70       ??$apply@Vappender@v9@fmt@@D@?$digit_grouping@D@detail@v9@fmt@@QBE?AVappender@23@V423@V?$basic_string_view@D@23@@Z 10035a70 f i replicatedanimstate.obj
 0001:00034c90       ??$do_parse_arg_id@DAAUprecision_adapter@?1???$parse_precision@DAAV?$specs_checker@V?$specs_handler@D@detail@v9@fmt@@@detail@v9@fmt@@@detail@v9@fmt@@YAPBDPBD0AAV?$specs_checker@V?$specs_handler@D@detail@v9@fmt@@@234@@Z@@detail@v9@fmt@@YAPBDPBD0AAUprecision_adapter@?1???$parse_precision@DAAV?$specs_checker@V?$specs_handler@D@detail@v9@fmt@@@detail@v9@fmt@@@012@YAPBD00AAV?$specs_checker@V?$specs_handler@D@detail@v9@fmt@@@012@@Z@@Z 10035c90 f i replicatedanimstate.obj
 0001:00034e40       ??$do_parse_arg_id@DAAUwidth_adapter@?1???$parse_width@DAAV?$specs_checker@V?$specs_handler@D@detail@v9@fmt@@@detail@v9@fmt@@@detail@v9@fmt@@YAPBDPBD0AAV?$specs_checker@V?$specs_handler@D@detail@v9@fmt@@@234@@Z@@detail@v9@fmt@@YAPBDPBD0AAUwidth_adapter@?1???$parse_width@DAAV?$specs_checker@V?$specs_handler@D@detail@v9@fmt@@@detail@v9@fmt@@@012@YAPBD00AAV?$specs_checker@V?$specs_handler@D@detail@v9@fmt@@@012@@Z@@Z 10035e40 f i replicatedanimstate.obj
 0001:00034ff0       ??$do_write_float@Vappender@v9@fmt@@U?$decimal_fp@M@dragonbox@detail@23@DV?$digit_grouping@D@623@@detail@v9@fmt@@YA?AVappender@12@V312@ABU?$decimal_fp@M@dragonbox@012@ABU?$basic_format_specs@D@12@Ufloat_specs@012@Vlocale_ref@012@@Z 10035ff0 f i replicatedanimstate.obj
 0001:00035540       ??$do_write_float@Vappender@v9@fmt@@U?$decimal_fp@N@dragonbox@detail@23@DV?$digit_grouping@D@623@@detail@v9@fmt@@YA?AVappender@12@V312@ABU?$decimal_fp@N@dragonbox@012@ABU?$basic_format_specs@D@12@Ufloat_specs@012@Vlocale_ref@012@@Z 10036540 f i replicatedanimstate.obj
 0001:00035ae0       ??$do_write_float@Vappender@v9@fmt@@Ubig_decimal_fp@detail@23@DV?$digit_grouping@D@523@@detail@v9@fmt@@YA?AVappender@12@V312@ABUbig_decimal_fp@012@ABU?$basic_format_specs@D@12@Ufloat_specs@012@Vlocale_ref@012@@Z 10036ae0 f i replicatedanimstate.obj
 0001:00036010       ??$fill@Vappender@v9@fmt@@D@detail@v9@fmt@@YA?AVappender@12@V312@IABU?$fill_t@D@012@@Z 10037010 f i replicatedanimstate.obj
 0001:00036070       ??$fill_n@Vappender@v9@fmt@@HD@detail@v9@fmt@@YA?AVappender@12@V312@HABD@Z 10037070 f i replicatedanimstate.obj
 0001:000360c0       ??$fill_n@Vappender@v9@fmt@@ID@detail@v9@fmt@@YA?AVappender@12@V312@IABD@Z 100370c0 f i replicatedanimstate.obj
 0001:00036110       ??$for_each_codepoint@Ucount_code_points@?1??compute_width@detail@v9@fmt@@YAIV?$basic_string_view@D@45@@Z@@detail@v9@fmt@@YAXV?$basic_string_view@D@12@Ucount_code_points@?1??compute_width@012@YAI0@Z@@Z 10037110 f i replicatedanimstate.obj
 0001:00036430       ??$format_decimal@DI@detail@v9@fmt@@YA?AU?$format_decimal_result@PAD@012@PADIH@Z 10037430 f i replicatedanimstate.obj
 0001:00036490       ??$format_decimal@D_K@detail@v9@fmt@@YA?AU?$format_decimal_result@PAD@012@PAD_KH@Z 10037490 f i replicatedanimstate.obj
 0001:000365b0       ??$format_float@N@detail@v9@fmt@@YAHNHUfloat_specs@012@AAV?$buffer@D@012@@Z 100375b0 f i replicatedanimstate.obj
 0001:00036a80       ??$format_uint@$03DVappender@v9@fmt@@I@detail@v9@fmt@@YA?AVappender@12@V312@IH_N@Z 10037a80 f i replicatedanimstate.obj
 0001:00036b40       ??$format_uint@$03D_K@detail@v9@fmt@@YAPADPAD_KH_N@Z 10037b40 f i replicatedanimstate.obj
 0001:00036b90       ??$get_dynamic_spec@Vprecision_checker@detail@v9@fmt@@V?$basic_format_arg@V?$basic_format_context@Vappender@v9@fmt@@D@v9@fmt@@@34@Uerror_handler@234@@detail@v9@fmt@@YAHV?$basic_format_arg@V?$basic_format_context@Vappender@v9@fmt@@D@v9@fmt@@@12@Uerror_handler@012@@Z 10037b90 f i replicatedanimstate.obj
 0001:00036c80       ??$get_dynamic_spec@Vwidth_checker@detail@v9@fmt@@V?$basic_format_arg@V?$basic_format_context@Vappender@v9@fmt@@D@v9@fmt@@@34@Uerror_handler@234@@detail@v9@fmt@@YAHV?$basic_format_arg@V?$basic_format_context@Vappender@v9@fmt@@D@v9@fmt@@@12@Uerror_handler@012@@Z 10037c80 f i replicatedanimstate.obj
 0001:00036d70       ??$get_id@D@?$basic_format_args@V?$basic_format_context@Vappender@v9@fmt@@D@v9@fmt@@@v9@fmt@@QBEHV?$basic_string_view@D@12@@Z 10037d70 f i replicatedanimstate.obj
 0001:00036e80       ??$multiply@Vuint128_fallback@detail@v9@fmt@@$0A@@bigint@detail@v9@fmt@@AAEXVuint128_fallback@123@@Z 10037e80 f i replicatedanimstate.obj
 0001:00037130       ??$parse_arg_id@DAAUid_adapter@?1???$parse_replacement_field@DAAUformat_handler@?1???$vformat_to@D@detail@v9@fmt@@YAXAAV?$buffer@D@234@V?$basic_string_view@D@34@V?$basic_format_args@V?$basic_format_context@Vappender@v9@fmt@@D@v9@fmt@@@34@Vlocale_ref@234@@Z@@detail@v9@fmt@@YAPBDPBD0AAUformat_handler@?1???$vformat_to@D@234@YAXAAV?$buffer@D@234@V?$basic_string_view@D@34@V?$basic_format_args@V?$basic_format_context@Vappender@v9@fmt@@D@v9@fmt@@@34@Vlocale_ref@234@@Z@@Z@@detail@v9@fmt@@YAPBDPBD0AAUid_adapter@?1???$parse_replacement_field@DAAUformat_handler@?1???$vformat_to@D@detail@v9@fmt@@YAXAAV?$buffer@D@234@V?$basic_string_view@D@34@V?$basic_format_args@V?$basic_format_context@Vappender@v9@fmt@@D@v9@fmt@@@34@Vlocale_ref@234@@Z@@012@YAPBD00AAUformat_handler@?1???$vformat_to@D@012@YAXAAV?$buffer@D@012@V?$basic_string_view@D@12@V?$basic_format_args@V?$basic_format_context@Vappender@v9@fmt@@D@v9@fmt@@@12@Vlocale_ref@012@@Z@@Z@@Z 10038130 f i replicatedanimstate.obj
 0001:00037280       ??$parse_float_type_spec@Uerror_handler@detail@v9@fmt@@D@detail@v9@fmt@@YA?AUfloat_specs@012@ABU?$basic_format_specs@D@12@$$QAUerror_handler@012@@Z 10038280 f i replicatedanimstate.obj
 0001:00037370       ??$parse_format_specs@DAAV?$specs_checker@V?$specs_handler@D@detail@v9@fmt@@@detail@v9@fmt@@@detail@v9@fmt@@YAPBDPBD0AAV?$specs_checker@V?$specs_handler@D@detail@v9@fmt@@@012@@Z 10038370 f i replicatedanimstate.obj
 0001:00037710       ??$parse_format_string@$0A@DUformat_handler@?1???$vformat_to@D@detail@v9@fmt@@YAXAAV?$buffer@D@234@V?$basic_string_view@D@34@V?$basic_format_args@V?$basic_format_context@Vappender@v9@fmt@@D@v9@fmt@@@34@Vlocale_ref@234@@Z@@detail@v9@fmt@@YAXV?$basic_string_view@D@12@$$QAUformat_handler@?1???$vformat_to@D@012@YAXAAV?$buffer@D@012@0V?$basic_format_args@V?$basic_format_context@Vappender@v9@fmt@@D@v9@fmt@@@12@Vlocale_ref@012@@Z@@Z 10038710 f i replicatedanimstate.obj
 0001:000378f0       ??$parse_nonnegative_int@D@detail@v9@fmt@@YAHAAPBDPBDH@Z 100388f0 f i replicatedanimstate.obj
 0001:00037970       ??$parse_precision@DAAV?$specs_checker@V?$specs_handler@D@detail@v9@fmt@@@detail@v9@fmt@@@detail@v9@fmt@@YAPBDPBD0AAV?$specs_checker@V?$specs_handler@D@detail@v9@fmt@@@012@@Z 10038970 f i replicatedanimstate.obj
 0001:00037ae0       ??$parse_presentation_type@D@detail@v9@fmt@@YA?AW4presentation_type@12@D@Z 10038ae0 f i replicatedanimstate.obj
 0001:00037bc0       ??$parse_replacement_field@DAAUformat_handler@?1???$vformat_to@D@detail@v9@fmt@@YAXAAV?$buffer@D@234@V?$basic_string_view@D@34@V?$basic_format_args@V?$basic_format_context@Vappender@v9@fmt@@D@v9@fmt@@@34@Vlocale_ref@234@@Z@@detail@v9@fmt@@YAPBDPBD0AAUformat_handler@?1???$vformat_to@D@012@YAXAAV?$buffer@D@012@V?$basic_string_view@D@12@V?$basic_format_args@V?$basic_format_context@Vappender@v9@fmt@@D@v9@fmt@@@12@Vlocale_ref@012@@Z@@Z 10038bc0 f i replicatedanimstate.obj
 0001:00037e30       ??$snprintf_float@N@detail@v9@fmt@@YAHNHUfloat_specs@012@AAV?$buffer@D@012@@Z 10038e30 f i replicatedanimstate.obj
 0001:00037f30       ??$vformat_to@D@detail@v9@fmt@@YAXAAV?$buffer@D@012@V?$basic_string_view@D@12@V?$basic_format_args@V?$basic_format_context@Vappender@v9@fmt@@D@v9@fmt@@@12@Vlocale_ref@012@@Z 10038f30 f i replicatedanimstate.obj
 0001:00037ff0       ??$visit_format_arg@AAU?$arg_formatter@D@detail@v9@fmt@@V?$basic_format_context@Vappender@v9@fmt@@D@34@@v9@fmt@@YA?AVappender@01@AAU?$arg_formatter@D@detail@01@ABV?$basic_format_arg@V?$basic_format_context@Vappender@v9@fmt@@D@v9@fmt@@@01@@Z 10038ff0 f i replicatedanimstate.obj
 0001:00038480       ??$visit_format_arg@U?$default_arg_formatter@D@detail@v9@fmt@@V?$basic_format_context@Vappender@v9@fmt@@D@34@@v9@fmt@@YA?AVappender@01@$$QAU?$default_arg_formatter@D@detail@01@ABV?$basic_format_arg@V?$basic_format_context@Vappender@v9@fmt@@D@v9@fmt@@@01@@Z 10039480 f i replicatedanimstate.obj
 0001:000389c0       ??$write@DVappender@v9@fmt@@@detail@v9@fmt@@YA?AVappender@12@V312@V?$basic_string_view@D@12@ABU?$basic_format_specs@D@12@@Z 100399c0 f i replicatedanimstate.obj
 0001:00038c60       ??$write@DVappender@v9@fmt@@H$0A@@detail@v9@fmt@@YA?AVappender@12@V312@HABU?$basic_format_specs@D@12@Vlocale_ref@012@@Z 10039c60 f i replicatedanimstate.obj
 0001:00038cc0       ??$write@DVappender@v9@fmt@@I$0A@@detail@v9@fmt@@YA?AVappender@12@V312@I@Z 10039cc0 f i replicatedanimstate.obj
 0001:00038d50       ??$write@DVappender@v9@fmt@@M$0A@@detail@v9@fmt@@YA?AVappender@12@V312@MU?$basic_format_specs@D@12@Vlocale_ref@012@@Z 10039d50 f i replicatedanimstate.obj
 0001:000390b0       ??$write@DVappender@v9@fmt@@N$0A@@detail@v9@fmt@@YA?AVappender@12@V312@NU?$basic_format_specs@D@12@Vlocale_ref@012@@Z 1003a0b0 f i replicatedanimstate.obj
 0001:00039410       ??$write@DVappender@v9@fmt@@O$0A@@detail@v9@fmt@@YA?AVappender@12@V312@OU?$basic_format_specs@D@12@Vlocale_ref@012@@Z 1003a410 f i replicatedanimstate.obj
 0001:00039770       ??$write@DVappender@v9@fmt@@_J$0A@@detail@v9@fmt@@YA?AVappender@12@V312@_J@Z 1003a770 f i replicatedanimstate.obj
 0001:00039890       ??$write@DVappender@v9@fmt@@_K$0A@@detail@v9@fmt@@YA?AVappender@12@V312@_K@Z 1003a890 f i replicatedanimstate.obj
 0001:00039950       ??$write@DVappender@v9@fmt@@_N$0A@@detail@v9@fmt@@YA?AVappender@12@V312@_NABU?$basic_format_specs@D@12@Vlocale_ref@012@@Z 1003a950 f i replicatedanimstate.obj
 0001:00039a30       ??$write_bytes@$01DVappender@v9@fmt@@@detail@v9@fmt@@YA?AVappender@12@V312@V?$basic_string_view@D@12@ABU?$basic_format_specs@D@12@@Z 1003aa30 f i replicatedanimstate.obj
 0001:00039ac0       ??$write_char@DVappender@v9@fmt@@@detail@v9@fmt@@YA?AVappender@12@V312@DABU?$basic_format_specs@D@12@@Z 1003aac0 f i replicatedanimstate.obj
 0001:00039b00       ??$write_codepoint@$01DVappender@v9@fmt@@@detail@v9@fmt@@YA?AVappender@12@V312@DI@Z 1003ab00 f i replicatedanimstate.obj
 0001:00039b90       ??$write_escaped_cp@Vappender@v9@fmt@@D@detail@v9@fmt@@YA?AVappender@12@V312@ABU?$find_escape_result@D@012@@Z 1003ab90 f i replicatedanimstate.obj
 0001:00039d10       ??$write_exponent@DVappender@v9@fmt@@@detail@v9@fmt@@YA?AVappender@12@HV312@@Z 1003ad10 f i replicatedanimstate.obj
 0001:00039e40       ??$write_int@DVappender@v9@fmt@@I@detail@v9@fmt@@YA?AVappender@12@V312@U?$write_int_arg@I@012@ABU?$basic_format_specs@D@12@Vlocale_ref@012@@Z 1003ae40 f i replicatedanimstate.obj
 0001:0003a0a0       ??$write_int@DVappender@v9@fmt@@_K@detail@v9@fmt@@YA?AVappender@12@V312@U?$write_int_arg@_K@012@ABU?$basic_format_specs@D@12@Vlocale_ref@012@@Z 1003b0a0 f i replicatedanimstate.obj
 0001:0003a330       ??$write_int@Vappender@v9@fmt@@DV<lambda_1>@?4???$write_int@DVappender@v9@fmt@@I@detail@23@YA?AV123@V123@U?$write_int_arg@I@523@ABU?$basic_format_specs@D@23@Vlocale_ref@523@@Z@@detail@v9@fmt@@YA?AVappender@12@V312@HIABU?$basic_format_specs@D@12@V<lambda_1>@?4???$write_int@DVappender@v9@fmt@@I@012@YA?AV312@0U?$write_int_arg@I@012@1Vlocale_ref@012@@Z@@Z 1003b330 f i replicatedanimstate.obj
 0001:0003a4e0       ??$write_int@Vappender@v9@fmt@@DV<lambda_1>@?4???$write_int@DVappender@v9@fmt@@_K@detail@23@YA?AV123@V123@U?$write_int_arg@_K@523@ABU?$basic_format_specs@D@23@Vlocale_ref@523@@Z@@detail@v9@fmt@@YA?AVappender@12@V312@HIABU?$basic_format_specs@D@12@V<lambda_1>@?4???$write_int@DVappender@v9@fmt@@_K@012@YA?AV312@0U?$write_int_arg@_K@012@1Vlocale_ref@012@@Z@@Z 1003b4e0 f i replicatedanimstate.obj
 0001:0003a690       ??$write_int@Vappender@v9@fmt@@DV<lambda_2>@?8???$write_int@DVappender@v9@fmt@@I@detail@23@YA?AV123@V123@U?$write_int_arg@I@523@ABU?$basic_format_specs@D@23@Vlocale_ref@523@@Z@@detail@v9@fmt@@YA?AVappender@12@V312@HIABU?$basic_format_specs@D@12@V<lambda_2>@?8???$write_int@DVappender@v9@fmt@@I@012@YA?AV312@0U?$write_int_arg@I@012@1Vlocale_ref@012@@Z@@Z 1003b690 f i replicatedanimstate.obj
 0001:0003a840       ??$write_int@Vappender@v9@fmt@@DV<lambda_2>@?8???$write_int@DVappender@v9@fmt@@_K@detail@23@YA?AV123@V123@U?$write_int_arg@_K@523@ABU?$basic_format_specs@D@23@Vlocale_ref@523@@Z@@detail@v9@fmt@@YA?AVappender@12@V312@HIABU?$basic_format_specs@D@12@V<lambda_2>@?8???$write_int@DVappender@v9@fmt@@_K@012@YA?AV312@0U?$write_int_arg@_K@012@1Vlocale_ref@012@@Z@@Z 1003b840 f i replicatedanimstate.obj
 0001:0003a9e0       ??$write_int@Vappender@v9@fmt@@DV<lambda_3>@?M@???$write_int@DVappender@v9@fmt@@I@detail@23@YA?AV123@V123@U?$write_int_arg@I@523@ABU?$basic_format_specs@D@23@Vlocale_ref@523@@Z@@detail@v9@fmt@@YA?AVappender@12@V312@HIABU?$basic_format_specs@D@12@V<lambda_3>@?M@???$write_int@DVappender@v9@fmt@@I@012@YA?AV312@0U?$write_int_arg@I@012@1Vlocale_ref@012@@Z@@Z 1003b9e0 f i replicatedanimstate.obj
 0001:0003ab90       ??$write_int@Vappender@v9@fmt@@DV<lambda_3>@?M@???$write_int@DVappender@v9@fmt@@_K@detail@23@YA?AV123@V123@U?$write_int_arg@_K@523@ABU?$basic_format_specs@D@23@Vlocale_ref@523@@Z@@detail@v9@fmt@@YA?AVappender@12@V312@HIABU?$basic_format_specs@D@12@V<lambda_3>@?M@???$write_int@DVappender@v9@fmt@@_K@012@YA?AV312@0U?$write_int_arg@_K@012@1Vlocale_ref@012@@Z@@Z 1003bb90 f i replicatedanimstate.obj
 0001:0003ad30       ??$write_int@Vappender@v9@fmt@@DV<lambda_4>@?P@???$write_int@DVappender@v9@fmt@@I@detail@23@YA?AV123@V123@U?$write_int_arg@I@523@ABU?$basic_format_specs@D@23@Vlocale_ref@523@@Z@@detail@v9@fmt@@YA?AVappender@12@V312@HIABU?$basic_format_specs@D@12@V<lambda_4>@?P@???$write_int@DVappender@v9@fmt@@I@012@YA?AV312@0U?$write_int_arg@I@012@1Vlocale_ref@012@@Z@@Z 1003bd30 f i replicatedanimstate.obj
 0001:0003aee0       ??$write_int@Vappender@v9@fmt@@DV<lambda_4>@?P@???$write_int@DVappender@v9@fmt@@_K@detail@23@YA?AV123@V123@U?$write_int_arg@_K@523@ABU?$basic_format_specs@D@23@Vlocale_ref@523@@Z@@detail@v9@fmt@@YA?AVappender@12@V312@HIABU?$basic_format_specs@D@12@V<lambda_4>@?P@???$write_int@DVappender@v9@fmt@@_K@012@YA?AV312@0U?$write_int_arg@_K@012@1Vlocale_ref@012@@Z@@Z 1003bee0 f i replicatedanimstate.obj
 0001:0003b080       ??$write_int_localized@Vappender@v9@fmt@@_KD@detail@v9@fmt@@YA?AVappender@12@V312@_KIABU?$basic_format_specs@D@12@ABV?$digit_grouping@D@012@@Z 1003c080 f i replicatedanimstate.obj
 0001:0003b1d0       ??$write_int_localized@Vappender@v9@fmt@@_KD@detail@v9@fmt@@YA_NAAVappender@12@_KIABU?$basic_format_specs@D@12@Vlocale_ref@012@@Z 1003c1d0 f i replicatedanimstate.obj
 0001:0003b240       ??$write_nonfinite@DVappender@v9@fmt@@@detail@v9@fmt@@YA?AVappender@12@V312@_NU?$basic_format_specs@D@12@ABUfloat_specs@012@@Z 1003c240 f i replicatedanimstate.obj
 0001:0003b350       ??$write_padded@$00Vappender@v9@fmt@@DAAV<lambda_1>@?1???$write_char@DVappender@v9@fmt@@@detail@23@YA?AV123@V123@DABU?$basic_format_specs@D@23@@Z@@detail@v9@fmt@@YA?AVappender@12@V312@ABU?$basic_format_specs@D@12@IIAAV<lambda_1>@?1???$write_char@DVappender@v9@fmt@@@012@YA?AV312@0D1@Z@@Z 1003c350 f i replicatedanimstate.obj
 0001:0003b4d0       ??$write_padded@$01Vappender@v9@fmt@@DAAV<lambda_5>@?1???$do_write_float@Vappender@v9@fmt@@U?$decimal_fp@M@dragonbox@detail@23@DV?$digit_grouping@D@623@@detail@23@YA?AV123@V123@ABU?$decimal_fp@M@dragonbox@523@ABU?$basic_format_specs@D@23@Ufloat_specs@523@Vlocale_ref@523@@Z@@detail@v9@fmt@@YA?AVappender@12@V312@ABU?$basic_format_specs@D@12@IIAAV<lambda_5>@?1???$do_write_float@Vappender@v9@fmt@@U?$decimal_fp@M@dragonbox@detail@23@DV?$digit_grouping@D@623@@012@YA?AV312@0ABU?$decimal_fp@M@dragonbox@012@1Ufloat_specs@012@Vlocale_ref@012@@Z@@Z 1003c4d0 f i replicatedanimstate.obj
 0001:0003b630       ??$write_padded@$01Vappender@v9@fmt@@DAAV<lambda_5>@?1???$do_write_float@Vappender@v9@fmt@@U?$decimal_fp@N@dragonbox@detail@23@DV?$digit_grouping@D@623@@detail@23@YA?AV123@V123@ABU?$decimal_fp@N@dragonbox@523@ABU?$basic_format_specs@D@23@Ufloat_specs@523@Vlocale_ref@523@@Z@@detail@v9@fmt@@YA?AVappender@12@V312@ABU?$basic_format_specs@D@12@IIAAV<lambda_5>@?1???$do_write_float@Vappender@v9@fmt@@U?$decimal_fp@N@dragonbox@detail@23@DV?$digit_grouping@D@623@@012@YA?AV312@0ABU?$decimal_fp@N@dragonbox@012@1Ufloat_specs@012@Vlocale_ref@012@@Z@@Z 1003c630 f i replicatedanimstate.obj
 0001:0003b7a0       ??$write_padded@$01Vappender@v9@fmt@@DAAV<lambda_5>@?1???$do_write_float@Vappender@v9@fmt@@Ubig_decimal_fp@detail@23@DV?$digit_grouping@D@523@@detail@23@YA?AV123@V123@ABUbig_decimal_fp@523@ABU?$basic_format_specs@D@23@Ufloat_specs@523@Vlocale_ref@523@@Z@@detail@v9@fmt@@YA?AVappender@12@V312@ABU?$basic_format_specs@D@12@IIAAV<lambda_5>@?1???$do_write_float@Vappender@v9@fmt@@Ubig_decimal_fp@detail@23@DV?$digit_grouping@D@523@@012@YA?AV312@0ABUbig_decimal_fp@012@1Ufloat_specs@012@Vlocale_ref@012@@Z@@Z 1003c7a0 f i replicatedanimstate.obj
 0001:0003b8f0       ??$write_ptr@DVappender@v9@fmt@@I@detail@v9@fmt@@YA?AVappender@12@V312@IPBU?$basic_format_specs@D@12@@Z 1003c8f0 f i replicatedanimstate.obj
 0001:0003ba00       ??$write_significand@Vappender@v9@fmt@@ID$0A@@detail@v9@fmt@@YA?AVappender@12@V312@IHHD@Z 1003ca00 f i replicatedanimstate.obj
 0001:0003bad0       ??$write_significand@Vappender@v9@fmt@@_KD$0A@@detail@v9@fmt@@YA?AVappender@12@V312@_KHHD@Z 1003cad0 f i replicatedanimstate.obj
 0001:0003bc90       ??0?$digit_grouping@D@detail@v9@fmt@@QAE@Vlocale_ref@123@_N@Z 1003cc90 f i replicatedanimstate.obj
 0001:0003bda0       ??0ReplicatedAnimState@mod@csgo@aw@@QAE@PAVReplicatedBoneState@123@PAVCSPlayer@sdk@23@@Z 1003cda0 f   replicatedanimstate.obj
 0001:0003c020       ??1?$digit_grouping@D@detail@v9@fmt@@QAE@XZ 1003d020 f i replicatedanimstate.obj
 0001:0003c060       ??1ReplicatedAnimState@mod@csgo@aw@@QAE@XZ 1003d060 f   replicatedanimstate.obj
 0001:0003c0b0       ??4?$back_insert_iterator@V?$buffer@D@detail@v9@fmt@@@std@@QAEAAV01@$$QAD@Z 1003d0b0 f i replicatedanimstate.obj
 0001:0003c0e0       ??4ReplicatedAnimState@mod@csgo@aw@@AAEAAV0123@ABV0123@@Z 1003d0e0 f i replicatedanimstate.obj
 0001:0003c6b0       ??R<lambda_1>@?1???$write@DVappender@v9@fmt@@@detail@v9@fmt@@YA?AVappender@23@V423@V?$basic_string_view@D@23@ABU?$basic_format_specs@D@23@@Z@QBE@0@Z 1003d6b0 f i replicatedanimstate.obj
 0001:0003c820       ??R<lambda_1>@?1???$write_ptr@DVappender@v9@fmt@@I@detail@v9@fmt@@YA?AVappender@23@V423@IPBU?$basic_format_specs@D@23@@Z@QBE@0@Z 1003d820 f i replicatedanimstate.obj
 0001:0003c890       ??R<lambda_2>@?4???$do_write_float@Vappender@v9@fmt@@U?$decimal_fp@M@dragonbox@detail@23@DV?$digit_grouping@D@623@@detail@v9@fmt@@YA?AVappender@23@V423@ABU?$decimal_fp@M@dragonbox@123@ABU?$basic_format_specs@D@23@Ufloat_specs@123@Vlocale_ref@123@@Z@QBE@0@Z 1003d890 f i replicatedanimstate.obj
 0001:0003c950       ??R<lambda_2>@?4???$do_write_float@Vappender@v9@fmt@@U?$decimal_fp@N@dragonbox@detail@23@DV?$digit_grouping@D@623@@detail@v9@fmt@@YA?AVappender@23@V423@ABU?$decimal_fp@N@dragonbox@123@ABU?$basic_format_specs@D@23@Ufloat_specs@123@Vlocale_ref@123@@Z@QBE@0@Z 1003d950 f i replicatedanimstate.obj
 0001:0003ca10       ??R<lambda_2>@?4???$do_write_float@Vappender@v9@fmt@@Ubig_decimal_fp@detail@23@DV?$digit_grouping@D@523@@detail@v9@fmt@@YA?AVappender@23@V423@ABUbig_decimal_fp@123@ABU?$basic_format_specs@D@23@Ufloat_specs@123@Vlocale_ref@123@@Z@QBE@0@Z 1003da10 f i replicatedanimstate.obj
 0001:0003cb10       ??R<lambda_2>@?8???$write_int@DVappender@v9@fmt@@_K@detail@v9@fmt@@YA?AVappender@23@V423@U?$write_int_arg@_K@123@ABU?$basic_format_specs@D@23@Vlocale_ref@123@@Z@QBE@0@Z 1003db10 f i replicatedanimstate.obj
 0001:0003cbc0       ??R<lambda_3>@?BD@???$do_write_float@Vappender@v9@fmt@@U?$decimal_fp@M@dragonbox@detail@23@DV?$digit_grouping@D@623@@detail@v9@fmt@@YA?AVappender@23@V423@ABU?$decimal_fp@M@dragonbox@123@ABU?$basic_format_specs@D@23@Ufloat_specs@123@Vlocale_ref@123@@Z@QBE@0@Z 1003dbc0 f i replicatedanimstate.obj
 0001:0003cd70       ??R<lambda_3>@?BD@???$do_write_float@Vappender@v9@fmt@@U?$decimal_fp@N@dragonbox@detail@23@DV?$digit_grouping@D@623@@detail@v9@fmt@@YA?AVappender@23@V423@ABU?$decimal_fp@N@dragonbox@123@ABU?$basic_format_specs@D@23@Ufloat_specs@123@Vlocale_ref@123@@Z@QBE@0@Z 1003dd70 f i replicatedanimstate.obj
 0001:0003cf30       ??R<lambda_3>@?BD@???$do_write_float@Vappender@v9@fmt@@Ubig_decimal_fp@detail@23@DV?$digit_grouping@D@523@@detail@v9@fmt@@YA?AVappender@23@V423@ABUbig_decimal_fp@123@ABU?$basic_format_specs@D@23@Ufloat_specs@123@Vlocale_ref@123@@Z@QBE@0@Z 1003df30 f i replicatedanimstate.obj
 0001:0003d0c0       ??R<lambda_3>@?M@???$write_int@DVappender@v9@fmt@@I@detail@v9@fmt@@YA?AVappender@23@V423@U?$write_int_arg@I@123@ABU?$basic_format_specs@D@23@Vlocale_ref@123@@Z@QBE@0@Z 1003e0c0 f i replicatedanimstate.obj
 0001:0003d150       ??R<lambda_3>@?M@???$write_int@DVappender@v9@fmt@@_K@detail@v9@fmt@@YA?AVappender@23@V423@U?$write_int_arg@_K@123@ABU?$basic_format_specs@D@23@Vlocale_ref@123@@Z@QBE@0@Z 1003e150 f i replicatedanimstate.obj
 0001:0003d1f0       ??R<lambda_4>@?BO@???$do_write_float@Vappender@v9@fmt@@U?$decimal_fp@M@dragonbox@detail@23@DV?$digit_grouping@D@623@@detail@v9@fmt@@YA?AVappender@23@V423@ABU?$decimal_fp@M@dragonbox@123@ABU?$basic_format_specs@D@23@Ufloat_specs@123@Vlocale_ref@123@@Z@QBE@0@Z 1003e1f0 f i replicatedanimstate.obj
 0001:0003d350       ??R<lambda_4>@?BO@???$do_write_float@Vappender@v9@fmt@@U?$decimal_fp@N@dragonbox@detail@23@DV?$digit_grouping@D@623@@detail@v9@fmt@@YA?AVappender@23@V423@ABU?$decimal_fp@N@dragonbox@123@ABU?$basic_format_specs@D@23@Ufloat_specs@123@Vlocale_ref@123@@Z@QBE@0@Z 1003e350 f i replicatedanimstate.obj
 0001:0003d4c0       ??R<lambda_4>@?BO@???$do_write_float@Vappender@v9@fmt@@Ubig_decimal_fp@detail@23@DV?$digit_grouping@D@523@@detail@v9@fmt@@YA?AVappender@23@V423@ABUbig_decimal_fp@123@ABU?$basic_format_specs@D@23@Ufloat_specs@123@Vlocale_ref@123@@Z@QBE@0@Z 1003e4c0 f i replicatedanimstate.obj
 0001:0003d6a0       ??R<lambda_4>@?P@???$write_int@DVappender@v9@fmt@@I@detail@v9@fmt@@YA?AVappender@23@V423@U?$write_int_arg@I@123@ABU?$basic_format_specs@D@23@Vlocale_ref@123@@Z@QBE@0@Z 1003e6a0 f i replicatedanimstate.obj
 0001:0003d740       ??R<lambda_4>@?P@???$write_int@DVappender@v9@fmt@@_K@detail@v9@fmt@@YA?AVappender@23@V423@U?$write_int_arg@_K@123@ABU?$basic_format_specs@D@23@Vlocale_ref@123@@Z@QBE@0@Z 1003e740 f i replicatedanimstate.obj
 0001:0003d7e0       ??Rwriter@?1???$parse_format_string@$0A@DUformat_handler@?1???$vformat_to@D@detail@v9@fmt@@YAXAAV?$buffer@D@234@V?$basic_string_view@D@34@V?$basic_format_args@V?$basic_format_context@Vappender@v9@fmt@@D@v9@fmt@@@34@Vlocale_ref@234@@Z@@detail@v9@fmt@@YAXV?$basic_string_view@D@23@$$QAUformat_handler@?1???$vformat_to@D@123@YAXAAV?$buffer@D@123@0V?$basic_format_args@V?$basic_format_context@Vappender@v9@fmt@@D@v9@fmt@@@23@Vlocale_ref@123@@Z@@Z@QAEXPBD5@Z 1003e7e0 f i replicatedanimstate.obj
 0001:0003d8a0       ??Yuint128_fallback@detail@v9@fmt@@QAEXV0123@@Z 1003e8a0 f i replicatedanimstate.obj
 0001:0003d900       ??_3bigint@detail@v9@fmt@@QAEAAV0123@H@Z 1003e900 f i replicatedanimstate.obj
 0001:0003d9a0       ?AddActivityModifier@ReplicatedAnimState@mod@csgo@aw@@IAEXPBD@Z 1003e9a0 f   replicatedanimstate.obj
 0001:0003dae0       ?ApplyLayerOrderPreset@ReplicatedAnimState@mod@csgo@aw@@IAEXPBH_N@Z 1003eae0 f   replicatedanimstate.obj
 0001:0003db40       ?CacheSequences@ReplicatedAnimState@mod@csgo@aw@@IAE_NXZ 1003eb40 f   replicatedanimstate.obj
 0001:0003ed50       ?CopyFrom@ReplicatedAnimState@mod@csgo@aw@@QAEXABV1234@@Z 1003fd50 f   replicatedanimstate.obj
 0001:0003ed80       ?DoAnimationEvent@ReplicatedAnimState@mod@csgo@aw@@QAEXW4PlayerAnimEvent_t@sdk@34@H@Z 1003fd80 f   replicatedanimstate.obj
 0001:0003f170       ?GetLayerActivity@ReplicatedAnimState@mod@csgo@aw@@QAE?AW4Activity@sdk@34@W4animstate_layer_t@634@@Z 10040170 f   replicatedanimstate.obj
 0001:0003f1e0       ?GetLayerCycle@ReplicatedAnimState@mod@csgo@aw@@QAEMW4animstate_layer_t@sdk@34@@Z 100401e0 f   replicatedanimstate.obj
 0001:0003f200       ?GetLayerIdealWeightFromSeqCycle@ReplicatedAnimState@mod@csgo@aw@@IAEMW4animstate_layer_t@sdk@34@@Z 10040200 f   replicatedanimstate.obj
 0001:0003f300       ?GetLayerWeight@ReplicatedAnimState@mod@csgo@aw@@QAEMW4animstate_layer_t@sdk@34@@Z 10040300 f   replicatedanimstate.obj
 0001:0003f320       ?GetPoseMappingParameter@ReplicatedAnimState@mod@csgo@aw@@QAEMW4animstate_pose_param_idx_t@sdk@34@@Z 10040320 f   replicatedanimstate.obj
 0001:0003f360       ?GetSequenceDesc@ModelHdr@sdk@csgo@aw@@QAEAAUStudioSequenceDesc@234@H@Z 10040360 f i replicatedanimstate.obj
 0001:0003f3e0       ?GetWeaponPrefix@ReplicatedAnimState@mod@csgo@aw@@IAEPBDXZ 100403e0 f   replicatedanimstate.obj
 0001:0003f470       ?IsLayerSequenceCompleted@ReplicatedAnimState@mod@csgo@aw@@IAE_NW4animstate_layer_t@sdk@34@@Z 10040470 f   replicatedanimstate.obj
 0001:0003f4b0       ?LayerSequenceHasActMod@ReplicatedAnimState@mod@csgo@aw@@IAE_NW4animstate_layer_t@sdk@34@PBD@Z 100404b0 f   replicatedanimstate.obj
 0001:0003f550       ?ModifyEyePosition@ReplicatedAnimState@mod@csgo@aw@@QAEXAAVVector3@4@PAVMatrix3x4@4@@Z 10040550 f   replicatedanimstate.obj
 0001:0003f660       ?OnAnimLayerNetworked@ReplicatedAnimState@mod@csgo@aw@@QAEXHPAVRecvProxyData@sdk@34@@Z 10040660 f   replicatedanimstate.obj
 0001:0003f790       ?OnEnterPVS@ReplicatedAnimState@mod@csgo@aw@@QAEXPAVCSPlayer@sdk@34@@Z 10040790 f   replicatedanimstate.obj
 0001:0003f7d0       ?Reset@ReplicatedAnimState@mod@csgo@aw@@IAEXXZ 100407d0 f   replicatedanimstate.obj
 0001:0003fca0       ?SelectSequenceFromActMods@ReplicatedAnimState@mod@csgo@aw@@IAEHW4Activity@sdk@34@@Z 10040ca0 f   replicatedanimstate.obj
 0001:0003fcf0       ?SetLayerSequence@ReplicatedAnimState@mod@csgo@aw@@IAEXW4animstate_layer_t@sdk@34@H@Z 10040cf0 f   replicatedanimstate.obj
 0001:0003fd50       ?SetLayerWeight@ReplicatedAnimState@mod@csgo@aw@@IAEXW4animstate_layer_t@sdk@34@M@Z 10040d50 f   replicatedanimstate.obj
 0001:0003fdb0       ?SetLayerWeightRate@ReplicatedAnimState@mod@csgo@aw@@IAEXW4animstate_layer_t@sdk@34@M@Z 10040db0 f   replicatedanimstate.obj
 0001:0003fe00       ?SetPoseMappingParameter@ReplicatedAnimState@mod@csgo@aw@@QAEXW4animstate_pose_param_idx_t@sdk@34@M@Z 10040e00 f   replicatedanimstate.obj
 0001:0003fe60       ?SetUpAimMatrix@ReplicatedAnimState@mod@csgo@aw@@IAEXXZ 10040e60 f   replicatedanimstate.obj
 0001:00040960       ?SetUpAliveloop@ReplicatedAnimState@mod@csgo@aw@@IAEXXZ 10041960 f   replicatedanimstate.obj
 0001:00040ca0       ?SetUpFlashedReaction@ReplicatedAnimState@mod@csgo@aw@@IAEXXZ 10041ca0 f   replicatedanimstate.obj
 0001:00040e90       ?SetUpFlinch@ReplicatedAnimState@mod@csgo@aw@@IAEXXZ 10041e90 f   replicatedanimstate.obj
 0001:00041190       ?SetUpLean@ReplicatedAnimState@mod@csgo@aw@@IAEXXZ 10042190 f   replicatedanimstate.obj
 0001:00041520       ?SetUpMovement@ReplicatedAnimState@mod@csgo@aw@@IAEXXZ 10042520 f   replicatedanimstate.obj
 0001:00042e30       ?SetUpVelocity@ReplicatedAnimState@mod@csgo@aw@@IAEXXZ 10043e30 f   replicatedanimstate.obj
 0001:00043cc0       ?SetUpWeaponAction@ReplicatedAnimState@mod@csgo@aw@@IAEXXZ 10044cc0 f   replicatedanimstate.obj
 0001:00044570       ?SetUpWholeBodyAction@ReplicatedAnimState@mod@csgo@aw@@IAEXXZ 10045570 f   replicatedanimstate.obj
 0001:00044a50       ?SimulatedRandomFloat@ReplicatedAnimState@mod@csgo@aw@@IAEMMM@Z 10045a50 f   replicatedanimstate.obj
 0001:00044ac0       ?Update@ReplicatedAnimState@mod@csgo@aw@@QAEXMM@Z 10045ac0 f   replicatedanimstate.obj
 0001:00044d50       ?UpdateActivityModifiers@ReplicatedAnimState@mod@csgo@aw@@IAEXXZ 10045d50 f   replicatedanimstate.obj
 0001:00044ef0       ?UpdateAnimLayer@ReplicatedAnimState@mod@csgo@aw@@IAEXW4animstate_layer_t@sdk@34@HMMM@Z 10045ef0 f   replicatedanimstate.obj
 0001:00044fc0       ?UpdateLayerOrderPreset@ReplicatedAnimState@mod@csgo@aw@@IAEXW4animstate_layer_t@sdk@34@H@Z 10045fc0 f   replicatedanimstate.obj
 0001:00045020       ?_Xlength@?$vector@VUtlSymbol@sdk@csgo@aw@@V?$allocator@VUtlSymbol@sdk@csgo@aw@@@std@@@std@@CAXXZ 10046020 f i replicatedanimstate.obj
 0001:00045030       ?__offset_GetPlaybackRate@BaseAnimating@sdk@csgo@aw@@QAEHXZ 10046030 f i replicatedanimstate.obj
 0001:00045060       ?add_compare@detail@v9@fmt@@YAHABVbigint@123@00@Z 10046060 f i replicatedanimstate.obj
 0001:00045200       ?allocate@?$allocator@VUtlSymbol@sdk@csgo@aw@@@std@@QAEPAVUtlSymbol@sdk@csgo@aw@@I@Z 10046200 f i replicatedanimstate.obj
 0001:00045260       ?assign_pow10@bigint@detail@v9@fmt@@QAEXH@Z 10046260 f i replicatedanimstate.obj
 0001:00045360       ?compare@detail@v9@fmt@@YAHABVbigint@123@0@Z 10046360 f i replicatedanimstate.obj
 0001:00045400       ?count_digits@detail@v9@fmt@@YAH_K@Z 10046400 f i replicatedanimstate.obj
 0001:00045460       ?count_separators@?$digit_grouping@D@detail@v9@fmt@@QBEHH@Z 10046460 f i replicatedanimstate.obj
 0001:000454d0       ?divmod_assign@bigint@detail@v9@fmt@@QAEHABV1234@@Z 100464d0 f i replicatedanimstate.obj
 0001:000456a0       ?format_dragon@detail@v9@fmt@@YAXU?$basic_fp@Vuint128_fallback@detail@v9@fmt@@@123@IHAAV?$buffer@D@123@AAH@Z 100466a0 f i replicatedanimstate.obj
 0001:000460b0       ?get@?$basic_format_args@V?$basic_format_context@Vappender@v9@fmt@@D@v9@fmt@@@v9@fmt@@QBE?AV?$basic_format_arg@V?$basic_format_context@Vappender@v9@fmt@@D@v9@fmt@@@23@H@Z 100470b0 f i replicatedanimstate.obj
 0001:00046130       ?get_round_direction@detail@v9@fmt@@YA?AW4round_direction@123@_K00@Z 10047130 f i replicatedanimstate.obj
 0001:000461e0       ?grisu_gen_digits@detail@v9@fmt@@YA?AW4result@digits@123@U?$basic_fp@_K@123@_KAAHAAUgen_digits_handler@123@@Z 100471e0 f i replicatedanimstate.obj
 0001:00046700       ?grow@?$basic_memory_buffer@D$0BPE@V?$allocator@D@std@@@v9@fmt@@MAEXI@Z 10047700 f i replicatedanimstate.obj
 0001:000467a0       ?grow@?$basic_memory_buffer@H$0BPE@V?$allocator@H@std@@@v9@fmt@@MAEXI@Z 100477a0 f i replicatedanimstate.obj
 0001:00046870       ?grow@?$basic_memory_buffer@I$0CA@V?$allocator@I@std@@@v9@fmt@@MAEXI@Z 10047870 f i replicatedanimstate.obj
 0001:00046940       ?grow@?$iterator_buffer@PADDVfixed_buffer_traits@detail@v9@fmt@@@detail@v9@fmt@@MAEXI@Z 10047940 f i replicatedanimstate.obj
 0001:00046990       ?on_replacement_field@format_handler@?1???$vformat_to@D@detail@v9@fmt@@YAXAAV?$buffer@D@234@V?$basic_string_view@D@34@V?$basic_format_args@V?$basic_format_context@Vappender@v9@fmt@@D@v9@fmt@@@34@Vlocale_ref@234@@Z@QAEXHPBD@Z 10047990 f i replicatedanimstate.obj
 0001:00046a00       ?on_sign@?$specs_checker@V?$specs_handler@D@detail@v9@fmt@@@detail@v9@fmt@@QAEXW4type@sign@34@@Z 10047a00 f i replicatedanimstate.obj
 0001:00046a60       ?square@bigint@detail@v9@fmt@@QAEXXZ 10047a60 f i replicatedanimstate.obj
 0001:00046dc0       ?try_resize@?$buffer@D@detail@v9@fmt@@QAEXI@Z 10047dc0 f i replicatedanimstate.obj
 0001:00046df0       ?utf8_decode@detail@v9@fmt@@YAPBDPBDPAIPAH@Z 10047df0 f i replicatedanimstate.obj
 0001:00046f30       ?GetOverlay@ReplicatedAnimLayers@mod@csgo@aw@@QAEPAVAnimationLayer@sdk@34@H_N@Z 10047f30 f   replicatedcommon.obj
 0001:00046fb0       ??$Iterator@$00@ReplicatedRecordList@mod@csgo@aw@@IAE?AVReplicatedRecordIterator@123@XZ 10047fb0 f i replicatedenemyplayer.obj
 0001:00047360       ??$Iterator@$0A@@ReplicatedRecordList@mod@csgo@aw@@IAE?AVReplicatedRecordIterator@123@XZ 10048360 f i replicatedenemyplayer.obj
 0001:00047710       ??0ReplicatedEnemyPlayer@mod@csgo@aw@@QAE@PAVCSPlayer@sdk@23@@Z 10048710 f   replicatedenemyplayer.obj
 0001:00047a10       ??9ReplicatedRecordIterator@mod@csgo@aw@@QBE_NABV0123@@Z 10048a10 f   replicatedenemyplayer.obj
 0001:00047a20       ??DReplicatedRecordIterator@mod@csgo@aw@@QAEPAUReplicatedRecord@123@XZ 10048a20 f   replicatedenemyplayer.obj
 0001:00047a40       ??EReplicatedRecordIterator@mod@csgo@aw@@QAEABV0123@XZ 10048a40 f   replicatedenemyplayer.obj
 0001:00047a50       ??_EReplicatedEnemyPlayer@mod@csgo@aw@@UAEPAXI@Z 10048a50 f i replicatedenemyplayer.obj
 0001:00047a50       ??_GReplicatedEnemyPlayer@mod@csgo@aw@@UAEPAXI@Z 10048a50 f i replicatedenemyplayer.obj
 0001:00047aa0       ?CalcTargetTimeRange@ReplicatedRecordList@mod@csgo@aw@@QAEXAAM0@Z 10048aa0 f   replicatedenemyplayer.obj
 0001:00047b60       ?FindNoCheck@ReplicatedRecordList@mod@csgo@aw@@QAEPAUReplicatedRecord@234@M@Z 10048b60 f   replicatedenemyplayer.obj
 0001:00047bb0       ?GetAbsAngles@ReplicatedEnemyPlayer@mod@csgo@aw@@UAEAAVEulerAngles@4@XZ 10048bb0 f i replicatedenemyplayer.obj
 0001:00047bc0       ?GetAbsOrigin@ReplicatedPlayer@mod@csgo@aw@@UAEAAVVector3@4@XZ 10048bc0 f i replicatedenemyplayer.obj
 0001:00047bd0       ?GetAnimLayers@ReplicatedEnemyPlayer@mod@csgo@aw@@UAEAAVReplicatedAnimLayers@234@XZ 10048bd0 f i replicatedenemyplayer.obj
 0001:00047be0       ?GetEyeAngles@ReplicatedEnemyPlayer@mod@csgo@aw@@UAEAAVEulerAngles@4@XZ 10048be0 f i replicatedenemyplayer.obj
 0001:00047bf0       ?GetPoseParams@ReplicatedEnemyPlayer@mod@csgo@aw@@UAEAAV?$array@M$0BI@@std@@XZ 10048bf0 f i replicatedenemyplayer.obj
 0001:00047c00       ?GetType@ReplicatedEnemyPlayer@mod@csgo@aw@@UAE?AW4ReplicatedType@234@XZ 10048c00 f i replicatedenemyplayer.obj
 0001:00047c10       ?IsEnabled@VisualsChamsBuilder@ui@csgo@aw@@QAE_NXZ 10048c10 f i replicatedenemyplayer.obj
 0001:00047c50       ?IsIterationValid@ReplicatedRecordList@mod@csgo@aw@@QAE_NPAUReplicatedRecord@234@0@Z 10048c50 f   replicatedenemyplayer.obj
 0001:00047d30       ?Newest@ReplicatedRecordList@mod@csgo@aw@@QAEPAUReplicatedRecord@234@XZ 10048d30 f   replicatedenemyplayer.obj
 0001:00047d50       ?NewestValid@ReplicatedRecordList@mod@csgo@aw@@QAEPAUReplicatedRecord@234@XZ 10048d50 f   replicatedenemyplayer.obj
 0001:00047db0       ?OldestValid@ReplicatedRecordList@mod@csgo@aw@@QAEPAUReplicatedRecord@234@XZ 10048db0 f   replicatedenemyplayer.obj
 0001:00047e10       ?begin@ReplicatedRecordList@mod@csgo@aw@@QAE?AVReplicatedRecordIterator@234@XZ 10048e10 f   replicatedenemyplayer.obj
 0001:00047e20       ?end@ReplicatedRecordList@mod@csgo@aw@@QAE?AVReplicatedRecordIterator@234@XZ 10048e20 f   replicatedenemyplayer.obj
 0001:00047e30       ??$_Find_last@PAVCSPlayer@sdk@csgo@aw@@@?$_Hash@V?$_Umap_traits@PAVCSPlayer@sdk@csgo@aw@@V?$unique_ptr@VReplicatedPlayer@mod@csgo@aw@@U?$default_delete@VReplicatedPlayer@mod@csgo@aw@@@std@@@std@@V?$_Uhash_compare@PAVCSPlayer@sdk@csgo@aw@@U?$hash@PAVCSPlayer@sdk@csgo@aw@@@std@@U?$equal_to@PAVCSPlayer@sdk@csgo@aw@@@6@@6@V?$allocator@U?$pair@QAVCSPlayer@sdk@csgo@aw@@V?$unique_ptr@VReplicatedPlayer@mod@csgo@aw@@U?$default_delete@VReplicatedPlayer@mod@csgo@aw@@@std@@@std@@@std@@@6@$0A@@std@@@std@@IBE?AU?$_Hash_find_last_result@PAU?$_List_node@U?$pair@QAVCSPlayer@sdk@csgo@aw@@V?$unique_ptr@VReplicatedPlayer@mod@csgo@aw@@U?$default_delete@VReplicatedPlayer@mod@csgo@aw@@@std@@@std@@@std@@PAX@std@@@1@ABQAVCSPlayer@sdk@csgo@aw@@I@Z 10048e30 f i replicatedgamestate.obj
 0001:00047ea0       ??$_Free_non_head@V?$allocator@U?$_List_node@U?$pair@QAVCSPlayer@sdk@csgo@aw@@V?$unique_ptr@VReplicatedPlayer@mod@csgo@aw@@U?$default_delete@VReplicatedPlayer@mod@csgo@aw@@@std@@@std@@@std@@PAX@std@@@std@@@?$_List_node@U?$pair@QAVCSPlayer@sdk@csgo@aw@@V?$unique_ptr@VReplicatedPlayer@mod@csgo@aw@@U?$default_delete@VReplicatedPlayer@mod@csgo@aw@@@std@@@std@@@std@@PAX@std@@SAXAAV?$allocator@U?$_List_node@U?$pair@QAVCSPlayer@sdk@csgo@aw@@V?$unique_ptr@VReplicatedPlayer@mod@csgo@aw@@U?$default_delete@VReplicatedPlayer@mod@csgo@aw@@@std@@@std@@@std@@PAX@std@@@1@PAU01@@Z 10048ea0 f i replicatedgamestate.obj
 0001:00047ee0       ??$_Resize_reallocate@U_Value_init_tag@std@@@?$vector@UShotMatrix@ReplicatedGameState@mod@csgo@aw@@V?$allocator@UShotMatrix@ReplicatedGameState@mod@csgo@aw@@@std@@@std@@AAEXIABU_Value_init_tag@1@@Z 10048ee0 f i replicatedgamestate.obj
 0001:00048020       ??$_Try_emplace@ABQAVCSPlayer@sdk@csgo@aw@@$$V@?$_Hash@V?$_Umap_traits@PAVCSPlayer@sdk@csgo@aw@@V?$unique_ptr@VReplicatedPlayer@mod@csgo@aw@@U?$default_delete@VReplicatedPlayer@mod@csgo@aw@@@std@@@std@@V?$_Uhash_compare@PAVCSPlayer@sdk@csgo@aw@@U?$hash@PAVCSPlayer@sdk@csgo@aw@@@std@@U?$equal_to@PAVCSPlayer@sdk@csgo@aw@@@6@@6@V?$allocator@U?$pair@QAVCSPlayer@sdk@csgo@aw@@V?$unique_ptr@VReplicatedPlayer@mod@csgo@aw@@U?$default_delete@VReplicatedPlayer@mod@csgo@aw@@@std@@@std@@@std@@@6@$0A@@std@@@std@@IAE?AU?$pair@PAU?$_List_node@U?$pair@QAVCSPlayer@sdk@csgo@aw@@V?$unique_ptr@VReplicatedPlayer@mod@csgo@aw@@U?$default_delete@VReplicatedPlayer@mod@csgo@aw@@@std@@@std@@@std@@PAX@std@@_N@1@ABQAVCSPlayer@sdk@csgo@aw@@@Z 10049020 f i replicatedgamestate.obj
 0001:000481e0       ??$fill@PAV?$_List_unchecked_iterator@V?$_List_val@U?$_List_simple_types@U?$pair@QAVCSPlayer@sdk@csgo@aw@@V?$unique_ptr@VReplicatedPlayer@mod@csgo@aw@@U?$default_delete@VReplicatedPlayer@mod@csgo@aw@@@std@@@std@@@std@@@std@@@std@@@std@@V12@@std@@YAXQAV?$_List_unchecked_iterator@V?$_List_val@U?$_List_simple_types@U?$pair@QAVCSPlayer@sdk@csgo@aw@@V?$unique_ptr@VReplicatedPlayer@mod@csgo@aw@@U?$default_delete@VReplicatedPlayer@mod@csgo@aw@@@std@@@std@@@std@@@std@@@std@@@0@0ABV10@@Z 100491e0 f i replicatedgamestate.obj
 0001:00048240       ??$find@X@?$_Hash@V?$_Umap_traits@PAVCSPlayer@sdk@csgo@aw@@V?$unique_ptr@VReplicatedPlayer@mod@csgo@aw@@U?$default_delete@VReplicatedPlayer@mod@csgo@aw@@@std@@@std@@V?$_Uhash_compare@PAVCSPlayer@sdk@csgo@aw@@U?$hash@PAVCSPlayer@sdk@csgo@aw@@@std@@U?$equal_to@PAVCSPlayer@sdk@csgo@aw@@@6@@6@V?$allocator@U?$pair@QAVCSPlayer@sdk@csgo@aw@@V?$unique_ptr@VReplicatedPlayer@mod@csgo@aw@@U?$default_delete@VReplicatedPlayer@mod@csgo@aw@@@std@@@std@@@std@@@6@$0A@@std@@@std@@QAE?AV?$_List_iterator@V?$_List_val@U?$_List_simple_types@U?$pair@QAVCSPlayer@sdk@csgo@aw@@V?$unique_ptr@VReplicatedPlayer@mod@csgo@aw@@U?$default_delete@VReplicatedPlayer@mod@csgo@aw@@@std@@@std@@@std@@@std@@@std@@@1@ABQAVCSPlayer@sdk@csgo@aw@@@Z 10049240 f i replicatedgamestate.obj
 0001:000482b0       ??0DrawChamsModel@mod@csgo@aw@@QAE@AAUDrawModelVars@hk@23@@Z 100492b0 f i replicatedgamestate.obj
 0001:000482f0       ??1?$_Hash@V?$_Umap_traits@PAVCSPlayer@sdk@csgo@aw@@V?$unique_ptr@VReplicatedPlayer@mod@csgo@aw@@U?$default_delete@VReplicatedPlayer@mod@csgo@aw@@@std@@@std@@V?$_Uhash_compare@PAVCSPlayer@sdk@csgo@aw@@U?$hash@PAVCSPlayer@sdk@csgo@aw@@@std@@U?$equal_to@PAVCSPlayer@sdk@csgo@aw@@@6@@6@V?$allocator@U?$pair@QAVCSPlayer@sdk@csgo@aw@@V?$unique_ptr@VReplicatedPlayer@mod@csgo@aw@@U?$default_delete@VReplicatedPlayer@mod@csgo@aw@@@std@@@std@@@std@@@6@$0A@@std@@@std@@QAE@XZ 100492f0 f i replicatedgamestate.obj
 0001:00048350       ??1?$vector@UShotMatrix@ReplicatedGameState@mod@csgo@aw@@V?$allocator@UShotMatrix@ReplicatedGameState@mod@csgo@aw@@@std@@@std@@QAE@XZ 10049350 f i replicatedgamestate.obj
 0001:000483b0       ??_E?$Callback@UDrawChamsModel@mod@csgo@aw@@@aw@@UAEPAXI@Z 100493b0 f i replicatedgamestate.obj
 0001:000483b0       ??_G?$Callback@UDrawChamsModel@mod@csgo@aw@@@aw@@UAEPAXI@Z 100493b0 f i replicatedgamestate.obj
 0001:000483e0       ??_E?$ModuleBaseImpl@VReplicatedGameState@mod@csgo@aw@@V?$TypedObject@VReplicatedGameState@mod@csgo@aw@@VModuleBase@4@@4@@aw@@UAEPAXI@Z 100493e0 f i replicatedgamestate.obj
 0001:000483e0       ??_G?$ModuleBaseImpl@VReplicatedGameState@mod@csgo@aw@@V?$TypedObject@VReplicatedGameState@mod@csgo@aw@@VModuleBase@4@@4@@aw@@UAEPAXI@Z 100493e0 f i replicatedgamestate.obj
 0001:00048410       ??_EDrawChamsModel@mod@csgo@aw@@UAEPAXI@Z 10049410 f i replicatedgamestate.obj
 0001:00048410       ??_GDrawChamsModel@mod@csgo@aw@@UAEPAXI@Z 10049410 f i replicatedgamestate.obj
 0001:00048440       ??_EReplicatedGameState@impl@mod@csgo@aw@@UAEPAXI@Z 10049440 f i replicatedgamestate.obj
 0001:00048440       ??_GReplicatedGameState@impl@mod@csgo@aw@@UAEPAXI@Z 10049440 f i replicatedgamestate.obj
 0001:00048480       ?AddPlayer@ReplicatedGameState@impl@mod@csgo@aw@@IAEPAVReplicatedPlayer@345@PAVCSPlayer@sdk@45@@Z 10049480 f   replicatedgamestate.obj
 0001:00048550       ?ClampSimulationTimeDelta@ReplicatedGameState@impl@mod@csgo@aw@@UAEMM@Z 10049550 f   replicatedgamestate.obj
 0001:000485b0       ?CreateModule@?$ModuleWithFactory@VReplicatedGameState@mod@csgo@aw@@@aw@@SAPAVReplicatedGameState@mod@csgo@2@XZ 100495b0 f   replicatedgamestate.obj
 0001:000485d0       ?DrawClientHitboxes@ReplicatedGameState@impl@mod@csgo@aw@@UAEXPAVCSPlayer@sdk@45@MUColor@745@PAVMatrix3x4@5@@Z 100495d0 f   replicatedgamestate.obj
 0001:00048810       ?DrawSkeleton@ReplicatedGameState@impl@mod@csgo@aw@@UAEXPAVCSPlayer@sdk@45@MUColor@745@PAVMatrix3x4@5@@Z 10049810 f   replicatedgamestate.obj
 0001:00048990       ?Get@DebugOverlay@sdk@csgo@aw@@SAPAV1234@XZ 10049990 f i replicatedgamestate.obj
 0001:000489a0       ?Get@MDLCache@sdk@csgo@aw@@SAPAV1234@XZ 100499a0 f i replicatedgamestate.obj
 0001:000489b0       ?Get@ModelInfo@sdk@csgo@aw@@SAPAV1234@XZ 100499b0 f i replicatedgamestate.obj
 0001:000489c0       ?Get@StudioRender@sdk@csgo@aw@@SAPAV1234@XZ 100499c0 f i replicatedgamestate.obj
 0001:000489d0       ?GetAllPlayers@ReplicatedGameState@impl@mod@csgo@aw@@UAEABV?$unordered_map@PAVCSPlayer@sdk@csgo@aw@@V?$unique_ptr@VReplicatedPlayer@mod@csgo@aw@@U?$default_delete@VReplicatedPlayer@mod@csgo@aw@@@std@@@std@@U?$hash@PAVCSPlayer@sdk@csgo@aw@@@6@U?$equal_to@PAVCSPlayer@sdk@csgo@aw@@@6@V?$allocator@U?$pair@QAVCSPlayer@sdk@csgo@aw@@V?$unique_ptr@VReplicatedPlayer@mod@csgo@aw@@U?$default_delete@VReplicatedPlayer@mod@csgo@aw@@@std@@@std@@@std@@@6@@std@@XZ 100499d0 f i replicatedgamestate.obj
 0001:000489e0       ?GetCorrectTime@ReplicatedGameState@impl@mod@csgo@aw@@UAEMXZ 100499e0 f   replicatedgamestate.obj
 0001:000489f0       ?GetDynamic@DebugOverlay@sdk@csgo@aw@@SAPAV1234@XZ 100499f0 f i replicatedgamestate.obj
 0001:00048a10       ?GetDynamic@MDLCache@sdk@csgo@aw@@SAPAV1234@XZ 10049a10 f i replicatedgamestate.obj
 0001:00048a30       ?GetDynamic@ModelInfo@sdk@csgo@aw@@SAPAV1234@XZ 10049a30 f i replicatedgamestate.obj
 0001:00048a50       ?GetEnemyPlayer@ReplicatedGameState@impl@mod@csgo@aw@@UAEPAVReplicatedEnemyPlayer@345@PAVCSPlayer@sdk@45@@Z 10049a50 f   replicatedgamestate.obj
 0001:00048a80       ?GetFrameTime@ReplicatedGameState@impl@mod@csgo@aw@@UAEMXZ 10049a80 f i replicatedgamestate.obj
 0001:00048a90       ?GetId@?$TypedObject@UDrawChamsModel@mod@csgo@aw@@UCallbackVars@4@@aw@@UAEIXZ 10049a90 f i replicatedgamestate.obj
 0001:00048aa0       ?GetId@?$TypedObject@VReplicatedGameState@mod@csgo@aw@@VModuleBase@4@@aw@@UAEIXZ 10049aa0 f i replicatedgamestate.obj
 0001:00048ab0       ?GetLerpTime@ReplicatedGameState@impl@mod@csgo@aw@@UAEMXZ 10049ab0 f i replicatedgamestate.obj
 0001:00048ac0       ?GetLocalPlayer@ReplicatedGameState@impl@mod@csgo@aw@@UAEPAVReplicatedLocalPlayer@345@XZ 10049ac0 f   replicatedgamestate.obj
 0001:00048b00       ?GetMaxChokeCmds@ReplicatedGameState@impl@mod@csgo@aw@@UAEHXZ 10049b00 f   replicatedgamestate.obj
 0001:00048b10       ?GetMaxUnlag@ReplicatedGameState@impl@mod@csgo@aw@@UAEMXZ 10049b10 f i replicatedgamestate.obj
 0001:00048b20       ?GetPlayer@ReplicatedGameState@impl@mod@csgo@aw@@UAEPAVReplicatedPlayer@345@PAVCSPlayer@sdk@45@@Z 10049b20 f   replicatedgamestate.obj
 0001:00048b60       ?GetServerTick@ReplicatedGameState@impl@mod@csgo@aw@@UAEHXZ 10049b60 f i replicatedgamestate.obj
 0001:00048b70       ?GetServerTime@ReplicatedGameState@impl@mod@csgo@aw@@UAEMXZ 10049b70 f i replicatedgamestate.obj
 0001:00048b80       ?GetShotMatrices@ReplicatedGameState@impl@mod@csgo@aw@@UAEABV?$vector@UShotMatrix@ReplicatedGameState@mod@csgo@aw@@V?$allocator@UShotMatrix@ReplicatedGameState@mod@csgo@aw@@@std@@@std@@XZ 10049b80 f i replicatedgamestate.obj
 0001:00048b90       ?GetTeamPlayer@ReplicatedGameState@impl@mod@csgo@aw@@UAEPAVReplicatedTeamPlayer@345@PAVCSPlayer@sdk@45@@Z 10049b90 f   replicatedgamestate.obj
 0001:00048bc0       ?GetTickBase@ReplicatedGameState@impl@mod@csgo@aw@@UAEHXZ 10049bc0 f i replicatedgamestate.obj
 0001:00048bd0       ?GetTickCountForSimulationTime@ReplicatedGameState@impl@mod@csgo@aw@@UAEHM@Z 10049bd0 f   replicatedgamestate.obj
 0001:00048c10       ?GetTimeBase@ReplicatedGameState@impl@mod@csgo@aw@@UAEMXZ 10049c10 f i replicatedgamestate.obj
 0001:00048c20       ?IsLagCompensationDisabled@ReplicatedGameState@impl@mod@csgo@aw@@UAE_NXZ 10049c20 f i replicatedgamestate.obj
 0001:00048c30       ?LogShotMatrix@ReplicatedGameState@impl@mod@csgo@aw@@UAEXPAVBasePlayer@sdk@45@PAVMatrix3x4@5@@Z 10049c30 f   replicatedgamestate.obj
 0001:00048d50       ?OnAnimLayerVar@ReplicatedGameState@impl@mod@csgo@aw@@IAEXAAUAnimLayerVar@hk@45@@Z 10049d50 f   replicatedgamestate.obj
 0001:00048d90       ?OnDrawModel_Backtrack@ReplicatedGameState@impl@mod@csgo@aw@@IAEXAAUDrawModel@hk@45@PAVCSPlayer@sdk@45@@Z 10049d90 f   replicatedgamestate.obj
 0001:00048fb0       ?OnDrawModel_Ghost@ReplicatedGameState@impl@mod@csgo@aw@@IAEXAAUDrawModel@hk@45@PAVCSPlayer@sdk@45@@Z 10049fb0 f   replicatedgamestate.obj
 0001:00049240       ?OnFrameEnd@ReplicatedGameState@impl@mod@csgo@aw@@IAEXAAUFrameEnd@hk@45@@Z 1004a240 f   replicatedgamestate.obj
 0001:00049250       ?OnGroundAccelLinearFracLastTime@ReplicatedGameState@impl@mod@csgo@aw@@IAEXAAUGroundAccelLinearFracLastTime@hk@45@@Z 1004a250 f   replicatedgamestate.obj
 0001:00049270       ?OnLatchInterpVars@ReplicatedGameState@impl@mod@csgo@aw@@IAEXAAUPlayerLatchInterpVars@hk@45@@Z 1004a270 f   replicatedgamestate.obj
 0001:000492d0       ?OnPostDrawModel@ReplicatedGameState@impl@mod@csgo@aw@@IAEXAAUDrawModel@hk@45@@Z 1004a2d0 f   replicatedgamestate.obj
 0001:00049360       ?OnPostViewDrawScene@ReplicatedGameState@impl@mod@csgo@aw@@IAEXAAUPostViewDrawScene@hk@45@@Z 1004a360 f   replicatedgamestate.obj
 0001:00049740       ?OnPreDrawModel@ReplicatedGameState@impl@mod@csgo@aw@@IAEXAAUDrawModel@hk@45@@Z 1004a740 f   replicatedgamestate.obj
 0001:000497c0       ?OnReadPacketEntities@ReplicatedGameState@impl@mod@csgo@aw@@IAEXAAUReadPacketEntities@hk@45@@Z 1004a7c0 f   replicatedgamestate.obj
 0001:000498a0       ?OnRemoveEntity@ReplicatedGameState@impl@mod@csgo@aw@@IAEXAAUOnRemoveEntityCallback@hk@45@@Z 1004a8a0 f   replicatedgamestate.obj
 0001:000498b0       ?OnSetupBonesEnd@ReplicatedGameState@impl@mod@csgo@aw@@IAEXAAUPlayerSetupBones@hk@45@@Z 1004a8b0 f   replicatedgamestate.obj
 0001:00049a50       ?OnSetupBonesStart@ReplicatedGameState@impl@mod@csgo@aw@@IAEXAAUPlayerSetupBones@hk@45@@Z 1004aa50 f   replicatedgamestate.obj
 0001:00049af0       ?RemovePlayer@ReplicatedGameState@impl@mod@csgo@aw@@IAEXPAVBaseEntity@sdk@45@@Z 1004aaf0 f   replicatedgamestate.obj
 0001:00049c00       ?SetServerTick@ReplicatedGameState@impl@mod@csgo@aw@@UAEXH@Z 1004ac00 f   replicatedgamestate.obj
 0001:00049c20       ?SetTickBase@ReplicatedGameState@impl@mod@csgo@aw@@UAEXH@Z 1004ac20 f   replicatedgamestate.obj
 0001:00049c40       ?_Assign_grow@?$_Hash_vec@V?$allocator@V?$_List_unchecked_iterator@V?$_List_val@U?$_List_simple_types@U?$pair@QAVCSPlayer@sdk@csgo@aw@@V?$unique_ptr@VReplicatedPlayer@mod@csgo@aw@@U?$default_delete@VReplicatedPlayer@mod@csgo@aw@@@std@@@std@@@std@@@std@@@std@@@std@@@std@@@std@@QAEXIV?$_List_unchecked_iterator@V?$_List_val@U?$_List_simple_types@U?$pair@QAVCSPlayer@sdk@csgo@aw@@V?$unique_ptr@VReplicatedPlayer@mod@csgo@aw@@U?$default_delete@VReplicatedPlayer@mod@csgo@aw@@@std@@@std@@@std@@@std@@@std@@@2@@Z 1004ac40 f i replicatedgamestate.obj
 0001:00049d10       ?_Forced_rehash@?$_Hash@V?$_Umap_traits@PAVCSPlayer@sdk@csgo@aw@@V?$unique_ptr@VReplicatedPlayer@mod@csgo@aw@@U?$default_delete@VReplicatedPlayer@mod@csgo@aw@@@std@@@std@@V?$_Uhash_compare@PAVCSPlayer@sdk@csgo@aw@@U?$hash@PAVCSPlayer@sdk@csgo@aw@@@std@@U?$equal_to@PAVCSPlayer@sdk@csgo@aw@@@6@@6@V?$allocator@U?$pair@QAVCSPlayer@sdk@csgo@aw@@V?$unique_ptr@VReplicatedPlayer@mod@csgo@aw@@U?$default_delete@VReplicatedPlayer@mod@csgo@aw@@@std@@@std@@@std@@@6@$0A@@std@@@std@@IAEXI@Z 1004ad10 f i replicatedgamestate.obj
 0001:00049e70       ?_Xlength@?$vector@UShotMatrix@ReplicatedGameState@mod@csgo@aw@@V?$allocator@UShotMatrix@ReplicatedGameState@mod@csgo@aw@@@std@@@std@@CAXXZ 1004ae70 f i replicatedgamestate.obj
 0001:00049e80       ?__offset_GetNetworkAngles@BaseEntity@sdk@csgo@aw@@QAEHXZ 1004ae80 f i replicatedgamestate.obj
 0001:00049eb0       ??0ReplicatedLocalPlayer@mod@csgo@aw@@QAE@PAVCSPlayer@sdk@23@@Z 1004aeb0 f   replicatedlocalplayer.obj
 0001:0004a0d0       ??_EReplicatedLocalPlayer@mod@csgo@aw@@UAEPAXI@Z 1004b0d0 f i replicatedlocalplayer.obj
 0001:0004a0d0       ??_GReplicatedLocalPlayer@mod@csgo@aw@@UAEPAXI@Z 1004b0d0 f i replicatedlocalplayer.obj
 0001:0004a130       ?CalcEyePosition@ReplicatedLocalPlayer@mod@csgo@aw@@QAEXAAVVector3@4@ABVEulerAngles@4@@Z 1004b130 f   replicatedlocalplayer.obj
 0001:0004a2b0       ?CalcTargetPitch@ReplicatedLocalPlayer@mod@csgo@aw@@QAEMXZ 1004b2b0 f   replicatedlocalplayer.obj
 0001:0004a460       ?CalcViewPosition@ReplicatedLocalPlayer@mod@csgo@aw@@QAEXAAVVector3@4@@Z 1004b460 f   replicatedlocalplayer.obj
 0001:0004a540       ?DoAnimationEvent@ReplicatedLocalPlayer@mod@csgo@aw@@IAEXW4PlayerAnimEvent_t@sdk@34@@Z 1004b540 f   replicatedlocalplayer.obj
 0001:0004a570       ?GetAbsAngles@ReplicatedLocalPlayer@mod@csgo@aw@@UAEAAVEulerAngles@4@XZ 1004b570 f i replicatedlocalplayer.obj
 0001:0004a580       ?GetAnimLayers@ReplicatedLocalPlayer@mod@csgo@aw@@UAEAAVReplicatedAnimLayers@234@XZ 1004b580 f i replicatedlocalplayer.obj
 0001:0004a590       ?GetEyeAngles@ReplicatedLocalPlayer@mod@csgo@aw@@UAEAAVEulerAngles@4@XZ 1004b590 f i replicatedlocalplayer.obj
 0001:0004a5a0       ?GetPoseParams@ReplicatedLocalPlayer@mod@csgo@aw@@UAEAAV?$array@M$0BI@@std@@XZ 1004b5a0 f i replicatedlocalplayer.obj
 0001:0004a5b0       ?GetType@ReplicatedLocalPlayer@mod@csgo@aw@@UAE?AW4ReplicatedType@234@XZ 1004b5b0 f i replicatedlocalplayer.obj
 0001:0004a5c0       ?PostDataUpdate@ReplicatedLocalPlayer@mod@csgo@aw@@UAEXW4DataUpdateType@sdk@34@@Z 1004b5c0 f   replicatedlocalplayer.obj
 0001:0004a610       ?PostMove@ReplicatedLocalPlayer@mod@csgo@aw@@QAEXPAVUserCmd@sdk@34@@Z 1004b610 f   replicatedlocalplayer.obj
 0001:0004a650       ?PostThink@ReplicatedLocalPlayer@mod@csgo@aw@@QAEXHAAVEulerAngles@4@_N11@Z 1004b650 f   replicatedlocalplayer.obj
 0001:0004aa60       ?PreMove@ReplicatedLocalPlayer@mod@csgo@aw@@QAEXPAVUserCmd@sdk@34@@Z 1004ba60 f   replicatedlocalplayer.obj
 0001:0004ab00       ?ResimulatePredictedFrame@ReplicatedLocalPlayer@mod@csgo@aw@@QAEXH@Z 1004bb00 f   replicatedlocalplayer.obj
 0001:0004ab50       ?RestoreEntityToPredictedFrame@ReplicatedLocalPlayer@mod@csgo@aw@@QAEXH@Z 1004bb50 f   replicatedlocalplayer.obj
 0001:0004abc0       ?SetupFakeBones@ReplicatedLocalPlayer@mod@csgo@aw@@QAEXPAVMatrix3x4@4@@Z 1004bbc0 f   replicatedlocalplayer.obj
 0001:0004ac40       ?__offset_IsInReload@BaseCombatWeapon@sdk@csgo@aw@@QAEHXZ 1004bc40 f i replicatedlocalplayer.obj
 0001:0004ac70       ??0ReplicatedBoneState@mod@csgo@aw@@QAE@XZ 1004bc70 f i replicatedplayer.obj
 0001:0004af00       ??0ReplicatedPlayer@mod@csgo@aw@@QAE@PAVCSPlayer@sdk@23@@Z 1004bf00 f   replicatedplayer.obj
 0001:0004b0d0       ??1ReplicatedPlayer@mod@csgo@aw@@UAE@XZ 1004c0d0 f   replicatedplayer.obj
 0001:0004b170       ??_EReplicatedPlayer@mod@csgo@aw@@UAEPAXI@Z 1004c170 f i replicatedplayer.obj
 0001:0004b170       ??_GReplicatedPlayer@mod@csgo@aw@@UAEPAXI@Z 1004c170 f i replicatedplayer.obj
 0001:0004b230       ?AnimLayerUpdate@ReplicatedPlayer@mod@csgo@aw@@UAEXAAUAnimLayerVar@hk@34@@Z 1004c230 f   replicatedplayer.obj
 0001:0004b270       ?AnimLayerUpdate@ReplicatedPlayer@mod@csgo@aw@@UAEXHPAVRecvProxyData@sdk@34@@Z 1004c270 f   replicatedplayer.obj
 0001:0004b2d0       ?GetAbsAngles@ReplicatedPlayer@mod@csgo@aw@@UAEAAVEulerAngles@4@XZ 1004c2d0 f i replicatedplayer.obj
 0001:0004b2e0       ?GetAnimLayers@ReplicatedPlayer@mod@csgo@aw@@UAEAAVReplicatedAnimLayers@234@XZ 1004c2e0 f i replicatedplayer.obj
 0001:0004b2f0       ?GetEyeAngles@ReplicatedPlayer@mod@csgo@aw@@UAEAAVEulerAngles@4@XZ 1004c2f0 f i replicatedplayer.obj
 0001:0004b300       ?GetPoseParams@ReplicatedPlayer@mod@csgo@aw@@UAEAAV?$array@M$0BI@@std@@XZ 1004c300 f i replicatedplayer.obj
 0001:0004b310       ?PostDataUpdate@ReplicatedPlayer@mod@csgo@aw@@UAEXW4DataUpdateType@sdk@34@@Z 1004c310 f   replicatedplayer.obj
 0001:0004b320       ?PostDataUpdateEnd@ReplicatedPlayer@mod@csgo@aw@@UAEXXZ 1004c320 f   replicatedplayer.obj
 0001:0004b330       ?PostDataUpdateStart@ReplicatedPlayer@mod@csgo@aw@@UAE_NXZ 1004c330 f   replicatedplayer.obj
 0001:0004b360       ?SetupBones@ReplicatedPlayer@mod@csgo@aw@@QAEXPAVMatrix3x4@4@HH@Z 1004c360 f   replicatedplayer.obj
 0001:0004b570       ??$_Resize_reallocate@U_Value_init_tag@std@@@?$vector@VAttachmentData@sdk@csgo@aw@@V?$allocator@VAttachmentData@sdk@csgo@aw@@@std@@@std@@AAEXIABU_Value_init_tag@1@@Z 1004c570 f i replicatedbonestate.obj
 0001:0004b6c0       ??0ReplicatedBoneStateBackup@mod@csgo@aw@@QAE@PAVReplicatedBoneState@123@@Z 1004c6c0 f   replicatedbonestate.obj
 0001:0004b7d0       ??0ReplicatedPlayerLock@mod@csgo@aw@@QAE@PAVReplicatedBoneState@123@PAVCSPlayer@sdk@23@MM@Z 1004c7d0 f   replicatedbonestate.obj
 0001:0004b820       ??0ReplicatedPlayerLock@mod@csgo@aw@@QAE@PAVReplicatedBoneState@123@PAVModelHdr@sdk@23@1MM@Z 1004c820 f   replicatedbonestate.obj
 0001:0004b870       ??1ReplicatedBoneStateBackup@mod@csgo@aw@@QAE@XZ 1004c870 f   replicatedbonestate.obj
 0001:0004b900       ??1ReplicatedPlayerLock@mod@csgo@aw@@QAE@XZ 1004c900 f   replicatedbonestate.obj
 0001:0004b920       ??Bmatrix3x4_t@sdk@csgo@aw@@QAE?AVMatrix3x4@3@XZ 1004c920 f i replicatedbonestate.obj
 0001:0004b940       ?CalculateIKLocks@ReplicatedBoneState@mod@csgo@aw@@IAEXABVVector3@4@ABVEulerAngles@4@@Z 1004c940 f   replicatedbonestate.obj
 0001:0004bba0       ?ClampBonesBoundingBox@ReplicatedBoneState@mod@csgo@aw@@IAEXPAVMatrix3x4@4@HABVVector3@4@ABVEulerAngles@4@@Z 1004cba0 f   replicatedbonestate.obj
 0001:0004c250       ?GetAttachment@ModelHdr@sdk@csgo@aw@@QAEAAUStudioAttachment@234@H@Z 1004d250 f i replicatedbonestate.obj
 0001:0004c2b0       ?GetLayerSequenceCycleRate@ReplicatedBoneState@mod@csgo@aw@@QAEMPAVAnimationLayer@sdk@34@HAAV?$array@M$0BI@@std@@@Z 1004d2b0 f   replicatedbonestate.obj
 0001:0004c300       ?GetSkeleton@ReplicatedBoneState@mod@csgo@aw@@IAEXPAVModelHdr@sdk@34@QAVVector3@4@QAVQuaternionAligned@4@HABV74@ABVEulerAngles@4@AAV?$array@M$0BI@@std@@AAVReplicatedAnimLayers@234@@Z 1004d300 f   replicatedbonestate.obj
 0001:0004c920       ?Init@BoneMergeCache@mod@csgo@aw@@QAEXPAVModelHdr@sdk@34@0@Z 1004d920 f   replicatedbonestate.obj
 0001:0004cc80       ?IsValid@ReplicatedBoneState@mod@csgo@aw@@QAE_NXZ 1004dc80 f   replicatedbonestate.obj
 0001:0004cca0       ?SetupBones@ReplicatedBoneState@mod@csgo@aw@@QAEXABVVector3@4@ABVEulerAngles@4@1AAV?$array@M$0BI@@std@@AAVReplicatedAnimLayers@234@PAVMatrix3x4@4@H@Z 1004dca0 f   replicatedbonestate.obj
 0001:0004ce10       ?SetupBones_AttachmentHelper@ReplicatedBoneState@mod@csgo@aw@@QAEXPAVMatrix3x4@4@AAV?$vector@VAttachmentData@sdk@csgo@aw@@V?$allocator@VAttachmentData@sdk@csgo@aw@@@std@@@std@@@Z 1004de10 f   replicatedbonestate.obj
 0001:0004d150       ?SetupBones_DispatchOnly@ReplicatedBoneState@mod@csgo@aw@@QAEXAAVReplicatedAnimLayers@234@@Z 1004e150 f   replicatedbonestate.obj
 0001:0004d1c0       ?UpdateDispatchLayer@ReplicatedBoneState@mod@csgo@aw@@IAE_NPAVAnimationLayer@sdk@34@PAVModelHdr@634@H@Z 1004e1c0 f   replicatedbonestate.obj
 0001:0004d2f0       ?UpdateFromCSPlayer@ReplicatedBoneState@mod@csgo@aw@@QAEXPAVCSPlayer@sdk@34@MM@Z 1004e2f0 f   replicatedbonestate.obj
 0001:0004dab0       ?UpdateFromCustom@ReplicatedBoneState@mod@csgo@aw@@QAEXPAVModelHdr@sdk@34@0MM@Z 1004eab0 f   replicatedbonestate.obj
 0001:0004de10       ?_Xlength@?$vector@VAttachmentData@sdk@csgo@aw@@V?$allocator@VAttachmentData@sdk@csgo@aw@@@std@@@std@@CAXXZ 1004ee10 f i replicatedbonestate.obj
 0001:0004de20       ?__offset_GetEncodedController@BaseAnimating@sdk@csgo@aw@@QAEHXZ 1004ee20 f i replicatedbonestate.obj
 0001:0004de50       ??0ReplicatedTeamPlayer@mod@csgo@aw@@QAE@PAVCSPlayer@sdk@23@@Z 1004ee50 f   replicatedteamplayer.obj
 0001:0004dea0       ??_EReplicatedTeamPlayer@mod@csgo@aw@@UAEPAXI@Z 1004eea0 f i replicatedteamplayer.obj
 0001:0004dea0       ??_GReplicatedTeamPlayer@mod@csgo@aw@@UAEPAXI@Z 1004eea0 f i replicatedteamplayer.obj
 0001:0004ded0       ?GetType@ReplicatedTeamPlayer@mod@csgo@aw@@UAE?AW4ReplicatedType@234@XZ 1004eed0 f i replicatedteamplayer.obj
 0001:0004dee0       ??$?HDU?$char_traits@D@std@@V?$allocator@D@1@@std@@YA?AV?$basic_string@DU?$char_traits@D@std@@V?$allocator@D@2@@0@$$QAV10@QBD@Z 1004eee0 f i shotanalysis.obj
 0001:0004df30       ??$FormatString@AAV?$basic_string@DU?$char_traits@D@std@@V?$allocator@D@2@@std@@@aw@@YA?AV?$basic_string@DU?$char_traits@D@std@@V?$allocator@D@2@@std@@V?$basic_format_string@DAAV?$basic_string@DU?$char_traits@D@std@@V?$allocator@D@2@@std@@@v9@fmt@@AAV12@@Z 1004ef30 f i shotanalysis.obj
 0001:0004df90       ??$FormatString@AAY0IA@DV?$basic_string@DU?$char_traits@D@std@@V?$allocator@D@2@@std@@AAV12@@aw@@YA?AV?$basic_string@DU?$char_traits@D@std@@V?$allocator@D@2@@std@@V?$basic_format_string@DAAY0IA@DV?$basic_string@DU?$char_traits@D@std@@V?$allocator@D@2@@std@@AAV12@@v9@fmt@@AAY0IA@D$$QAV12@AAV12@@Z 1004ef90 f i shotanalysis.obj
 0001:0004e020       ??$FormatString@PBDV?$basic_string@DU?$char_traits@D@std@@V?$allocator@D@2@@std@@@aw@@YA?AV?$basic_string@DU?$char_traits@D@std@@V?$allocator@D@2@@std@@V?$basic_format_string@DPBDV?$basic_string@DU?$char_traits@D@std@@V?$allocator@D@2@@std@@@v9@fmt@@$$QAPBD$$QAV12@@Z 1004f020 f i shotanalysis.obj
 0001:0004e090       ??$_Reallocate_grow_by@V<lambda_1>@?1??append@?$basic_string@DU?$char_traits@D@std@@V?$allocator@D@2@@std@@QAEAAV34@QBDI@Z@PBDI@?$basic_string@DU?$char_traits@D@std@@V?$allocator@D@2@@std@@AAEAAV01@IV<lambda_1>@?1??append@01@QAEAAV01@QBDI@Z@PBDI@Z 1004f090 f i shotanalysis.obj
 0001:0004e1d0       ??0ShotAnalysis@impl@mod@csgo@aw@@QAE@XZ 1004f1d0 f i shotanalysis.obj
 0001:0004e3d0       ??4?$basic_string@DU?$char_traits@D@std@@V?$allocator@D@2@@std@@QAEAAV01@QBD@Z 1004f3d0 f i shotanalysis.obj
 0001:0004e400       ??_E?$ModuleBaseImpl@VShotAnalysis@mod@csgo@aw@@V?$TypedObject@VShotAnalysis@mod@csgo@aw@@VModuleBase@4@@4@@aw@@UAEPAXI@Z 1004f400 f i shotanalysis.obj
 0001:0004e400       ??_G?$ModuleBaseImpl@VShotAnalysis@mod@csgo@aw@@V?$TypedObject@VShotAnalysis@mod@csgo@aw@@VModuleBase@4@@4@@aw@@UAEPAXI@Z 1004f400 f i shotanalysis.obj
 0001:0004e430       ??_EShotAnalysis@impl@mod@csgo@aw@@UAEPAXI@Z 1004f430 f i shotanalysis.obj
 0001:0004e430       ??_GShotAnalysis@impl@mod@csgo@aw@@UAEPAXI@Z 1004f430 f i shotanalysis.obj
 0001:0004e460       ?CreateModule@?$ModuleWithFactory@VShotAnalysis@mod@csgo@aw@@@aw@@SAPAVShotAnalysis@mod@csgo@2@XZ 1004f460 f   shotanalysis.obj
 0001:0004e490       ?GetCSPlayer@sdk@csgo@aw@@YAPAVCSPlayer@123@H@Z 1004f490 f i shotanalysis.obj
 0001:0004e4d0       ?GetId@?$TypedObject@VShotAnalysis@mod@csgo@aw@@VModuleBase@4@@aw@@UAEIXZ 1004f4d0 f i shotanalysis.obj
 0001:0004e4e0       ?GetLastShot@ShotAnalysis@impl@mod@csgo@aw@@UAEPAUShotLog@345@_N@Z 1004f4e0 f   shotanalysis.obj
 0001:0004e550       ?GetLogs@ShotAnalysis@impl@mod@csgo@aw@@UAEAAV?$CircularBuffer@UShotLog@mod@csgo@aw@@$0CA@@5@XZ 1004f550 f i shotanalysis.obj
 0001:0004e560       ?LogOtherShot@ShotAnalysis@impl@mod@csgo@aw@@IAEXPAVGameEvent@sdk@45@HH@Z 1004f560 f   shotanalysis.obj
 0001:0004fa80       ?OnFinishMove@ShotAnalysis@impl@mod@csgo@aw@@IAEXAAULocalFinishMove@345@@Z 10050a80 f   shotanalysis.obj
 0001:0004fca0       ?OnGameEvent@ShotAnalysis@impl@mod@csgo@aw@@IAEXAAUGameEvent@hk@45@@Z 10050ca0 f   shotanalysis.obj
 0001:000507a0       ?OnPostDataUpdate@ShotAnalysis@impl@mod@csgo@aw@@IAEXAAUPlayerPostDataUpdate@hk@45@@Z 100517a0 f   shotanalysis.obj
 0001:00050830       ?ShotDistanceToHitboxes@ShotAnalysis@impl@mod@csgo@aw@@IAEMPAUShotLog@345@PAUStudioHitboxSet@sdk@45@PAVMatrix3x4@5@@Z 10051830 f   shotanalysis.obj
 0001:00050990       ?append@?$basic_string@DU?$char_traits@D@std@@V?$allocator@D@2@@std@@QAEAAV12@ABV12@@Z 10051990 f i shotanalysis.obj
 0001:00050a00       ?append@?$basic_string@DU?$char_traits@D@std@@V?$allocator@D@2@@std@@QAEAAV12@QBD@Z 10051a00 f i shotanalysis.obj
 0001:00050a70       ??0Edge@dt@@QAE@AAUVector2@1@0@Z 10051a70 f   edge.obj
 0001:00050a90       ?almost_equal@dt@@YA_NABUEdge@1@0@Z 10051a90 f   edge.obj
 0001:00050af0       ??$_Emplace_reallocate@UEdge@dt@@@?$vector@UEdge@dt@@V?$allocator@UEdge@dt@@@std@@@std@@AAEPAUEdge@dt@@QAU23@$$QAU23@@Z 10051af0 f i delaunay.obj
 0001:00050c80       ??$_Emplace_reallocate@UTriangle@dt@@@?$vector@UTriangle@dt@@V?$allocator@UTriangle@dt@@@std@@@std@@AAEPAUTriangle@dt@@QAU23@$$QAU23@@Z 10051c80 f i delaunay.obj
 0001:00050e10       ?_Xlength@?$vector@UEdge@dt@@V?$allocator@UEdge@dt@@@std@@@std@@CAXXZ 10051e10 f i delaunay.obj
 0001:00050e20       ?_Xlength@?$vector@UTriangle@dt@@V?$allocator@UTriangle@dt@@@std@@@std@@CAXXZ 10051e20 f i delaunay.obj
 0001:00050e30       ?triangulate@Delaunay@dt@@QAEAAV?$vector@UTriangle@dt@@V?$allocator@UTriangle@dt@@@std@@@std@@AAV?$vector@UVector2@dt@@V?$allocator@UVector2@dt@@@std@@@4@@Z 10051e30 f   delaunay.obj
 0001:00051620       ?almost_equal@dt@@YA_NMMH@Z 10052620 f   numeric.obj
 0001:00051670       ?half@dt@@YAMM@Z           10052670 f   numeric.obj
 0001:00051680       ??0Triangle@dt@@QAE@AAUVector2@1@00@Z 10052680 f   triangle.obj
 0001:000516a0       ?circumCircleContains@Triangle@dt@@QBE_NABUVector2@2@@Z 100526a0 f   triangle.obj
 0001:00051840       ?containsVertex@Triangle@dt@@QBE_NABUVector2@2@@Z 10052840 f   triangle.obj
 0001:00051890       ??0Vector2@dt@@QAE@MM@Z    10052890 f   vector2.obj
 0001:000518b0       ?almost_equal@dt@@YA_NABUVector2@1@0H@Z 100528b0 f   vector2.obj
 0001:00051920       ?dist2@Vector2@dt@@QBEMABU12@@Z 10052920 f   vector2.obj
 0001:00051950       ?norm2@Vector2@dt@@QBEMXZ  10052950 f   vector2.obj
 0001:00051970       ??$_Guess_median_unchecked@PAMU?$less@X@std@@@std@@YAXPAM00U?$less@X@0@@Z 10052970 f i tracehitchance.obj
 0001:00051af0       ??$_Pop_heap_hole_by_index@PAMMU?$less@X@std@@@std@@YAXPAMHH$$QAMU?$less@X@0@@Z 10052af0 f i tracehitchance.obj
 0001:00051b90       ??$_Sort_unchecked@PAMU?$less@X@std@@@std@@YAXPAM0HU?$less@X@0@@Z 10052b90 f i tracehitchance.obj
 0001:00051ed0       ?GetSpreadAtDistance@TraceHitChance@mod@csgo@aw@@QAEMM@Z 10052ed0 f   tracehitchance.obj
 0001:00051ee0       ?GetSpreadMaxAtDistance@TraceHitChance@mod@csgo@aw@@QAEMM@Z 10052ee0 f   tracehitchance.obj
 0001:00051ef0       ?IsWeaponMostAccurate@TraceHitChance@mod@csgo@aw@@QAE_NXZ 10052ef0 f   tracehitchance.obj
 0001:00051f00       ?_Change_array@?$vector@USpreadCache@TraceHitChance@mod@csgo@aw@@V?$allocator@USpreadCache@TraceHitChance@mod@csgo@aw@@@std@@@std@@AAEXQAUSpreadCache@TraceHitChance@mod@csgo@aw@@II@Z 10052f00 f i tracehitchance.obj
 0001:00051f70       ?_Xlength@?$vector@MV?$allocator@M@std@@@std@@CAXXZ 10052f70 f i tracehitchance.obj
 0001:00051f80       ?_Xlength@?$vector@USpreadCache@TraceHitChance@mod@csgo@aw@@V?$allocator@USpreadCache@TraceHitChance@mod@csgo@aw@@@std@@@std@@CAXXZ 10052f80 f i tracehitchance.obj
 0001:00051f90       ?allocate@?$allocator@M@std@@QAEPAMI@Z 10052f90 f i tracehitchance.obj
 0001:00051ff0       ?allocate@?$allocator@USpreadCache@TraceHitChance@mod@csgo@aw@@@std@@QAEPAUSpreadCache@TraceHitChance@mod@csgo@aw@@I@Z 10052ff0 f i tracehitchance.obj
 0001:00052050       ?ClipTraceToTeammates@TraceBullet@mod@csgo@aw@@IAEXABURay@sdk@34@PAVTrace@634@MMPA_NM@Z 10053050 f   tracebullet.obj
 0001:00052240       ?Get@IPhysicsSurfaceProps@sdk@csgo@aw@@SAPAV1234@XZ 10053240 f i tracebullet.obj
 0001:00052250       ?GetDynamic@IPhysicsSurfaceProps@sdk@csgo@aw@@SAPAV1234@XZ 10053250 f i tracebullet.obj
 0001:00052270       ?GetPointContents@TraceBullet@mod@csgo@aw@@IAEHABVVector3@4@H@Z 10053270 f   tracebullet.obj
 0001:00052390       ?HandleBulletPenetration@TraceBullet@mod@csgo@aw@@IAE_NAAVTrace@sdk@34@@Z 10053390 f   tracebullet.obj
 0001:00052720       ?Init@TraceBullet@mod@csgo@aw@@UAE_NPAVCSPlayer@sdk@34@@Z 10053720 f   tracebullet.obj
 0001:00052750       ?Init@TraceBullet@mod@csgo@aw@@UAE_NPAVCSPlayer@sdk@34@PAVWeaponCSBase@634@@Z 10053750 f   tracebullet.obj
 0001:000527a0       ?Process@TraceBullet@mod@csgo@aw@@UAE_NABVVector3@4@0I@Z 100537a0 f   tracebullet.obj
 0001:000528d0       ?SetupAttackerHitboxInfo@TraceBullet@mod@csgo@aw@@IAEXXZ 100538d0 f   tracebullet.obj
 0001:00052aa0       ?ShouldIgnoreEntity@TraceBullet@mod@csgo@aw@@SA_NPAVHandleEntity@sdk@34@@Z 10053aa0 f   tracebullet.obj
 0001:00052ae0       ?TraceAccurate@TraceBullet@mod@csgo@aw@@IAE_NXZ 10053ae0 f   tracebullet.obj
 0001:00052e60       ?TraceToExit@TraceBullet@mod@csgo@aw@@IAE_NAAVTrace@sdk@34@0@Z 10053e60 f   tracebullet.obj
 0001:00053240       ?GetTraceType@TraceBulletFilter@mod@csgo@aw@@UAE?AW4TraceType@sdk@34@XZ 10054240 f   tracebulletfilter.obj
 0001:00053250       ?GetTraceType@TraceBulletFilterHitAll@mod@csgo@aw@@UAE?AW4TraceType@sdk@34@XZ 10054250 f   tracebulletfilter.obj
 0001:00053260       ?ShouldHitEntity@TraceBulletFilter@mod@csgo@aw@@UAE_NPAVHandleEntity@sdk@34@H@Z 10054260 f   tracebulletfilter.obj
 0001:00053290       ?ShouldHitEntity@TraceBulletFilterHitAll@mod@csgo@aw@@UAE_NPAVHandleEntity@sdk@34@H@Z 10054290 f   tracebulletfilter.obj
 0001:000532b0       ??$_Find_lower_bound@PAVBaseEntity@sdk@csgo@aw@@@?$_Tree@V?$_Tset_traits@PAVBaseEntity@sdk@csgo@aw@@U?$less@PAVBaseEntity@sdk@csgo@aw@@@std@@V?$allocator@PAVBaseEntity@sdk@csgo@aw@@@6@$0A@@std@@@std@@IBE?AU?$_Tree_find_result@PAU?$_Tree_node@PAVBaseEntity@sdk@csgo@aw@@PAX@std@@@1@ABQAVBaseEntity@sdk@csgo@aw@@@Z 100542b0 f i tracegrenade.obj
 0001:00053300       ?CalcDistanceToTarget@TraceGrenade@mod@csgo@aw@@QAEMXZ 10054300 f   tracegrenade.obj
 0001:00053880       ?CalcStartParameters@TraceGrenade@mod@csgo@aw@@MAEXAAVVector3@4@0@Z 10054880 f   tracegrenade.obj
 0001:00053c80       ?GetTraceType@TraceGrenadeFilter@mod@csgo@aw@@UAE?AW4TraceType@sdk@34@XZ 10054c80 f   tracegrenade.obj
 0001:00053c90       ?Init@TraceGrenade@mod@csgo@aw@@QAE_NPAVBaseCSGrenadeProjectile@sdk@34@@Z 10054c90 f   tracegrenade.obj
 0001:00053d10       ?Init@TraceGrenade@mod@csgo@aw@@QAE_NPAVCSPlayer@sdk@34@@Z 10054d10 f   tracegrenade.obj
 0001:00053d90       ?Process@TraceGrenade@mod@csgo@aw@@QAEXXZ 10054d90 f   tracegrenade.obj
 0001:00054320       ?PushEntity@TraceGrenade@mod@csgo@aw@@IAEXABVVector3@4@PAVTrace@sdk@34@@Z 10055320 f   tracegrenade.obj
 0001:00054450       ?ShouldHitEntity@TraceGrenadeFilter@mod@csgo@aw@@UAE_NPAVBaseEntity@sdk@34@H@Z 10055450 f   tracegrenade.obj
 0001:000544b0       ?_Insert_node@?$_Tree_val@U?$_Tree_simple_types@PAVBaseEntity@sdk@csgo@aw@@@std@@@std@@QAEPAU?$_Tree_node@PAVBaseEntity@sdk@csgo@aw@@PAX@2@U?$_Tree_id@PAU?$_Tree_node@PAVBaseEntity@sdk@csgo@aw@@PAX@std@@@2@QAU32@@Z 100554b0 f i tracegrenade.obj
 0001:000546a0       ?clear@?$_Tree@V?$_Tset_traits@PAVBaseEntity@sdk@csgo@aw@@U?$less@PAVBaseEntity@sdk@csgo@aw@@@std@@V?$allocator@PAVBaseEntity@sdk@csgo@aw@@@6@$0A@@std@@@std@@QAEXXZ 100556a0 f i tracegrenade.obj
 0001:000546f0       ??0TraceHideDirection@mod@csgo@aw@@QAE@PAVCSPlayer@sdk@23@ABVVector3@3@@Z 100556f0 f   tracehidedirection.obj
 0001:00054710       ?_Xlength@?$vector@U?$pair@VVector2@aw@@V12@@std@@V?$allocator@U?$pair@VVector2@aw@@V12@@std@@@2@@std@@CAXXZ 10055710 f i tracehidedirection.obj
 0001:00054720       ?AddScanMatrix@TraceHitboxScan@mod@csgo@aw@@QAEXPAVMatrix3x4@4@@Z 10055720 f   tracehitboxscan.obj
 0001:00054740       ?AddShootPos@TraceHitboxScan@mod@csgo@aw@@QAEXABVVector3@4@@Z 10055740 f   tracehitboxscan.obj
 0001:00054770       ?GetHitboxTransform@TraceHitboxScan@mod@csgo@aw@@SAXPAUStudioHitbox@sdk@34@PAVMatrix3x4@4@AAV74@@Z 10055770 f   tracehitboxscan.obj
 0001:00054830       ?Init@TraceHitboxScan@mod@csgo@aw@@QAEXPAVCSPlayer@sdk@34@PAVWeaponCSBase@634@ABVVector3@4@0PAVMatrix3x4@4@@Z 10055830 f   tracehitboxscan.obj
 0001:00054890       ?Process@TraceHitboxScan@mod@csgo@aw@@QAEXPAUStudioHitbox@sdk@34@PAUStudioHitboxSet@634@PAVTraceHitChance@234@_N3@Z 10055890 f   tracehitboxscan.obj
 0001:00055930       ?CalcDamage@TraceKnifeAttack@mod@csgo@aw@@QAEH_N0@Z 10056930 f   traceknifeattack.obj
 0001:000559f0       ?Init@TraceKnifeAttack@mod@csgo@aw@@QAE_NPAVAimbotBase@234@AAULocalPostMove@234@@Z 100569f0 f   traceknifeattack.obj
 0001:00055a50       ?SwingAnyPlayer@TraceKnifeAttack@mod@csgo@aw@@QAEXPAVUserCmd@sdk@34@M@Z 10056a50 f   traceknifeattack.obj
 0001:00055c60       ?SwingPlayer@TraceKnifeAttack@mod@csgo@aw@@QAE?AW4TraceKnifeResult@234@AAVEulerAngles@4@PAVCSPlayer@sdk@34@W4RageKnifebotMode@ui@34@PAUReplicatedRecord@234@@Z 10056c60 f   traceknifeattack.obj
 0001:00055f30       ?TraceKnife@TraceKnifeAttack@mod@csgo@aw@@QAE?AW4TraceKnifeResult@234@PAVCSPlayer@sdk@34@ABVVector3@4@_NPAUReplicatedRecord@234@@Z 10056f30 f   traceknifeattack.obj
 0001:00056290       ?OnBulletExit@TraceWallbang@mod@csgo@aw@@UAE_NPAVTrace@sdk@34@@Z 10057290 f   tracewallbang.obj
 0001:000562a0       ?OnBulletHit@TraceWallbang@mod@csgo@aw@@UAE_NPAVTrace@sdk@34@@Z 100572a0 f   tracewallbang.obj
 0001:000562e0       ?OnBulletTravel@TraceWallbang@mod@csgo@aw@@UAE_NMPAVTrace@sdk@34@@Z 100572e0 f   tracewallbang.obj
 0001:00056310       ?Process@TraceWallbang@mod@csgo@aw@@UAE_NABVVector3@4@0I@Z 10057310 f   tracewallbang.obj
 0001:00056330       ??_E?$ModuleBaseImpl@VCamera@mod@csgo@aw@@V?$TypedObject@VCamera@mod@csgo@aw@@VModuleBase@4@@4@@aw@@UAEPAXI@Z 10057330 f i camera.obj
 0001:00056330       ??_G?$ModuleBaseImpl@VCamera@mod@csgo@aw@@V?$TypedObject@VCamera@mod@csgo@aw@@VModuleBase@4@@4@@aw@@UAEPAXI@Z 10057330 f i camera.obj
 0001:00056360       ??_ECamera@impl@mod@csgo@aw@@UAEPAXI@Z 10057360 f i camera.obj
 0001:00056360       ??_GCamera@impl@mod@csgo@aw@@UAEPAXI@Z 10057360 f i camera.obj
 0001:00056390       ?CreateModule@?$ModuleWithFactory@VCamera@mod@csgo@aw@@@aw@@SAPAVCamera@mod@csgo@2@XZ 10057390 f   camera.obj
 0001:00056520       ?GetId@?$TypedObject@VCamera@mod@csgo@aw@@VModuleBase@4@@aw@@UAEIXZ 10057520 f i camera.obj
 0001:00056530       ?OnAllowThirdPersonCamera@Camera@impl@mod@csgo@aw@@IAEXAAUAllowThirdPersonCamera@hk@45@@Z 10057530 f   camera.obj
 0001:00056560       ?OnFrame@Camera@impl@mod@csgo@aw@@IAEXAAURenderFrame@gfx@5@@Z 10057560 f   camera.obj
 0001:000566a0       ?OnOverrideView@Camera@impl@mod@csgo@aw@@IAEXAAUOverrideView@hk@45@@Z 100576a0 f   camera.obj
 0001:000568c0       ?OnPostCalcView@Camera@impl@mod@csgo@aw@@IAEXAAUPlayerCalcView@hk@45@@Z 100578c0 f   camera.obj
 0001:00056940       ?OnPreCalcView@Camera@impl@mod@csgo@aw@@IAEXAAUPlayerCalcView@hk@45@@Z 10057940 f   camera.obj
 0001:000569f0       ??$_Emplace_reallocate@PAVMaterial@sdk@csgo@aw@@@?$vector@PAVMaterial@sdk@csgo@aw@@V?$allocator@PAVMaterial@sdk@csgo@aw@@@std@@@std@@AAEPAPAVMaterial@sdk@csgo@aw@@QAPAV2345@$$QAPAV2345@@Z 100579f0 f i gamevisuals.obj
 0001:00056b30       ??_E?$ModuleBaseImpl@VGameVisuals@mod@csgo@aw@@V?$TypedObject@VGameVisuals@mod@csgo@aw@@VModuleBase@4@@4@@aw@@UAEPAXI@Z 10057b30 f i gamevisuals.obj
 0001:00056b30       ??_G?$ModuleBaseImpl@VGameVisuals@mod@csgo@aw@@V?$TypedObject@VGameVisuals@mod@csgo@aw@@VModuleBase@4@@4@@aw@@UAEPAXI@Z 10057b30 f i gamevisuals.obj
 0001:00056b60       ??_EGameVisuals@impl@mod@csgo@aw@@UAEPAXI@Z 10057b60 f i gamevisuals.obj
 0001:00056b60       ??_GGameVisuals@impl@mod@csgo@aw@@UAEPAXI@Z 10057b60 f i gamevisuals.obj
 0001:00056b90       ?ApplySkyMaterialSuppression@GameVisuals@impl@mod@csgo@aw@@IAEX_N@Z 10057b90 f   gamevisuals.obj
 0001:00057300       ?CreateModule@?$ModuleWithFactory@VGameVisuals@mod@csgo@aw@@@aw@@SAPAVGameVisuals@mod@csgo@2@XZ 10058300 f   gamevisuals.obj
 0001:00057450       ?Get@MaterialSystem@sdk@csgo@aw@@SAPAV1234@XZ 10058450 f i gamevisuals.obj
 0001:00057460       ?GetId@?$TypedObject@VGameVisuals@mod@csgo@aw@@VModuleBase@4@@aw@@UAEIXZ 10058460 f i gamevisuals.obj
 0001:00057470       ?HandleCensorship@GameVisuals@impl@mod@csgo@aw@@IAEXXZ 10058470 f   gamevisuals.obj
 0001:00057590       ?HandleSkyColor@GameVisuals@impl@mod@csgo@aw@@IAEXXZ 10058590 f   gamevisuals.obj
 0001:000577d0       ?OnDrawWorldLists@GameVisuals@impl@mod@csgo@aw@@IAEXAAUDrawWorldLists@hk@45@@Z 100587d0 f   gamevisuals.obj
 0001:000578a0       ?OnGameEvent@GameVisuals@impl@mod@csgo@aw@@IAEXAAUGameEvent@hk@45@@Z 100588a0 f   gamevisuals.obj
 0001:000578c0       ?OnPreRender@GameVisuals@impl@mod@csgo@aw@@IAEXAAURenderFrame@gfx@5@@Z 100588c0 f   gamevisuals.obj
 0001:00057a60       ?_Xlength@?$vector@PAVMaterial@sdk@csgo@aw@@V?$allocator@PAVMaterial@sdk@csgo@aw@@@std@@@std@@CAXXZ 10058a60 f i gamevisuals.obj
 0001:00057a70       ??$_Assign_counted_range@PAUEventLogItem@impl@mod@csgo@aw@@@?$vector@UEventLogItem@impl@mod@csgo@aw@@V?$allocator@UEventLogItem@impl@mod@csgo@aw@@@std@@@std@@AAEXPAUEventLogItem@impl@mod@csgo@aw@@I@Z 10058a70 f i eventlog.obj
 0001:00057c90       ??$_Destroy_range@V?$allocator@UEventLogItem@impl@mod@csgo@aw@@@std@@@std@@YAXPAUEventLogItem@impl@mod@csgo@aw@@QAU12345@AAV?$allocator@UEventLogItem@impl@mod@csgo@aw@@@0@@Z 10058c90 f i eventlog.obj
 0001:00057cf0       ??$_Emplace_reallocate@ABUEventLogItem@impl@mod@csgo@aw@@@?$vector@UEventLogItem@impl@mod@csgo@aw@@V?$allocator@UEventLogItem@impl@mod@csgo@aw@@@std@@@std@@AAEPAUEventLogItem@impl@mod@csgo@aw@@QAU23456@ABU23456@@Z 10058cf0 f i eventlog.obj
 0001:00057e70       ??$_Move_unchecked@PAUEventLogItem@impl@mod@csgo@aw@@PAU12345@@std@@YAPAUEventLogItem@impl@mod@csgo@aw@@PAU12345@00@Z 10058e70 f i eventlog.obj
 0001:00057ed0       ??$_Uninitialized_copy_n@PAUEventLogItem@impl@mod@csgo@aw@@V?$allocator@UEventLogItem@impl@mod@csgo@aw@@@std@@@std@@YAPAUEventLogItem@impl@mod@csgo@aw@@PAU12345@I0AAV?$allocator@UEventLogItem@impl@mod@csgo@aw@@@0@@Z 10058ed0 f i eventlog.obj
 0001:00057f30       ??$_Uninitialized_move@PAUEventLogItem@impl@mod@csgo@aw@@V?$allocator@UEventLogItem@impl@mod@csgo@aw@@@std@@@std@@YAPAUEventLogItem@impl@mod@csgo@aw@@QAU12345@0PAU12345@AAV?$allocator@UEventLogItem@impl@mod@csgo@aw@@@0@@Z 10058f30 f i eventlog.obj
 0001:00057ff0       ??0EventLog@impl@mod@csgo@aw@@QAE@XZ 10058ff0 f i eventlog.obj
 0001:00058190       ??1?$vector@UEventLogItem@impl@mod@csgo@aw@@V?$allocator@UEventLogItem@impl@mod@csgo@aw@@@std@@@std@@QAE@XZ 10059190 f i eventlog.obj
 0001:00058200       ??4?$basic_string@DU?$char_traits@D@std@@V?$allocator@D@2@@std@@QAEAAV01@$$QAV01@@Z 10059200 f i eventlog.obj
 0001:00058270       ??_E?$ModuleBaseImpl@VEventLog@mod@csgo@aw@@V?$TypedObject@VEventLog@mod@csgo@aw@@VModuleBase@4@@4@@aw@@UAEPAXI@Z 10059270 f i eventlog.obj
 0001:00058270       ??_G?$ModuleBaseImpl@VEventLog@mod@csgo@aw@@V?$TypedObject@VEventLog@mod@csgo@aw@@VModuleBase@4@@4@@aw@@UAEPAXI@Z 10059270 f i eventlog.obj
 0001:000582a0       ??_EEventLog@impl@mod@csgo@aw@@UAEPAXI@Z 100592a0 f i eventlog.obj
 0001:000582a0       ??_GEventLog@impl@mod@csgo@aw@@UAEPAXI@Z 100592a0 f i eventlog.obj
 0001:000582f0       ?CreateModule@?$ModuleWithFactory@VEventLog@mod@csgo@aw@@@aw@@SAPAVEventLog@mod@csgo@2@XZ 100592f0 f   eventlog.obj
 0001:00058320       ?GetId@?$TypedObject@VEventLog@mod@csgo@aw@@VModuleBase@4@@aw@@UAEIXZ 10059320 f i eventlog.obj
 0001:00058330       ?LimitPlayerInfoName@EventLog@impl@mod@csgo@aw@@UAEXPAUPlayerInfo@sdk@45@@Z 10059330 f   eventlog.obj
 0001:00058360       ?Msg@EventLog@impl@mod@csgo@aw@@UAEXUColor@gfx@5@V?$basic_string_view@DU?$char_traits@D@std@@@std@@@Z 10059360 f   eventlog.obj
 0001:00058380       ?MsgEx@EventLog@impl@mod@csgo@aw@@UAEXW4EventLogFont@345@UColor@gfx@5@V?$basic_string_view@DU?$char_traits@D@std@@@std@@@Z 10059380 f   eventlog.obj
 0001:000585e0       ?OnFireGameEvent@EventLog@impl@mod@csgo@aw@@IAEXAAUGameEvent@hk@45@@Z 100595e0 f   eventlog.obj
 0001:00058c40       ?OnGuiConsoleLog@EventLog@impl@mod@csgo@aw@@IAEXAAUCallbackGuiConsoleLog@ui@5@@Z 10059c40 f   eventlog.obj
 0001:00058ca0       ?OnRender@EventLog@impl@mod@csgo@aw@@IAEXAAURenderFrame@gfx@5@@Z 10059ca0 f   eventlog.obj
 0001:00059260       ?OnShutdown@EventLog@impl@mod@csgo@aw@@IAEXAAUCommonShutdown@5@@Z 1005a260 f   eventlog.obj
 0001:00059270       ?_Xlength@?$vector@UEventLogItem@impl@mod@csgo@aw@@V?$allocator@UEventLogItem@impl@mod@csgo@aw@@@std@@@std@@CAXXZ 1005a270 f i eventlog.obj
 0001:00059280       ?allocate@?$allocator@UEventLogItem@impl@mod@csgo@aw@@@std@@QAEPAUEventLogItem@impl@mod@csgo@aw@@I@Z 1005a280 f i eventlog.obj
 0001:000592e0       ??_E?$ModuleBaseImpl@VOverwatchRevealer@mod@csgo@aw@@V?$TypedObject@VOverwatchRevealer@mod@csgo@aw@@VModuleBase@4@@4@@aw@@UAEPAXI@Z 1005a2e0 f i overwatchrevealer.obj
 0001:000592e0       ??_G?$ModuleBaseImpl@VOverwatchRevealer@mod@csgo@aw@@V?$TypedObject@VOverwatchRevealer@mod@csgo@aw@@VModuleBase@4@@4@@aw@@UAEPAXI@Z 1005a2e0 f i overwatchrevealer.obj
 0001:00059310       ??_EOverwatchRevealer@impl@mod@csgo@aw@@UAEPAXI@Z 1005a310 f i overwatchrevealer.obj
 0001:00059310       ??_GOverwatchRevealer@impl@mod@csgo@aw@@UAEPAXI@Z 1005a310 f i overwatchrevealer.obj
 0001:00059340       ?CreateModule@?$ModuleWithFactory@VOverwatchRevealer@mod@csgo@aw@@@aw@@SAPAVOverwatchRevealer@mod@csgo@2@XZ 1005a340 f   overwatchrevealer.obj
 0001:00059470       ?GetId@?$TypedObject@VOverwatchRevealer@mod@csgo@aw@@VModuleBase@4@@aw@@UAEIXZ 1005a470 f i overwatchrevealer.obj
 0001:00059480       ?OnGetDemoPlaybackParameters@OverwatchRevealer@impl@mod@csgo@aw@@IAEXAAUGetDemoPlaybackParameters@hk@45@@Z 1005a480 f   overwatchrevealer.obj
 0001:000594f0       ?OnReadPacket@OverwatchRevealer@impl@mod@csgo@aw@@IAEXAAUReadPacket@hk@45@@Z 1005a4f0 f   overwatchrevealer.obj
 0001:00059540       ??1ChamsMaterial@mod@csgo@aw@@UAE@XZ 1005a540 f   chamsmaterial.obj
 0001:00059560       ??_EChamsMaterial@mod@csgo@aw@@UAEPAXI@Z 1005a560 f i chamsmaterial.obj
 0001:00059560       ??_GChamsMaterial@mod@csgo@aw@@UAEPAXI@Z 1005a560 f i chamsmaterial.obj
 0001:00059590       ?Init@ChamsMaterial@mod@csgo@aw@@UAE_NPBD0@Z 1005a590 f   chamsmaterial.obj
 0001:00059750       ?SetColor@ChamsMaterial@mod@csgo@aw@@QAEXUColor@gfx@4@@Z 1005a750 f   chamsmaterial.obj
 0001:000597c0       ?SetColor@ChamsMaterial@mod@csgo@aw@@UAEXMMMM@Z 1005a7c0 f   chamsmaterial.obj
 0001:00059850       ?SetIgnoreZ@ChamsMaterial@mod@csgo@aw@@UAEX_N@Z 1005a850 f   chamsmaterial.obj
 0001:00059890       ??_E?$ModuleBaseImpl@VCrosshair@mod@csgo@aw@@V?$TypedObject@VCrosshair@mod@csgo@aw@@VModuleBase@4@@4@@aw@@UAEPAXI@Z 1005a890 f i crosshair.obj
 0001:00059890       ??_G?$ModuleBaseImpl@VCrosshair@mod@csgo@aw@@V?$TypedObject@VCrosshair@mod@csgo@aw@@VModuleBase@4@@4@@aw@@UAEPAXI@Z 1005a890 f i crosshair.obj
 0001:000598c0       ??_ECrosshair@impl@mod@csgo@aw@@UAEPAXI@Z 1005a8c0 f i crosshair.obj
 0001:000598c0       ??_GCrosshair@impl@mod@csgo@aw@@UAEPAXI@Z 1005a8c0 f i crosshair.obj
 0001:000598f0       ?CreateModule@?$ModuleWithFactory@VCrosshair@mod@csgo@aw@@@aw@@SAPAVCrosshair@mod@csgo@2@XZ 1005a8f0 f   crosshair.obj
 0001:00059a20       ?DrawRecoilCrosshair@Crosshair@impl@mod@csgo@aw@@IAEXAAURenderFrame@gfx@5@@Z 1005aa20 f   crosshair.obj
 0001:00059f30       ?GetId@?$TypedObject@VCrosshair@mod@csgo@aw@@VModuleBase@4@@aw@@UAEIXZ 1005af30 f i crosshair.obj
 0001:00059f40       ?IsMasterActive@TabNavigationBase@ui@aw@@QAE_NXZ 1005af40 f i crosshair.obj
 0001:00059f60       ?OnRender@Crosshair@impl@mod@csgo@aw@@QAEXAAURenderFrame@gfx@5@@Z 1005af60 f   crosshair.obj
 0001:0005a0d0       ?OnShutdown@Crosshair@impl@mod@csgo@aw@@QAEXAAUCommonShutdown@5@@Z 1005b0d0 f   crosshair.obj
 0001:0005a0f0       ??$_Find_last@I@?$_Hash@V?$_Umap_traits@IV?$basic_string@DU?$char_traits@D@std@@V?$allocator@D@2@@std@@V?$_Uhash_compare@IU?$hash@I@std@@U?$equal_to@I@2@@2@V?$allocator@U?$pair@$$CBIV?$basic_string@DU?$char_traits@D@std@@V?$allocator@D@2@@std@@@std@@@2@$0A@@std@@@std@@IBE?AU?$_Hash_find_last_result@PAU?$_List_node@U?$pair@$$CBIV?$basic_string@DU?$char_traits@D@std@@V?$allocator@D@2@@std@@@std@@PAX@std@@@1@ABII@Z 1005b0f0 f i dangerzoneutils.obj
 0001:0005a160       ??$_Free_non_head@V?$allocator@U?$_List_node@U?$pair@$$CBIV?$basic_string@DU?$char_traits@D@std@@V?$allocator@D@2@@std@@@std@@PAX@std@@@std@@@?$_List_node@U?$pair@$$CBIV?$basic_string@DU?$char_traits@D@std@@V?$allocator@D@2@@std@@@std@@PAX@std@@SAXAAV?$allocator@U?$_List_node@U?$pair@$$CBIV?$basic_string@DU?$char_traits@D@std@@V?$allocator@D@2@@std@@@std@@PAX@std@@@1@PAU01@@Z 1005b160 f i dangerzoneutils.obj
 0001:0005a1c0       ??$_Insert_range_unchecked@PBU?$pair@$$CBIV?$basic_string@DU?$char_traits@D@std@@V?$allocator@D@2@@std@@@std@@PBU12@@?$_Hash@V?$_Umap_traits@IV?$basic_string@DU?$char_traits@D@std@@V?$allocator@D@2@@std@@V?$_Uhash_compare@IU?$hash@I@std@@U?$equal_to@I@2@@2@V?$allocator@U?$pair@$$CBIV?$basic_string@DU?$char_traits@D@std@@V?$allocator@D@2@@std@@@std@@@2@$0A@@std@@@std@@IAEXPBU?$pair@$$CBIV?$basic_string@DU?$char_traits@D@std@@V?$allocator@D@2@@std@@@1@QBU21@@Z 1005b1c0 f i dangerzoneutils.obj
 0001:0005a3a0       ??$fill@PAV?$_List_unchecked_iterator@V?$_List_val@U?$_List_simple_types@U?$pair@$$CBIV?$basic_string@DU?$char_traits@D@std@@V?$allocator@D@2@@std@@@std@@@std@@@std@@@std@@V12@@std@@YAXQAV?$_List_unchecked_iterator@V?$_List_val@U?$_List_simple_types@U?$pair@$$CBIV?$basic_string@DU?$char_traits@D@std@@V?$allocator@D@2@@std@@@std@@@std@@@std@@@0@0ABV10@@Z 1005b3a0 f i dangerzoneutils.obj
 0001:0005a400       ??0?$pair@$$CBIV?$basic_string@DU?$char_traits@D@std@@V?$allocator@D@2@@std@@@std@@QAE@ABU01@@Z 1005b400 f i dangerzoneutils.obj
 0001:0005a4c0       ??1?$_Hash@V?$_Umap_traits@IV?$basic_string@DU?$char_traits@D@std@@V?$allocator@D@2@@std@@V?$_Uhash_compare@IU?$hash@I@std@@U?$equal_to@I@2@@2@V?$allocator@U?$pair@$$CBIV?$basic_string@DU?$char_traits@D@std@@V?$allocator@D@2@@std@@@std@@@2@$0A@@std@@@std@@QAE@XZ 1005b4c0 f i dangerzoneutils.obj
 0001:0005a520       ?GetName@DangerZoneUtils@mod@csgo@aw@@SA?AV?$basic_string_view@DU?$char_traits@D@std@@@std@@PAVBaseEntity@sdk@34@@Z 1005b520 f   dangerzoneutils.obj
 0001:0005a630       ?IsItem@DangerZoneUtils@mod@csgo@aw@@SA_NPAVBaseEntity@sdk@34@@Z 1005b630 f   dangerzoneutils.obj
 0001:0005a720       ?IsTurret@DangerZoneUtils@mod@csgo@aw@@SA_NPAVBaseEntity@sdk@34@@Z 1005b720 f   dangerzoneutils.obj
 0001:0005a740       ?_Assign_grow@?$_Hash_vec@V?$allocator@V?$_List_unchecked_iterator@V?$_List_val@U?$_List_simple_types@U?$pair@$$CBIV?$basic_string@DU?$char_traits@D@std@@V?$allocator@D@2@@std@@@std@@@std@@@std@@@std@@@std@@@std@@QAEXIV?$_List_unchecked_iterator@V?$_List_val@U?$_List_simple_types@U?$pair@$$CBIV?$basic_string@DU?$char_traits@D@std@@V?$allocator@D@2@@std@@@std@@@std@@@std@@@2@@Z 1005b740 f i dangerzoneutils.obj
 0001:0005a810       ?_Forced_rehash@?$_Hash@V?$_Umap_traits@IV?$basic_string@DU?$char_traits@D@std@@V?$allocator@D@2@@std@@V?$_Uhash_compare@IU?$hash@I@std@@U?$equal_to@I@2@@2@V?$allocator@U?$pair@$$CBIV?$basic_string@DU?$char_traits@D@std@@V?$allocator@D@2@@std@@@std@@@2@$0A@@std@@@std@@IAEXI@Z 1005b810 f i dangerzoneutils.obj
 0001:0005a970       ??0EffectRemoval@impl@mod@csgo@aw@@QAE@XZ 1005b970 f i effectremoval.obj
 0001:0005ac70       ??_E?$ModuleBaseImpl@VEffectRemoval@mod@csgo@aw@@V?$TypedObject@VEffectRemoval@mod@csgo@aw@@VModuleBase@4@@4@@aw@@UAEPAXI@Z 1005bc70 f i effectremoval.obj
 0001:0005ac70       ??_G?$ModuleBaseImpl@VEffectRemoval@mod@csgo@aw@@V?$TypedObject@VEffectRemoval@mod@csgo@aw@@VModuleBase@4@@4@@aw@@UAEPAXI@Z 1005bc70 f i effectremoval.obj
 0001:0005aca0       ??_EEffectRemoval@impl@mod@csgo@aw@@UAEPAXI@Z 1005bca0 f i effectremoval.obj
 0001:0005aca0       ??_GEffectRemoval@impl@mod@csgo@aw@@UAEPAXI@Z 1005bca0 f i effectremoval.obj
 0001:0005acd0       ?CreateModule@?$ModuleWithFactory@VEffectRemoval@mod@csgo@aw@@@aw@@SAPAVEffectRemoval@mod@csgo@2@XZ 1005bcd0 f   effectremoval.obj
 0001:0005ad00       ?GetDynamic@Panel@sdk@csgo@aw@@SAPAV1234@XZ 1005bd00 f i effectremoval.obj
 0001:0005ad20       ?GetId@?$TypedObject@VEffectRemoval@mod@csgo@aw@@VModuleBase@4@@aw@@UAEIXZ 1005bd20 f i effectremoval.obj
 0001:0005ad30       ?IsScopeRemoval@EffectRemoval@impl@mod@csgo@aw@@IAE_NXZ 1005bd30 f   effectremoval.obj
 0001:0005ad70       ?OnCalcView@EffectRemoval@impl@mod@csgo@aw@@IAEXAAUPlayerCalcView@hk@45@@Z 1005bd70 f   effectremoval.obj
 0001:0005adf0       ?OnDrawSetColor@EffectRemoval@impl@mod@csgo@aw@@IAEXAAUDrawSetColor@hk@45@@Z 1005bdf0 f   effectremoval.obj
 0001:0005ae40       ?OnDrawWorldLists@EffectRemoval@impl@mod@csgo@aw@@IAEXAAUDrawWorldLists@hk@45@@Z 1005be40 f   effectremoval.obj
 0001:0005aeb0       ?OnFlashDuration@EffectRemoval@impl@mod@csgo@aw@@IAEXAAUFlashDuration@hk@45@@Z 1005beb0 f   effectremoval.obj
 0001:0005aef0       ?OnGetViewModelFOV@EffectRemoval@impl@mod@csgo@aw@@IAEXAAUGetViewModelFOV@hk@45@@Z 1005bef0 f   effectremoval.obj
 0001:0005af40       ?OnInPrediction@EffectRemoval@impl@mod@csgo@aw@@IAEXAAUInPrediction@hk@45@@Z 1005bf40 f   effectremoval.obj
 0001:0005b070       ?OnPaintTraverse@EffectRemoval@impl@mod@csgo@aw@@IAEXAAUPaintTraverse@hk@45@@Z 1005c070 f   effectremoval.obj
 0001:0005b0d0       ?OnRenderFrame@EffectRemoval@impl@mod@csgo@aw@@IAEXAAURenderFrame@gfx@5@@Z 1005c0d0 f   effectremoval.obj
 0001:0005b290       ?OnRenderStartPost@EffectRemoval@impl@mod@csgo@aw@@IAEXAAUOnRenderStart@hk@45@@Z 1005c290 f   effectremoval.obj
 0001:0005b2e0       ?OnRenderStartPre@EffectRemoval@impl@mod@csgo@aw@@IAEXAAUOnRenderStart@hk@45@@Z 1005c2e0 f   effectremoval.obj
 0001:0005b3b0       ?OnRenderViewPost@EffectRemoval@impl@mod@csgo@aw@@IAEXAAURenderView@hk@45@@Z 1005c3b0 f   effectremoval.obj
 0001:0005b3d0       ?OnShouldDrawFog@EffectRemoval@impl@mod@csgo@aw@@IAEXAAUShouldDrawFog@hk@45@@Z 1005c3d0 f   effectremoval.obj
 0001:0005b410       ?OnSmokeEffectTickBegin@EffectRemoval@impl@mod@csgo@aw@@IAEXAAUSmokeEffectTickBegin@hk@45@@Z 1005c410 f   effectremoval.obj
 0001:0005b460       ??$_Emplace_reallocate@AAUTracerEntry@EspBulletTracer@impl@mod@csgo@aw@@@?$vector@UTracerEntry@EspBulletTracer@impl@mod@csgo@aw@@V?$allocator@UTracerEntry@EspBulletTracer@impl@mod@csgo@aw@@@std@@@std@@AAEPAUTracerEntry@EspBulletTracer@impl@mod@csgo@aw@@QAU234567@AAU234567@@Z 1005c460 f i tracerbullet.obj
 0001:0005b610       ??$_Emplace_reallocate@AAUTracerPath@EspBulletTracer@impl@mod@csgo@aw@@@?$vector@UTracerPath@EspBulletTracer@impl@mod@csgo@aw@@V?$allocator@UTracerPath@EspBulletTracer@impl@mod@csgo@aw@@@std@@@std@@AAEPAUTracerPath@EspBulletTracer@impl@mod@csgo@aw@@QAU234567@AAU234567@@Z 1005c610 f i tracerbullet.obj
 0001:0005b780       ??$_Move_unchecked@PAUTracerEntry@EspBulletTracer@impl@mod@csgo@aw@@PAU123456@@std@@YAPAUTracerEntry@EspBulletTracer@impl@mod@csgo@aw@@PAU123456@00@Z 1005c780 f i tracerbullet.obj
 0001:0005b810       ??$_Uninitialized_move@PAUTracerEntry@EspBulletTracer@impl@mod@csgo@aw@@V?$allocator@UTracerEntry@EspBulletTracer@impl@mod@csgo@aw@@@std@@@std@@YAPAUTracerEntry@EspBulletTracer@impl@mod@csgo@aw@@QAU123456@0PAU123456@AAV?$allocator@UTracerEntry@EspBulletTracer@impl@mod@csgo@aw@@@0@@Z 1005c810 f i tracerbullet.obj
 0001:0005b880       ??0TracerEntry@EspBulletTracer@impl@mod@csgo@aw@@QAE@ABU012345@@Z 1005c880 f i tracerbullet.obj
 0001:0005b930       ??1?$vector@UTracerEntry@EspBulletTracer@impl@mod@csgo@aw@@V?$allocator@UTracerEntry@EspBulletTracer@impl@mod@csgo@aw@@@std@@@std@@QAE@XZ 1005c930 f i tracerbullet.obj
 0001:0005b9a0       ??1TracerEntry@EspBulletTracer@impl@mod@csgo@aw@@QAE@XZ 1005c9a0 f i tracerbullet.obj
 0001:0005ba00       ??_E?$ModuleBaseImpl@VEspBulletTracer@mod@csgo@aw@@V?$TypedObject@VEspBulletTracer@mod@csgo@aw@@VModuleBase@4@@4@@aw@@UAEPAXI@Z 1005ca00 f i tracerbullet.obj
 0001:0005ba00       ??_G?$ModuleBaseImpl@VEspBulletTracer@mod@csgo@aw@@V?$TypedObject@VEspBulletTracer@mod@csgo@aw@@VModuleBase@4@@4@@aw@@UAEPAXI@Z 1005ca00 f i tracerbullet.obj
 0001:0005ba30       ??_EEspBulletTracer@impl@mod@csgo@aw@@UAEPAXI@Z 1005ca30 f i tracerbullet.obj
 0001:0005ba30       ??_GEspBulletTracer@impl@mod@csgo@aw@@UAEPAXI@Z 1005ca30 f i tracerbullet.obj
 0001:0005ba80       ?CreateModule@?$ModuleWithFactory@VEspBulletTracer@mod@csgo@aw@@@aw@@SAPAVEspBulletTracer@mod@csgo@2@XZ 1005ca80 f   tracerbullet.obj
 0001:0005bbe0       ?DrawBeam@EspBulletTracer@impl@mod@csgo@aw@@IAEXAAURenderFrame@gfx@5@ABVVector3@5@1ABUColor@75@M@Z 1005cbe0 f   tracerbullet.obj
 0001:0005bf00       ?DrawBeamHitSide@EspBulletTracer@impl@mod@csgo@aw@@IAEXAAURenderFrame@gfx@5@ABVVector3@5@1ABUColor@75@M@Z 1005cf00 f   tracerbullet.obj
 0001:0005c220       ?GetId@?$TypedObject@VEspBulletTracer@mod@csgo@aw@@VModuleBase@4@@aw@@UAEIXZ 1005d220 f i tracerbullet.obj
 0001:0005c230       ?OnFireGameEvent@EspBulletTracer@impl@mod@csgo@aw@@IAEXAAUGameEvent@hk@45@@Z 1005d230 f   tracerbullet.obj
 0001:0005cbd0       ?OnInit@EspBulletTracer@impl@mod@csgo@aw@@IAEXAAUCommonInit@5@@Z 1005dbd0 f   tracerbullet.obj
 0001:0005cc70       ?OnRender@EspBulletTracer@impl@mod@csgo@aw@@IAEXAAURenderFrame@gfx@5@@Z 1005dc70 f   tracerbullet.obj
 0001:0005cfb0       ?_Tidy@?$vector@UTracerPath@EspBulletTracer@impl@mod@csgo@aw@@V?$allocator@UTracerPath@EspBulletTracer@impl@mod@csgo@aw@@@std@@@std@@AAEXXZ 1005dfb0 f i tracerbullet.obj
 0001:0005d010       ?_Xlength@?$vector@UTracerEntry@EspBulletTracer@impl@mod@csgo@aw@@V?$allocator@UTracerEntry@EspBulletTracer@impl@mod@csgo@aw@@@std@@@std@@CAXXZ 1005e010 f i tracerbullet.obj
 0001:0005d020       ?_Xlength@?$vector@UTracerPath@EspBulletTracer@impl@mod@csgo@aw@@V?$allocator@UTracerPath@EspBulletTracer@impl@mod@csgo@aw@@@std@@@std@@CAXXZ 1005e020 f i tracerbullet.obj
 0001:0005d030       ?allocate@?$allocator@UTracerPath@EspBulletTracer@impl@mod@csgo@aw@@@std@@QAEPAUTracerPath@EspBulletTracer@impl@mod@csgo@aw@@I@Z 1005e030 f i tracerbullet.obj
 0001:0005d090       ??$_Free_non_head@V?$allocator@U?$_List_node@UEspDamageIndicatorData@impl@mod@csgo@aw@@PAX@std@@@std@@@?$_List_node@UEspDamageIndicatorData@impl@mod@csgo@aw@@PAX@std@@SAXAAV?$allocator@U?$_List_node@UEspDamageIndicatorData@impl@mod@csgo@aw@@PAX@std@@@1@PAU01@@Z 1005e090 f i damageindicator.obj
 0001:0005d0f0       ??_E?$ModuleBaseImpl@VEspDamageIndicator@mod@csgo@aw@@V?$TypedObject@VEspDamageIndicator@mod@csgo@aw@@VModuleBase@4@@4@@aw@@UAEPAXI@Z 1005e0f0 f i damageindicator.obj
 0001:0005d0f0       ??_G?$ModuleBaseImpl@VEspDamageIndicator@mod@csgo@aw@@V?$TypedObject@VEspDamageIndicator@mod@csgo@aw@@VModuleBase@4@@4@@aw@@UAEPAXI@Z 1005e0f0 f i damageindicator.obj
 0001:0005d120       ??_EEspDamageIndicator@impl@mod@csgo@aw@@UAEPAXI@Z 1005e120 f i damageindicator.obj
 0001:0005d120       ??_GEspDamageIndicator@impl@mod@csgo@aw@@UAEPAXI@Z 1005e120 f i damageindicator.obj
 0001:0005d170       ?CreateModule@?$ModuleWithFactory@VEspDamageIndicator@mod@csgo@aw@@@aw@@SAPAVEspDamageIndicator@mod@csgo@2@XZ 1005e170 f   damageindicator.obj
 0001:0005d2a0       ?GetId@?$TypedObject@VEspDamageIndicator@mod@csgo@aw@@VModuleBase@4@@aw@@UAEIXZ 1005e2a0 f i damageindicator.obj
 0001:0005d2b0       ?OnEspDraw@EspDamageIndicator@impl@mod@csgo@aw@@IAEXAAUEspDraw@345@@Z 1005e2b0 f   damageindicator.obj
 0001:0005d8b0       ?OnGameEvent@EspDamageIndicator@impl@mod@csgo@aw@@IAEXAAUGameEvent@hk@45@@Z 1005e8b0 f   damageindicator.obj
 0001:0005e0c0       ??1EspGrenadeTrace@mod@csgo@aw@@QAE@XZ 1005f0c0 f i tracergrenade.obj
 0001:0005e100       ??_E?$ModuleBaseImpl@VEspGrenadeOverlay@mod@csgo@aw@@V?$TypedObject@VEspGrenadeOverlay@mod@csgo@aw@@VModuleBase@4@@4@@aw@@UAEPAXI@Z 1005f100 f i tracergrenade.obj
 0001:0005e100       ??_G?$ModuleBaseImpl@VEspGrenadeOverlay@mod@csgo@aw@@V?$TypedObject@VEspGrenadeOverlay@mod@csgo@aw@@VModuleBase@4@@4@@aw@@UAEPAXI@Z 1005f100 f i tracergrenade.obj
 0001:0005e130       ??_EEspGrenadeOverlay@impl@mod@csgo@aw@@UAEPAXI@Z 1005f130 f i tracergrenade.obj
 0001:0005e130       ??_GEspGrenadeOverlay@impl@mod@csgo@aw@@UAEPAXI@Z 1005f130 f i tracergrenade.obj
 0001:0005e160       ?CreateModule@?$ModuleWithFactory@VEspGrenadeOverlay@mod@csgo@aw@@@aw@@SAPAVEspGrenadeOverlay@mod@csgo@2@XZ 1005f160 f   tracergrenade.obj
 0001:0005e200       ?GetId@?$TypedObject@VEspGrenadeOverlay@mod@csgo@aw@@VModuleBase@4@@aw@@UAEIXZ 1005f200 f i tracergrenade.obj
 0001:0005e210       ?OnEspDraw@EspGrenadeOverlay@impl@mod@csgo@aw@@IAEXAAUEspDraw@345@@Z 1005f210 f   tracergrenade.obj
 0001:0005e640       ??0EspGrenadeTrace@mod@csgo@aw@@QAE@PAVRenderContext@gfx@3@@Z 1005f640 f   tracegrenadedraw.obj
 0001:0005e6d0       ?CalcStartParameters@EspGrenadeTrace@mod@csgo@aw@@MAEXAAVVector3@4@0@Z 1005f6d0 f   tracegrenadedraw.obj
 0001:0005e710       ?GetColorFraction@EspGrenadeTrace@mod@csgo@aw@@QAE?AUColor@gfx@4@M@Z 1005f710 f   tracegrenadedraw.obj
 0001:0005e7f0       ?OnBounce@EspGrenadeTrace@mod@csgo@aw@@UAEXABVVector3@4@0@Z 1005f7f0 f   tracegrenadedraw.obj
 0001:0005e870       ?OnExplode@EspGrenadeTrace@mod@csgo@aw@@UAEXABVVector3@4@@Z 1005f870 f   tracegrenadedraw.obj
 0001:0005ec00       ?OnTravel@EspGrenadeTrace@mod@csgo@aw@@UAEXABVVector3@4@0@Z 1005fc00 f   tracegrenadedraw.obj
 0001:0005ee20       ??$FormatString@H@aw@@YA?AV?$basic_string@DU?$char_traits@D@std@@V?$allocator@D@2@@std@@V?$basic_format_string@DH@v9@fmt@@$$QAH@Z 1005fe20 f i wallbanginfo.obj
 0001:0005ee70       ??_E?$ModuleBaseImpl@VEspWallbang@mod@csgo@aw@@V?$TypedObject@VEspWallbang@mod@csgo@aw@@VModuleBase@4@@4@@aw@@UAEPAXI@Z 1005fe70 f i wallbanginfo.obj
 0001:0005ee70       ??_G?$ModuleBaseImpl@VEspWallbang@mod@csgo@aw@@V?$TypedObject@VEspWallbang@mod@csgo@aw@@VModuleBase@4@@4@@aw@@UAEPAXI@Z 1005fe70 f i wallbanginfo.obj
 0001:0005eea0       ??_EEspWallbang@impl@mod@csgo@aw@@UAEPAXI@Z 1005fea0 f i wallbanginfo.obj
 0001:0005eea0       ??_GEspWallbang@impl@mod@csgo@aw@@UAEPAXI@Z 1005fea0 f i wallbanginfo.obj
 0001:0005eed0       ?CreateModule@?$ModuleWithFactory@VEspWallbang@mod@csgo@aw@@@aw@@SAPAVEspWallbang@mod@csgo@2@XZ 1005fed0 f   wallbanginfo.obj
 0001:0005eff0       ?GetId@?$TypedObject@VEspWallbang@mod@csgo@aw@@VModuleBase@4@@aw@@UAEIXZ 1005fff0 f i wallbanginfo.obj
 0001:0005f000       ?OnRender@EspWallbang@impl@mod@csgo@aw@@IAEXAAURenderFrame@gfx@5@@Z 10060000 f   wallbanginfo.obj
 0001:0005f950       ??_E?$ModuleBaseImpl@VHitmarker@mod@csgo@aw@@V?$TypedObject@VHitmarker@mod@csgo@aw@@VModuleBase@4@@4@@aw@@UAEPAXI@Z 10060950 f i hitmarker.obj
 0001:0005f950       ??_G?$ModuleBaseImpl@VHitmarker@mod@csgo@aw@@V?$TypedObject@VHitmarker@mod@csgo@aw@@VModuleBase@4@@4@@aw@@UAEPAXI@Z 10060950 f i hitmarker.obj
 0001:0005f980       ??_EHitmarker@impl@mod@csgo@aw@@UAEPAXI@Z 10060980 f i hitmarker.obj
 0001:0005f980       ??_GHitmarker@impl@mod@csgo@aw@@UAEPAXI@Z 10060980 f i hitmarker.obj
 0001:0005f9b0       ?Add@Hitmarker@impl@mod@csgo@aw@@IAEXPAVCSPlayer@sdk@45@@Z 100609b0 f   hitmarker.obj
 0001:0005fd30       ?CreateModule@?$ModuleWithFactory@VHitmarker@mod@csgo@aw@@@aw@@SAPAVHitmarker@mod@csgo@2@XZ 10060d30 f   hitmarker.obj
 0001:0005fe60       ?GetId@?$TypedObject@VHitmarker@mod@csgo@aw@@VModuleBase@4@@aw@@UAEIXZ 10060e60 f i hitmarker.obj
 0001:0005fe70       ?OnGameEvent@Hitmarker@impl@mod@csgo@aw@@IAEXAAUGameEvent@hk@45@@Z 10060e70 f   hitmarker.obj
 0001:000600b0       ?OnRender@Hitmarker@impl@mod@csgo@aw@@IAEXAAURenderFrame@gfx@5@@Z 100610b0 f   hitmarker.obj
 0001:00060240       ??_E?$ModuleBaseImpl@VGameMaterials@mod@csgo@aw@@V?$TypedObject@VGameMaterials@mod@csgo@aw@@VModuleBase@4@@4@@aw@@UAEPAXI@Z 10061240 f i gamematerials.obj
 0001:00060240       ??_G?$ModuleBaseImpl@VGameMaterials@mod@csgo@aw@@V?$TypedObject@VGameMaterials@mod@csgo@aw@@VModuleBase@4@@4@@aw@@UAEPAXI@Z 10061240 f i gamematerials.obj
 0001:00060270       ??_EGameMaterials@impl@mod@csgo@aw@@UAEPAXI@Z 10061270 f i gamematerials.obj
 0001:00060270       ??_GGameMaterials@impl@mod@csgo@aw@@UAEPAXI@Z 10061270 f i gamematerials.obj
 0001:000602a0       ?CreateModule@?$ModuleWithFactory@VGameMaterials@mod@csgo@aw@@@aw@@SAPAVGameMaterials@mod@csgo@2@XZ 100612a0 f   gamematerials.obj
 0001:000603d0       ?GetId@?$TypedObject@VGameMaterials@mod@csgo@aw@@VModuleBase@4@@aw@@UAEIXZ 100613d0 f i gamematerials.obj
 0001:000603e0       ?OnPreRender@GameMaterials@impl@mod@csgo@aw@@IAEXAAURenderFrame@gfx@5@@Z 100613e0 f   gamematerials.obj
 0001:000608a0       ??0ModelChams@impl@mod@csgo@aw@@QAE@XZ 100618a0 f i modelchams.obj
 0001:00060ba0       ??_E?$ModuleBaseImpl@VModelChams@mod@csgo@aw@@V?$TypedObject@VModelChams@mod@csgo@aw@@VModuleBase@4@@4@@aw@@UAEPAXI@Z 10061ba0 f i modelchams.obj
 0001:00060ba0       ??_G?$ModuleBaseImpl@VModelChams@mod@csgo@aw@@V?$TypedObject@VModelChams@mod@csgo@aw@@VModuleBase@4@@4@@aw@@UAEPAXI@Z 10061ba0 f i modelchams.obj
 0001:00060bd0       ??_EModelChams@impl@mod@csgo@aw@@UAEPAXI@Z 10061bd0 f i modelchams.obj
 0001:00060bd0       ??_GModelChams@impl@mod@csgo@aw@@UAEPAXI@Z 10061bd0 f i modelchams.obj
 0001:00060c70       ?CreateModule@?$ModuleWithFactory@VModelChams@mod@csgo@aw@@@aw@@SAPAVModelChams@mod@csgo@2@XZ 10061c70 f   modelchams.obj
 0001:00060ca0       ?GetBuilder@ModelChams@impl@mod@csgo@aw@@IAEPAVVisualsChamsBuilder@ui@45@PAVBaseEntity@sdk@45@W4ModelChamsType@345@@Z 10061ca0 f   modelchams.obj
 0001:00060f10       ?GetId@?$TypedObject@VModelChams@mod@csgo@aw@@VModuleBase@4@@aw@@UAEIXZ 10061f10 f i modelchams.obj
 0001:00060f20       ?IsRenderingAllowed@ModelChams@impl@mod@csgo@aw@@MAE_NPAUDrawModelVars@hk@45@@Z 10061f20 f   modelchams.obj
 0001:00061030       ?LoadMaterials@ModelChams@impl@mod@csgo@aw@@IAEXXZ 10062030 f   modelchams.obj
 0001:000651f0       ?OnDoPostScreenSpaceEffects@ModelChams@impl@mod@csgo@aw@@IAEXAAUDoPostScreenSpaceEffects@hk@45@@Z 100661f0 f   modelchams.obj
 0001:000654d0       ?OnDoPostScreenSpaceEffectsFinish@ModelChams@impl@mod@csgo@aw@@IAEXAAUDoPostScreenSpaceEffects@hk@45@@Z 100664d0 f   modelchams.obj
 0001:000654e0       ?OnDrawChamsModel@ModelChams@impl@mod@csgo@aw@@IAEXAAUDrawChamsModel@345@@Z 100664e0 f   modelchams.obj
 0001:000659b0       ?OnDrawModel@ModelChams@impl@mod@csgo@aw@@IAEXAAUDrawModel@hk@45@@Z 100669b0 f   modelchams.obj
 0001:00065a40       ?OnDrawWorldLists@ModelChams@impl@mod@csgo@aw@@IAEXAAUDrawWorldLists@hk@45@@Z 10066a40 f   modelchams.obj
 0001:00065b00       ?OnLevelInit@ModelChams@impl@mod@csgo@aw@@IAEXAAULevelInit@hk@45@@Z 10066b00 f   modelchams.obj
 0001:00065b10       ?OnListLeavesInBox@ModelChams@impl@mod@csgo@aw@@IAEXAAUListLeavesInBox@hk@45@@Z 10066b10 f   modelchams.obj
 0001:00065bd0       ?ShouldChams@ModelChams@impl@mod@csgo@aw@@UAE_NPAVBaseEntity@sdk@45@@Z 10066bd0 f   modelchams.obj
 0001:00065c20       ??_E?$ModuleBaseImpl@VPreserveKillfeed@mod@csgo@aw@@V?$TypedObject@VPreserveKillfeed@mod@csgo@aw@@VModuleBase@4@@4@@aw@@UAEPAXI@Z 10066c20 f i preservekillfeed.obj
 0001:00065c20       ??_G?$ModuleBaseImpl@VPreserveKillfeed@mod@csgo@aw@@V?$TypedObject@VPreserveKillfeed@mod@csgo@aw@@VModuleBase@4@@4@@aw@@UAEPAXI@Z 10066c20 f i preservekillfeed.obj
 0001:00065c50       ??_EPreserveKillfeed@impl@mod@csgo@aw@@UAEPAXI@Z 10066c50 f i preservekillfeed.obj
 0001:00065c50       ??_GPreserveKillfeed@impl@mod@csgo@aw@@UAEPAXI@Z 10066c50 f i preservekillfeed.obj
 0001:00065c80       ?CreateModule@?$ModuleWithFactory@VPreserveKillfeed@mod@csgo@aw@@@aw@@SAPAVPreserveKillfeed@mod@csgo@2@XZ 10066c80 f   preservekillfeed.obj
 0001:00065d60       ?GetHudDeathNotice@PreserveKillfeed@impl@mod@csgo@aw@@IAEPAXXZ 10066d60 f   preservekillfeed.obj
 0001:00065eb0       ?GetId@?$TypedObject@VPreserveKillfeed@mod@csgo@aw@@VModuleBase@4@@aw@@UAEIXZ 10066eb0 f i preservekillfeed.obj
 0001:00065ec0       ?OnGameEvent@PreserveKillfeed@impl@mod@csgo@aw@@IAEXAAUGameEvent@hk@45@@Z 10066ec0 f   preservekillfeed.obj
 0001:00065f20       ?OnRender@PreserveKillfeed@impl@mod@csgo@aw@@IAEXAAURenderFrame@gfx@5@@Z 10066f20 f   preservekillfeed.obj
 0001:00065f80       ??$_Find_last@H@?$_Hash@V?$_Umap_traits@HUWeaponIcon@mod@csgo@aw@@V?$_Uhash_compare@HU?$hash@H@std@@U?$equal_to@H@2@@std@@V?$allocator@U?$pair@$$CBHUWeaponIcon@mod@csgo@aw@@@std@@@6@$0A@@std@@@std@@IBE?AU?$_Hash_find_last_result@PAU?$_List_node@U?$pair@$$CBHUWeaponIcon@mod@csgo@aw@@@std@@PAX@std@@@1@ABHI@Z 10066f80 f i weaponiconatlas.obj
 0001:00065ff0       ??$_Free_non_head@V?$allocator@U?$_List_node@U?$pair@$$CBHUWeaponIcon@mod@csgo@aw@@@std@@PAX@std@@@std@@@?$_List_node@U?$pair@$$CBHUWeaponIcon@mod@csgo@aw@@@std@@PAX@std@@SAXAAV?$allocator@U?$_List_node@U?$pair@$$CBHUWeaponIcon@mod@csgo@aw@@@std@@PAX@std@@@1@PAU01@@Z 10066ff0 f i weaponiconatlas.obj
 0001:00066030       ??$_Try_emplace@ABH$$V@?$_Hash@V?$_Umap_traits@HUWeaponIcon@mod@csgo@aw@@V?$_Uhash_compare@HU?$hash@H@std@@U?$equal_to@H@2@@std@@V?$allocator@U?$pair@$$CBHUWeaponIcon@mod@csgo@aw@@@std@@@6@$0A@@std@@@std@@IAE?AU?$pair@PAU?$_List_node@U?$pair@$$CBHUWeaponIcon@mod@csgo@aw@@@std@@PAX@std@@_N@1@ABH@Z 10067030 f i weaponiconatlas.obj
 0001:00066210       ??$fill@PAV?$_List_unchecked_iterator@V?$_List_val@U?$_List_simple_types@U?$pair@$$CBHUWeaponIcon@mod@csgo@aw@@@std@@@std@@@std@@@std@@V12@@std@@YAXQAV?$_List_unchecked_iterator@V?$_List_val@U?$_List_simple_types@U?$pair@$$CBHUWeaponIcon@mod@csgo@aw@@@std@@@std@@@std@@@0@0ABV10@@Z 10067210 f i weaponiconatlas.obj
 0001:00066270       ??$find@X@?$_Hash@V?$_Umap_traits@HUWeaponIcon@mod@csgo@aw@@V?$_Uhash_compare@HU?$hash@H@std@@U?$equal_to@H@2@@std@@V?$allocator@U?$pair@$$CBHUWeaponIcon@mod@csgo@aw@@@std@@@6@$0A@@std@@@std@@QAE?AV?$_List_iterator@V?$_List_val@U?$_List_simple_types@U?$pair@$$CBHUWeaponIcon@mod@csgo@aw@@@std@@@std@@@std@@@1@ABH@Z 10067270 f i weaponiconatlas.obj
 0001:000662e0       ??0?$unordered_map@HUWeaponIcon@mod@csgo@aw@@U?$hash@H@std@@U?$equal_to@H@6@V?$allocator@U?$pair@$$CBHUWeaponIcon@mod@csgo@aw@@@std@@@6@@std@@QAE@XZ 100672e0 f i weaponiconatlas.obj
 0001:00066350       ??1?$_Hash@V?$_Umap_traits@HUWeaponIcon@mod@csgo@aw@@V?$_Uhash_compare@HU?$hash@H@std@@U?$equal_to@H@2@@std@@V?$allocator@U?$pair@$$CBHUWeaponIcon@mod@csgo@aw@@@std@@@6@$0A@@std@@@std@@QAE@XZ 10067350 f i weaponiconatlas.obj
 0001:000663b0       ??_E?$ModuleBaseImpl@VWeaponIconAtlas@mod@csgo@aw@@V?$TypedObject@VWeaponIconAtlas@mod@csgo@aw@@VModuleBase@4@@4@@aw@@UAEPAXI@Z 100673b0 f i weaponiconatlas.obj
 0001:000663b0       ??_G?$ModuleBaseImpl@VWeaponIconAtlas@mod@csgo@aw@@V?$TypedObject@VWeaponIconAtlas@mod@csgo@aw@@VModuleBase@4@@4@@aw@@UAEPAXI@Z 100673b0 f i weaponiconatlas.obj
 0001:000663e0       ??_EWeaponIconAtlas@impl@mod@csgo@aw@@UAEPAXI@Z 100673e0 f i weaponiconatlas.obj
 0001:000663e0       ??_GWeaponIconAtlas@impl@mod@csgo@aw@@UAEPAXI@Z 100673e0 f i weaponiconatlas.obj
 0001:00066420       ?CreateModule@?$ModuleWithFactory@VWeaponIconAtlas@mod@csgo@aw@@@aw@@SAPAVWeaponIconAtlas@mod@csgo@2@XZ 10067420 f   weaponiconatlas.obj
 0001:000664a0       ?Get@IFileSystem@sdk@csgo@aw@@SAPAV1234@XZ 100674a0 f i weaponiconatlas.obj
 0001:000664b0       ?GetDynamic@IFileSystem@sdk@csgo@aw@@SAPAV1234@XZ 100674b0 f i weaponiconatlas.obj
 0001:000664d0       ?GetIcon@WeaponIconAtlas@impl@mod@csgo@aw@@UAEPAUWeaponIcon@345@PAVRenderResources@gfx@5@H_N@Z 100674d0 f   weaponiconatlas.obj
 0001:00066590       ?GetId@?$TypedObject@VWeaponIconAtlas@mod@csgo@aw@@VModuleBase@4@@aw@@UAEIXZ 10067590 f i weaponiconatlas.obj
 0001:000665a0       ?LoadIcon@WeaponIconAtlas@impl@mod@csgo@aw@@IAEXPAVRenderResources@gfx@5@H_N@Z 100675a0 f   weaponiconatlas.obj
 0001:00066f10       ?_Assign_grow@?$_Hash_vec@V?$allocator@V?$_List_unchecked_iterator@V?$_List_val@U?$_List_simple_types@U?$pair@$$CBHUWeaponIcon@mod@csgo@aw@@@std@@@std@@@std@@@std@@@std@@@std@@QAEXIV?$_List_unchecked_iterator@V?$_List_val@U?$_List_simple_types@U?$pair@$$CBHUWeaponIcon@mod@csgo@aw@@@std@@@std@@@std@@@2@@Z 10067f10 f i weaponiconatlas.obj
 0001:00066fe0       ?_Forced_rehash@?$_Hash@V?$_Umap_traits@HUWeaponIcon@mod@csgo@aw@@V?$_Uhash_compare@HU?$hash@H@std@@U?$equal_to@H@2@@std@@V?$allocator@U?$pair@$$CBHUWeaponIcon@mod@csgo@aw@@@std@@@6@$0A@@std@@@std@@IAEXI@Z 10067fe0 f i weaponiconatlas.obj
 0001:00067140       ?_Xlength@?$vector@DV?$allocator@D@std@@@std@@CAXXZ 10068140 f i weaponiconatlas.obj
 0001:00067150       ??$_Emplace_reallocate@AAPAVGameSceneEntity@mod@csgo@aw@@@?$vector@PAVGameSceneEntity@mod@csgo@aw@@V?$allocator@PAVGameSceneEntity@mod@csgo@aw@@@std@@@std@@AAEPAPAVGameSceneEntity@mod@csgo@aw@@QAPAV2345@AAPAV2345@@Z 10068150 f i gamescene.obj
 0001:00067290       ??0GameScene@mod@csgo@aw@@QAE@XZ 10068290 f   gamescene.obj
 0001:00067360       ?AttachEntity@GameScene@mod@csgo@aw@@QAEXPAVGameSceneEntity@234@@Z 10068360 f   gamescene.obj
 0001:00067390       ?BeginScene@GameScene@mod@csgo@aw@@IAE_NPAVTexture@sdk@34@@Z 10068390 f   gamescene.obj
 0001:00067a30       ?CalcCamera@GameScene@mod@csgo@aw@@QAEXAAVVector3@4@AAVEulerAngles@4@AAVMatrix4@4@22@Z 10068a30 f   gamescene.obj
 0001:00067b60       ?OnPostDrawModel@GameScene@mod@csgo@aw@@UAEXAAUDrawModel@hk@34@@Z 10068b60 f   gamescene.obj
 0001:00067b70       ?OnPreDrawModel@GameScene@mod@csgo@aw@@UAEXAAUDrawModel@hk@34@@Z 10068b70 f   gamescene.obj
 0001:00067b80       ?Render@GameScene@mod@csgo@aw@@QAEXPAVTexture@sdk@34@@Z 10068b80 f   gamescene.obj
 0001:00067c90       ?_Xlength@?$vector@PAVGameSceneEntity@mod@csgo@aw@@V?$allocator@PAVGameSceneEntity@mod@csgo@aw@@@std@@@std@@CAXXZ 10068c90 f i gamescene.obj
 0001:00067ca0       ??$?8DU?$char_traits@D@std@@V?$allocator@D@1@@std@@YA_NABV?$basic_string@DU?$char_traits@D@std@@V?$allocator@D@2@@0@0@Z 10068ca0 f i gamescene_econentity.obj
 0001:00067d20       ??$_Find_last@PAVEconItemInterface@sdk@csgo@aw@@@?$_Hash@V?$_Umap_traits@PAVEconItemInterface@sdk@csgo@aw@@PAVGameSceneEconEntity@mod@34@V?$_Uhash_compare@PAVEconItemInterface@sdk@csgo@aw@@U?$hash@PAVEconItemInterface@sdk@csgo@aw@@@std@@U?$equal_to@PAVEconItemInterface@sdk@csgo@aw@@@6@@std@@V?$allocator@U?$pair@QAVEconItemInterface@sdk@csgo@aw@@PAVGameSceneEconEntity@mod@34@@std@@@8@$0A@@std@@@std@@IBE?AU?$_Hash_find_last_result@PAU?$_List_node@U?$pair@QAVEconItemInterface@sdk@csgo@aw@@PAVGameSceneEconEntity@mod@34@@std@@PAX@std@@@1@ABQAVEconItemInterface@sdk@csgo@aw@@I@Z 10068d20 f i gamescene_econentity.obj
 0001:00067d90       ??$_Try_emplace@ABQAVEconItemInterface@sdk@csgo@aw@@$$V@?$_Hash@V?$_Umap_traits@PAVEconItemInterface@sdk@csgo@aw@@PAVGameSceneEconEntity@mod@34@V?$_Uhash_compare@PAVEconItemInterface@sdk@csgo@aw@@U?$hash@PAVEconItemInterface@sdk@csgo@aw@@@std@@U?$equal_to@PAVEconItemInterface@sdk@csgo@aw@@@6@@std@@V?$allocator@U?$pair@QAVEconItemInterface@sdk@csgo@aw@@PAVGameSceneEconEntity@mod@34@@std@@@8@$0A@@std@@@std@@IAE?AU?$pair@PAU?$_List_node@U?$pair@QAVEconItemInterface@sdk@csgo@aw@@PAVGameSceneEconEntity@mod@34@@std@@PAX@std@@_N@1@ABQAVEconItemInterface@sdk@csgo@aw@@@Z 10068d90 f i gamescene_econentity.obj
 0001:00067f50       ??$fill@PAV?$_List_unchecked_iterator@V?$_List_val@U?$_List_simple_types@U?$pair@QAVEconItemInterface@sdk@csgo@aw@@PAVGameSceneEconEntity@mod@34@@std@@@std@@@std@@@std@@V12@@std@@YAXQAV?$_List_unchecked_iterator@V?$_List_val@U?$_List_simple_types@U?$pair@QAVEconItemInterface@sdk@csgo@aw@@PAVGameSceneEconEntity@mod@34@@std@@@std@@@std@@@0@0ABV10@@Z 10068f50 f i gamescene_econentity.obj
 0001:00067fb0       ??0GameSceneEconEntity@mod@csgo@aw@@QAE@XZ 10068fb0 f   gamescene_econentity.obj
 0001:00068070       ??1?$_Hash@V?$_Umap_traits@PAVEconItemInterface@sdk@csgo@aw@@PAVGameSceneEconEntity@mod@34@V?$_Uhash_compare@PAVEconItemInterface@sdk@csgo@aw@@U?$hash@PAVEconItemInterface@sdk@csgo@aw@@@std@@U?$equal_to@PAVEconItemInterface@sdk@csgo@aw@@@6@@std@@V?$allocator@U?$pair@QAVEconItemInterface@sdk@csgo@aw@@PAVGameSceneEconEntity@mod@34@@std@@@8@$0A@@std@@@std@@QAE@XZ 10069070 f i gamescene_econentity.obj
 0001:000680f0       ??1GameSceneEconEntity@mod@csgo@aw@@UAE@XZ 100690f0 f   gamescene_econentity.obj
 0001:000682b0       ??4?$basic_string@DU?$char_traits@D@std@@V?$allocator@D@2@@std@@QAEAAV01@ABV01@@Z 100692b0 f i gamescene_econentity.obj
 0001:000683d0       ??_EGameSceneEconEntity@mod@csgo@aw@@UAEPAXI@Z 100693d0 f i gamescene_econentity.obj
 0001:000683d0       ??_GGameSceneEconEntity@mod@csgo@aw@@UAEPAXI@Z 100693d0 f i gamescene_econentity.obj
 0001:00068400       ?HkGetStickerAttributeBySlotIndexInt@GameSceneEconEntity@mod@csgo@aw@@KIIPAXHHHI@Z 10069400 f   gamescene_econentity.obj
 0001:000684d0       ?PostDrawModel@GameSceneEconEntity@mod@csgo@aw@@UAEXAAUDrawModel@hk@34@@Z 100694d0 f   gamescene_econentity.obj
 0001:000685a0       ?PreDrawModel@GameSceneEconEntity@mod@csgo@aw@@UAEXAAUDrawModel@hk@34@@Z 100695a0 f   gamescene_econentity.obj
 0001:00068670       ?PrecacheModel@GameSceneEconEntity@mod@csgo@aw@@MAEXXZ 10069670 f   gamescene_econentity.obj
 0001:00069730       ?Prepare@GameSceneEconEntity@mod@csgo@aw@@UAE_NXZ 1006a730 f   gamescene_econentity.obj
 0001:000697e0       ?SetCustomName@GameSceneEconEntity@mod@csgo@aw@@QAEXABV?$basic_string@DU?$char_traits@D@std@@V?$allocator@D@2@@std@@@Z 1006a7e0 f   gamescene_econentity.obj
 0001:00069810       ?SetItemDefinitionIndex@GameSceneEconEntity@mod@csgo@aw@@QAEXH@Z 1006a810 f   gamescene_econentity.obj
 0001:00069830       ?SetPaintKit@GameSceneEconEntity@mod@csgo@aw@@QAEXH@Z 1006a830 f   gamescene_econentity.obj
 0001:00069850       ?SetPaintKitSeed@GameSceneEconEntity@mod@csgo@aw@@QAEXH@Z 1006a850 f   gamescene_econentity.obj
 0001:00069870       ?SetPaintKitWear@GameSceneEconEntity@mod@csgo@aw@@QAEXM@Z 1006a870 f   gamescene_econentity.obj
 0001:000698a0       ?SetStattrak@GameSceneEconEntity@mod@csgo@aw@@QAEXABV?$basic_string@DU?$char_traits@D@std@@V?$allocator@D@2@@std@@@Z 1006a8a0 f   gamescene_econentity.obj
 0001:000698d0       ?SetSticker@GameSceneEconEntity@mod@csgo@aw@@QAEXW4StickerSlot@234@H@Z 1006a8d0 f   gamescene_econentity.obj
 0001:000698f0       ?_Assign_grow@?$_Hash_vec@V?$allocator@V?$_List_unchecked_iterator@V?$_List_val@U?$_List_simple_types@U?$pair@QAVEconItemInterface@sdk@csgo@aw@@PAVGameSceneEconEntity@mod@34@@std@@@std@@@std@@@std@@@std@@@std@@QAEXIV?$_List_unchecked_iterator@V?$_List_val@U?$_List_simple_types@U?$pair@QAVEconItemInterface@sdk@csgo@aw@@PAVGameSceneEconEntity@mod@34@@std@@@std@@@std@@@2@@Z 1006a8f0 f i gamescene_econentity.obj
 0001:000699c0       ?_Forced_rehash@?$_Hash@V?$_Umap_traits@PAVEconItemInterface@sdk@csgo@aw@@PAVGameSceneEconEntity@mod@34@V?$_Uhash_compare@PAVEconItemInterface@sdk@csgo@aw@@U?$hash@PAVEconItemInterface@sdk@csgo@aw@@@std@@U?$equal_to@PAVEconItemInterface@sdk@csgo@aw@@@6@@std@@V?$allocator@U?$pair@QAVEconItemInterface@sdk@csgo@aw@@PAVGameSceneEconEntity@mod@34@@std@@@8@$0A@@std@@@std@@IAEXI@Z 1006a9c0 f i gamescene_econentity.obj
 0001:00069b20       ??$?4V?$basic_string_view@DU?$char_traits@D@std@@@std@@$0A@@?$basic_string@DU?$char_traits@D@std@@V?$allocator@D@2@@std@@QAEAAV01@ABV?$basic_string_view@DU?$char_traits@D@std@@@1@@Z 1006ab20 f i gamescene_entity.obj
 0001:00069c40       ??$_Destroy_range@V?$allocator@UGameSceneModel@mod@csgo@aw@@@std@@@std@@YAXPAUGameSceneModel@mod@csgo@aw@@QAU1234@AAV?$allocator@UGameSceneModel@mod@csgo@aw@@@0@@Z 1006ac40 f i gamescene_entity.obj
 0001:00069c90       ??$_Emplace_reallocate@AAUGameSceneModel@mod@csgo@aw@@@?$vector@UGameSceneModel@mod@csgo@aw@@V?$allocator@UGameSceneModel@mod@csgo@aw@@@std@@@std@@AAEPAUGameSceneModel@mod@csgo@aw@@QAU2345@AAU2345@@Z 1006ac90 f i gamescene_entity.obj
 0001:00069de0       ??$_Uninitialized_move@PAUGameSceneModel@mod@csgo@aw@@V?$allocator@UGameSceneModel@mod@csgo@aw@@@std@@@std@@YAPAUGameSceneModel@mod@csgo@aw@@QAU1234@0PAU1234@AAV?$allocator@UGameSceneModel@mod@csgo@aw@@@0@@Z 1006ade0 f i gamescene_entity.obj
 0001:00069e70       ??0GameSceneEntity@mod@csgo@aw@@QAE@XZ 1006ae70 f   gamescene_entity.obj
 0001:00069f00       ??0GameSceneModel@mod@csgo@aw@@QAE@ABU0123@@Z 1006af00 f i gamescene_entity.obj
 0001:00069fd0       ??1GameSceneEntity@mod@csgo@aw@@UAE@XZ 1006afd0 f   gamescene_entity.obj
 0001:0006a0d0       ??_EGameSceneEntity@mod@csgo@aw@@UAEPAXI@Z 1006b0d0 f i gamescene_entity.obj
 0001:0006a0d0       ??_GGameSceneEntity@mod@csgo@aw@@UAEPAXI@Z 1006b0d0 f i gamescene_entity.obj
 0001:0006a1e0       ?AddMergedModel@GameSceneEntity@mod@csgo@aw@@QAEXV?$basic_string_view@DU?$char_traits@D@std@@@std@@@Z 1006b1e0 f   gamescene_entity.obj
 0001:0006a280       ?ClearMergedModels@GameSceneEntity@mod@csgo@aw@@QAEXXZ 1006b280 f   gamescene_entity.obj
 0001:0006a2f0       ?IsMergedStudioHdr@GameSceneEntity@mod@csgo@aw@@QAE_NPAUStudioHdr@sdk@34@@Z 1006b2f0 f   gamescene_entity.obj
 0001:0006a320       ?PostDrawModel@GameSceneEntity@mod@csgo@aw@@UAEXAAUDrawModel@hk@34@@Z 1006b320 f i gamescene_entity.obj
 0001:0006a330       ?PreDrawModel@GameSceneEntity@mod@csgo@aw@@UAEXAAUDrawModel@hk@34@@Z 1006b330 f i gamescene_entity.obj
 0001:0006a340       ?PrecacheModel@GameSceneEntity@mod@csgo@aw@@UAEXXZ 1006b340 f   gamescene_entity.obj
 0001:0006a420       ?Prepare@GameSceneEntity@mod@csgo@aw@@UAE_NXZ 1006b420 f   gamescene_entity.obj
 0001:0006a540       ?Render@GameSceneEntity@mod@csgo@aw@@QAEXXZ 1006b540 f   gamescene_entity.obj
 0001:0006a790       ?SetAngles@GameSceneEntity@mod@csgo@aw@@QAEXABVEulerAngles@4@@Z 1006b790 f   gamescene_entity.obj
 0001:0006a7b0       ?SetBaseModel@GameSceneEntity@mod@csgo@aw@@QAEXV?$basic_string_view@DU?$char_traits@D@std@@@std@@@Z 1006b7b0 f   gamescene_entity.obj
 0001:0006a7e0       ?SetOrigin@GameSceneEntity@mod@csgo@aw@@QAEXABVVector3@4@@Z 1006b7e0 f   gamescene_entity.obj
 0001:0006a800       ?_Xlength@?$vector@UGameSceneModel@mod@csgo@aw@@V?$allocator@UGameSceneModel@mod@csgo@aw@@@std@@@std@@CAXXZ 1006b800 f i gamescene_entity.obj
 0001:0006a810       ??$CreateModule@VViewRender@hk@csgo@aw@@@ModuleMgr@aw@@QAEPAVViewRender@hk@csgo@1@XZ 1006b810 f i gamescene_renderer.obj
 0001:0006a820       ??$FindModule@VViewRender@hk@csgo@aw@@@ModuleMgr@aw@@QAEPAVViewRender@hk@csgo@1@_N@Z 1006b820 f i gamescene_renderer.obj
 0001:0006a8f0       ??$FindOrCreateModule@VViewRender@hk@csgo@aw@@@ModuleMgr@aw@@QAEPAVViewRender@hk@csgo@1@XZ 1006b8f0 f i gamescene_renderer.obj
 0001:0006a910       ??$_Emplace_reallocate@PAVGameScene@mod@csgo@aw@@@?$vector@PAVGameScene@mod@csgo@aw@@V?$allocator@PAVGameScene@mod@csgo@aw@@@std@@@std@@AAEPAPAVGameScene@mod@csgo@aw@@QAPAV2345@$$QAPAV2345@@Z 1006b910 f i gamescene_renderer.obj
 0001:0006aa50       ??$_Emplace_reallocate@UGameSceneRenderTarget@mod@csgo@aw@@@?$vector@UGameSceneRenderTarget@mod@csgo@aw@@V?$allocator@UGameSceneRenderTarget@mod@csgo@aw@@@std@@@std@@AAEPAUGameSceneRenderTarget@mod@csgo@aw@@QAU2345@$$QAU2345@@Z 1006ba50 f i gamescene_renderer.obj
 0001:0006abe0       ??0GameSceneRenderer@mod@csgo@aw@@QAE@XZ 1006bbe0 f   gamescene_renderer.obj
 0001:0006ad00       ??_E?$ModuleBaseImpl@VGameSceneRenderer@mod@csgo@aw@@V?$TypedObject@VGameSceneRenderer@mod@csgo@aw@@VModuleBase@4@@4@@aw@@UAEPAXI@Z 1006bd00 f i gamescene_renderer.obj
 0001:0006ad00       ??_G?$ModuleBaseImpl@VGameSceneRenderer@mod@csgo@aw@@V?$TypedObject@VGameSceneRenderer@mod@csgo@aw@@VModuleBase@4@@4@@aw@@UAEPAXI@Z 1006bd00 f i gamescene_renderer.obj
 0001:0006ad30       ??_EGameSceneRenderer@mod@csgo@aw@@UAEPAXI@Z 1006bd30 f i gamescene_renderer.obj
 0001:0006ad30       ??_GGameSceneRenderer@mod@csgo@aw@@UAEPAXI@Z 1006bd30 f i gamescene_renderer.obj
 0001:0006ade0       ?CreateScene@GameSceneRenderer@mod@csgo@aw@@QAE?AV?$unique_ptr@VGameScene@mod@csgo@aw@@U?$default_delete@VGameScene@mod@csgo@aw@@@std@@@std@@XZ 1006bde0 f   gamescene_renderer.obj
 0001:0006ae40       ?GetId@?$TypedObject@VGameSceneRenderer@mod@csgo@aw@@VModuleBase@4@@aw@@UAEIXZ 1006be40 f i gamescene_renderer.obj
 0001:0006ae50       ?OnPostDrawModel@GameSceneRenderer@mod@csgo@aw@@IAEXAAUDrawModel@hk@34@@Z 1006be50 f   gamescene_renderer.obj
 0001:0006ae80       ?OnPreDrawModel@GameSceneRenderer@mod@csgo@aw@@IAEXAAUDrawModel@hk@34@@Z 1006be80 f   gamescene_renderer.obj
 0001:0006aeb0       ?OnRender@GameSceneRenderer@mod@csgo@aw@@IAEXAAURenderFrame@gfx@4@@Z 1006beb0 f   gamescene_renderer.obj
 0001:0006afd0       ?_Xlength@?$vector@PAVGameScene@mod@csgo@aw@@V?$allocator@PAVGameScene@mod@csgo@aw@@@std@@@std@@CAXXZ 1006bfd0 f i gamescene_renderer.obj
 0001:0006afe0       ?_Xlength@?$vector@UGameSceneRenderTarget@mod@csgo@aw@@V?$allocator@UGameSceneRenderTarget@mod@csgo@aw@@@std@@@std@@CAXXZ 1006bfe0 f i gamescene_renderer.obj
 0001:0006aff0       ??$CommandThunk@VSkinChanger@impl@mod@csgo@aw@@$1?OnSkinAdd@12345@IAEXAAV?$vector@V?$basic_string@DU?$char_traits@D@std@@V?$allocator@D@2@@std@@V?$allocator@V?$basic_string@DU?$char_traits@D@std@@V?$allocator@D@2@@std@@@2@@std@@@Z@ui@aw@@YAXPAXAAV?$vector@V?$basic_string@DU?$char_traits@D@std@@V?$allocator@D@2@@std@@V?$allocator@V?$basic_string@DU?$char_traits@D@std@@V?$allocator@D@2@@std@@@2@@std@@@Z 1006bff0 f i skinchanger.obj
 0001:0006b000       ??$CommandThunk@VSkinChanger@impl@mod@csgo@aw@@$1?OnSkinClear@12345@IAEXAAV?$vector@V?$basic_string@DU?$char_traits@D@std@@V?$allocator@D@2@@std@@V?$allocator@V?$basic_string@DU?$char_traits@D@std@@V?$allocator@D@2@@std@@@2@@std@@@Z@ui@aw@@YAXPAXAAV?$vector@V?$basic_string@DU?$char_traits@D@std@@V?$allocator@D@2@@std@@V?$allocator@V?$basic_string@DU?$char_traits@D@std@@V?$allocator@D@2@@std@@@2@@std@@@Z 1006c000 f i skinchanger.obj
 0001:0006b010       ??$_Destroy_range@V?$allocator@USkinSavedItem@ui@csgo@aw@@@std@@@std@@YAXPAUSkinSavedItem@ui@csgo@aw@@QAU1234@AAV?$allocator@USkinSavedItem@ui@csgo@aw@@@0@@Z 1006c010 f i skinchanger.obj
 0001:0006b0e0       ??$_Emplace_reallocate@ABUEconItemDesignable@skinchanger@mod@csgo@aw@@@?$vector@UEconItemDesignable@skinchanger@mod@csgo@aw@@V?$allocator@UEconItemDesignable@skinchanger@mod@csgo@aw@@@std@@@std@@AAEPAUEconItemDesignable@skinchanger@mod@csgo@aw@@QAU23456@ABU23456@@Z 1006c0e0 f i skinchanger.obj
 0001:0006b270       ??$_Emplace_reallocate@ABUSkinChangerItem@ui@csgo@aw@@@?$vector@USkinChangerItem@ui@csgo@aw@@V?$allocator@USkinChangerItem@ui@csgo@aw@@@std@@@std@@AAEPAUSkinChangerItem@ui@csgo@aw@@QAU2345@ABU2345@@Z 1006c270 f i skinchanger.obj
 0001:0006b3f0       ??$_Emplace_reallocate@V?$basic_string@DU?$char_traits@D@std@@V?$allocator@D@2@@std@@@?$vector@V?$basic_string@DU?$char_traits@D@std@@V?$allocator@D@2@@std@@V?$allocator@V?$basic_string@DU?$char_traits@D@std@@V?$allocator@D@2@@std@@@2@@std@@AAEPAV?$basic_string@DU?$char_traits@D@std@@V?$allocator@D@2@@1@QAV21@$$QAV21@@Z 1006c3f0 f i skinchanger.obj
 0001:0006b580       ??$_Erase_tree@V?$allocator@U?$_Tree_node@U?$pair@$$CBHW4EconItemType@skinchanger@mod@csgo@aw@@@std@@PAX@std@@@std@@@?$_Tree_val@U?$_Tree_simple_types@U?$pair@$$CBHW4EconItemType@skinchanger@mod@csgo@aw@@@std@@@std@@@std@@QAEXAAV?$allocator@U?$_Tree_node@U?$pair@$$CBHW4EconItemType@skinchanger@mod@csgo@aw@@@std@@PAX@std@@@1@PAU?$_Tree_node@U?$pair@$$CBHW4EconItemType@skinchanger@mod@csgo@aw@@@std@@PAX@1@@Z 1006c580 f i skinchanger.obj
 0001:0006b5c0       ??$_Resize_reallocate@U_Value_init_tag@std@@@?$vector@USkinSavedItem@ui@csgo@aw@@V?$allocator@USkinSavedItem@ui@csgo@aw@@@std@@@std@@AAEXIABU_Value_init_tag@1@@Z 1006c5c0 f i skinchanger.obj
 0001:0006b740       ??$_Uninitialized_move@PAUEconItemDesignable@skinchanger@mod@csgo@aw@@V?$allocator@UEconItemDesignable@skinchanger@mod@csgo@aw@@@std@@@std@@YAPAUEconItemDesignable@skinchanger@mod@csgo@aw@@QAU12345@0PAU12345@AAV?$allocator@UEconItemDesignable@skinchanger@mod@csgo@aw@@@0@@Z 1006c740 f i skinchanger.obj
 0001:0006b770       ??$_Uninitialized_move@PAUSkinChangerItem@ui@csgo@aw@@V?$allocator@USkinChangerItem@ui@csgo@aw@@@std@@@std@@YAPAUSkinChangerItem@ui@csgo@aw@@QAU1234@0PAU1234@AAV?$allocator@USkinChangerItem@ui@csgo@aw@@@0@@Z 1006c770 f i skinchanger.obj
 0001:0006b7a0       ??$_Uninitialized_move@PAV?$basic_string@DU?$char_traits@D@std@@V?$allocator@D@2@@std@@V?$allocator@V?$basic_string@DU?$char_traits@D@std@@V?$allocator@D@2@@std@@@2@@std@@YAPAV?$basic_string@DU?$char_traits@D@std@@V?$allocator@D@2@@0@QAV10@0PAV10@AAV?$allocator@V?$basic_string@DU?$char_traits@D@std@@V?$allocator@D@2@@std@@@0@@Z 1006c7a0 f i skinchanger.obj
 0001:0006b820       ??$_Uninitialized_value_construct_n@V?$allocator@USkinSavedItem@ui@csgo@aw@@@std@@@std@@YAPAUSkinSavedItem@ui@csgo@aw@@PAU1234@IAAV?$allocator@USkinSavedItem@ui@csgo@aw@@@0@@Z 1006c820 f i skinchanger.obj
 0001:0006b860       ??0?$vector@PAVPaintKit@sdk@csgo@aw@@V?$allocator@PAVPaintKit@sdk@csgo@aw@@@std@@@std@@QAE@ABV01@@Z 1006c860 f i skinchanger.obj
 0001:0006b910       ??0?$vector@PAVStickerKit@sdk@csgo@aw@@V?$allocator@PAVStickerKit@sdk@csgo@aw@@@std@@@std@@QAE@ABV01@@Z 1006c910 f i skinchanger.obj
 0001:0006b9c0       ??0EconItemDesign@skinchanger@mod@csgo@aw@@QAE@ABV01234@@Z 1006c9c0 f i skinchanger.obj
 0001:0006ba30       ??0EconItemDesignable@skinchanger@mod@csgo@aw@@QAE@$$QAU01234@@Z 1006ca30 f i skinchanger.obj
 0001:0006baa0       ??0SkinChanger@impl@mod@csgo@aw@@QAE@XZ 1006caa0 f i skinchanger.obj
 0001:0006bca0       ??0SkinChangerItem@ui@csgo@aw@@QAE@$$QAU0123@@Z 1006cca0 f i skinchanger.obj
 0001:0006bd10       ??0SkinSavedItem@ui@csgo@aw@@QAE@$$QAU0123@@Z 1006cd10 f i skinchanger.obj
 0001:0006bdf0       ??0SkinSavedItem@ui@csgo@aw@@QAE@XZ 1006cdf0 f i skinchanger.obj
 0001:0006be60       ??1?$_Tree@V?$_Tmap_traits@HW4EconItemType@skinchanger@mod@csgo@aw@@U?$less@H@std@@V?$allocator@U?$pair@$$CBHW4EconItemType@skinchanger@mod@csgo@aw@@@std@@@7@$0A@@std@@@std@@QAE@XZ 1006ce60 f i skinchanger.obj
 0001:0006bea0       ??1EconItemDesign@skinchanger@mod@csgo@aw@@QAE@XZ 1006cea0 f i skinchanger.obj
 0001:0006bf50       ??1EconItemDesignable@skinchanger@mod@csgo@aw@@QAE@XZ 1006cf50 f i skinchanger.obj
 0001:0006bfd0       ??1SkinChangerItem@ui@csgo@aw@@QAE@XZ 1006cfd0 f i skinchanger.obj
 0001:0006c050       ??A?$map@HW4EconItemType@skinchanger@mod@csgo@aw@@U?$less@H@std@@V?$allocator@U?$pair@$$CBHW4EconItemType@skinchanger@mod@csgo@aw@@@std@@@7@@std@@QAEAAW4EconItemType@skinchanger@mod@csgo@aw@@ABH@Z 1006d050 f i skinchanger.obj
 0001:0006c0f0       ??_E?$ModuleBaseImpl@VSkinChanger@mod@csgo@aw@@V?$TypedObject@VSkinChanger@mod@csgo@aw@@VModuleBase@4@@4@@aw@@UAEPAXI@Z 1006d0f0 f i skinchanger.obj
 0001:0006c0f0       ??_G?$ModuleBaseImpl@VSkinChanger@mod@csgo@aw@@V?$TypedObject@VSkinChanger@mod@csgo@aw@@VModuleBase@4@@4@@aw@@UAEPAXI@Z 1006d0f0 f i skinchanger.obj
 0001:0006c120       ??_ESkinChanger@impl@mod@csgo@aw@@UAEPAXI@Z 1006d120 f i skinchanger.obj
 0001:0006c120       ??_GSkinChanger@impl@mod@csgo@aw@@UAEPAXI@Z 1006d120 f i skinchanger.obj
 0001:0006c160       ?AddSkin@SkinChanger@impl@mod@csgo@aw@@UAEXHHV?$basic_string_view@DU?$char_traits@D@std@@@std@@000PAH@Z 1006d160 f   skinchanger.obj
 0001:0006c5a0       ?AddToEconItemDesignable@SkinChanger@impl@mod@csgo@aw@@IAEXPAVEconItemDefinition@sdk@45@@Z 1006d5a0 f   skinchanger.obj
 0001:0006c9b0       ?CreateModule@?$ModuleWithFactory@VSkinChanger@mod@csgo@aw@@@aw@@SAPAVSkinChanger@mod@csgo@2@XZ 1006d9b0 f   skinchanger.obj
 0001:0006c9e0       ?ForceFullUpdate@SkinChanger@impl@mod@csgo@aw@@UAEXXZ 1006d9e0 f   skinchanger.obj
 0001:0006c9f0       ?GetEconItemDesignableList@SkinChanger@impl@mod@csgo@aw@@UAEAAV?$vector@UEconItemDesignable@skinchanger@mod@csgo@aw@@V?$allocator@UEconItemDesignable@skinchanger@mod@csgo@aw@@@std@@@std@@XZ 1006d9f0 f i skinchanger.obj
 0001:0006ca00       ?GetId@?$TypedObject@VSkinChanger@mod@csgo@aw@@VModuleBase@4@@aw@@UAEIXZ 1006da00 f i skinchanger.obj
 0001:0006ca10       ?GetItemDefinitionType@SkinChanger@impl@mod@csgo@aw@@UAE?AW4EconItemType@skinchanger@345@H@Z 1006da10 f i skinchanger.obj
 0001:0006ca30       ?GetItemDefinitionType@SkinChanger@impl@mod@csgo@aw@@UAE?AW4EconItemType@skinchanger@345@PAVEconItemDefinition@sdk@45@@Z 1006da30 f i skinchanger.obj
 0001:0006ca50       ?Initialize@SkinChanger@impl@mod@csgo@aw@@IAEXXZ 1006da50 f   skinchanger.obj
 0001:0006ce70       ?IsEnabled@SkinChanger@impl@mod@csgo@aw@@UAE_NXZ 1006de70 f i skinchanger.obj
 0001:0006ceb0       ?OnConfigLoad@SkinChanger@impl@mod@csgo@aw@@IAEXAAUConfigLoad@ui@5@@Z 1006deb0 f   skinchanger.obj
 0001:0006ced0       ?OnConfigReset@SkinChanger@impl@mod@csgo@aw@@IAEXAAUConfigReset@ui@5@@Z 1006ded0 f   skinchanger.obj
 0001:0006cf20       ?OnConfigSave@SkinChanger@impl@mod@csgo@aw@@IAEXAAUConfigSave@ui@5@@Z 1006df20 f   skinchanger.obj
 0001:0006d790       ?OnReadPacketEntities@SkinChanger@impl@mod@csgo@aw@@IAEXAAUReadPacketEntities@hk@45@@Z 1006e790 f   skinchanger.obj
 0001:0006d850       ?OnRegisterCmds@SkinChanger@impl@mod@csgo@aw@@IAEXAAURegisterCommands@ui@5@@Z 1006e850 f   skinchanger.obj
 0001:0006d9f0       ?OnRender@SkinChanger@impl@mod@csgo@aw@@IAEXAAURenderFrame@gfx@5@@Z 1006e9f0 f   skinchanger.obj
 0001:0006da20       ?OnSkinAdd@SkinChanger@impl@mod@csgo@aw@@IAEXAAV?$vector@V?$basic_string@DU?$char_traits@D@std@@V?$allocator@D@2@@std@@V?$allocator@V?$basic_string@DU?$char_traits@D@std@@V?$allocator@D@2@@std@@@2@@std@@@Z 1006ea20 f   skinchanger.obj
 0001:0006e1d0       ?OnSkinClear@SkinChanger@impl@mod@csgo@aw@@IAEXAAV?$vector@V?$basic_string@DU?$char_traits@D@std@@V?$allocator@D@2@@std@@V?$allocator@V?$basic_string@DU?$char_traits@D@std@@V?$allocator@D@2@@std@@@2@@std@@@Z 1006f1d0 f   skinchanger.obj
 0001:0006e240       ?ReloadHudIcons@SkinChanger@impl@mod@csgo@aw@@UAEXXZ 1006f240 f   skinchanger.obj
 0001:0006e440       ?RemoveSkin@SkinChanger@impl@mod@csgo@aw@@UAEXH@Z 1006f440 f   skinchanger.obj
 0001:0006e490       ?_Insert_node@?$_Tree_val@U?$_Tree_simple_types@U?$pair@$$CBHW4EconItemType@skinchanger@mod@csgo@aw@@@std@@@std@@@std@@QAEPAU?$_Tree_node@U?$pair@$$CBHW4EconItemType@skinchanger@mod@csgo@aw@@@std@@PAX@2@U?$_Tree_id@PAU?$_Tree_node@U?$pair@$$CBHW4EconItemType@skinchanger@mod@csgo@aw@@@std@@PAX@std@@@2@QAU32@@Z 1006f490 f i skinchanger.obj
 0001:0006e680       ?_Tidy@?$vector@UEconItemDesignable@skinchanger@mod@csgo@aw@@V?$allocator@UEconItemDesignable@skinchanger@mod@csgo@aw@@@std@@@std@@AAEXXZ 1006f680 f i skinchanger.obj
 0001:0006e6f0       ?_Xlength@?$vector@PAVPaintKit@sdk@csgo@aw@@V?$allocator@PAVPaintKit@sdk@csgo@aw@@@std@@@std@@CAXXZ 1006f6f0 f i skinchanger.obj
 0001:0006e700       ?_Xlength@?$vector@PAVStickerKit@sdk@csgo@aw@@V?$allocator@PAVStickerKit@sdk@csgo@aw@@@std@@@std@@CAXXZ 1006f700 f i skinchanger.obj
 0001:0006e710       ?_Xlength@?$vector@UEconItemDesignable@skinchanger@mod@csgo@aw@@V?$allocator@UEconItemDesignable@skinchanger@mod@csgo@aw@@@std@@@std@@CAXXZ 1006f710 f i skinchanger.obj
 0001:0006e720       ?_Xlength@?$vector@USkinChangerItem@ui@csgo@aw@@V?$allocator@USkinChangerItem@ui@csgo@aw@@@std@@@std@@CAXXZ 1006f720 f i skinchanger.obj
 0001:0006e730       ?_Xlength@?$vector@USkinSavedItem@ui@csgo@aw@@V?$allocator@USkinSavedItem@ui@csgo@aw@@@std@@@std@@CAXXZ 1006f730 f i skinchanger.obj
 0001:0006e740       ?allocate@?$allocator@PAVPaintKit@sdk@csgo@aw@@@std@@QAEPAPAVPaintKit@sdk@csgo@aw@@I@Z 1006f740 f i skinchanger.obj
 0001:0006e7a0       ?allocate@?$allocator@PAVStickerKit@sdk@csgo@aw@@@std@@QAEPAPAVStickerKit@sdk@csgo@aw@@I@Z 1006f7a0 f i skinchanger.obj
 0001:0006e800       ?allocate@?$allocator@UEconItemDesignable@skinchanger@mod@csgo@aw@@@std@@QAEPAUEconItemDesignable@skinchanger@mod@csgo@aw@@I@Z 1006f800 f i skinchanger.obj
 0001:0006e860       ??$_Emplace_reallocate@AAVEconItemDesign@skinchanger@mod@csgo@aw@@@?$vector@VEconItemDesign@skinchanger@mod@csgo@aw@@V?$allocator@VEconItemDesign@skinchanger@mod@csgo@aw@@@std@@@std@@AAEPAVEconItemDesign@skinchanger@mod@csgo@aw@@QAV23456@AAV23456@@Z 1006f860 f i skinchanger_interface.obj
 0001:0006ea00       ??$_Uninitialized_move@PAVEconItemDesign@skinchanger@mod@csgo@aw@@V?$allocator@VEconItemDesign@skinchanger@mod@csgo@aw@@@std@@@std@@YAPAVEconItemDesign@skinchanger@mod@csgo@aw@@QAV12345@0PAV12345@AAV?$allocator@VEconItemDesign@skinchanger@mod@csgo@aw@@@0@@Z 1006fa00 f i skinchanger_interface.obj
 0001:0006ea30       ??0EconItemDesign@skinchanger@mod@csgo@aw@@QAE@$$QAV01234@@Z 1006fa30 f i skinchanger_interface.obj
 0001:0006eb20       ??0OverrideBase@skinchanger@mod@csgo@aw@@QAE@XZ 1006fb20 f   skinchanger_interface.obj
 0001:0006eb40       ?AddEconItemDesign@OverrideBase@skinchanger@mod@csgo@aw@@QAEXVEconItemDesign@2345@@Z 1006fb40 f   skinchanger_interface.obj
 0001:0006ec10       ?RemoveEconItemDesign@OverrideBase@skinchanger@mod@csgo@aw@@QAEXH@Z 1006fc10 f   skinchanger_interface.obj
 0001:0006ecf0       ?ResetEconItemDesign@OverrideBase@skinchanger@mod@csgo@aw@@QAEXXZ 1006fcf0 f   skinchanger_interface.obj
 0001:0006ed20       ?_Xlength@?$vector@VEconItemDesign@skinchanger@mod@csgo@aw@@V?$allocator@VEconItemDesign@skinchanger@mod@csgo@aw@@@std@@@std@@CAXXZ 1006fd20 f i skinchanger_interface.obj
 0001:0006ed30       ??_E?$ModuleBaseImpl@VPlayerOverride@skinchanger@mod@csgo@aw@@V?$TypedObject@VPlayerOverride@skinchanger@mod@csgo@aw@@VModuleBase@5@@5@@aw@@UAEPAXI@Z 1006fd30 f i skinchanger_player.obj
 0001:0006ed30       ??_G?$ModuleBaseImpl@VPlayerOverride@skinchanger@mod@csgo@aw@@V?$TypedObject@VPlayerOverride@skinchanger@mod@csgo@aw@@VModuleBase@5@@5@@aw@@UAEPAXI@Z 1006fd30 f i skinchanger_player.obj
 0001:0006ed60       ??_E?$ModuleWithFactory@VPlayerOverride@skinchanger@mod@csgo@aw@@@aw@@UAEPAXI@Z 1006fd60 f i skinchanger_player.obj
 0001:0006ed60       ??_G?$ModuleWithFactory@VPlayerOverride@skinchanger@mod@csgo@aw@@@aw@@UAEPAXI@Z 1006fd60 f i skinchanger_player.obj
 0001:0006ed90       ??_EPlayerOverride@impl@skinchanger@mod@csgo@aw@@UAEPAXI@Z 1006fd90 f i skinchanger_player.obj
 0001:0006ed90       ??_GPlayerOverride@impl@skinchanger@mod@csgo@aw@@UAEPAXI@Z 1006fd90 f i skinchanger_player.obj
 0001:0006edc0       ?CreateModule@?$ModuleWithFactory@VPlayerOverride@skinchanger@mod@csgo@aw@@@aw@@SAPAVPlayerOverride@skinchanger@mod@csgo@2@XZ 1006fdc0 f   skinchanger_player.obj
 0001:0006ee40       ?GetId@?$TypedObject@VPlayerOverride@skinchanger@mod@csgo@aw@@VModuleBase@5@@aw@@UAEIXZ 1006fe40 f i skinchanger_player.obj
 0001:0006ee50       ?Update@PlayerOverride@impl@skinchanger@mod@csgo@aw@@MAEXPAVCSPlayer@sdk@56@_K@Z 1006fe50 f   skinchanger_player.obj
 0001:0006ee90       ?_Tidy@?$vector@VEconItemDesign@skinchanger@mod@csgo@aw@@V?$allocator@VEconItemDesign@skinchanger@mod@csgo@aw@@@std@@@std@@AAEXXZ 1006fe90 f i skinchanger_player.obj
 0001:0006efb0       ??_E?$ModuleBaseImpl@VWeaponOverride@skinchanger@mod@csgo@aw@@V?$TypedObject@VWeaponOverride@skinchanger@mod@csgo@aw@@VModuleBase@5@@5@@aw@@UAEPAXI@Z 1006ffb0 f i skinchanger_weapon.obj
 0001:0006efb0       ??_G?$ModuleBaseImpl@VWeaponOverride@skinchanger@mod@csgo@aw@@V?$TypedObject@VWeaponOverride@skinchanger@mod@csgo@aw@@VModuleBase@5@@5@@aw@@UAEPAXI@Z 1006ffb0 f i skinchanger_weapon.obj
 0001:0006efe0       ??_E?$ModuleWithFactory@VWeaponOverride@skinchanger@mod@csgo@aw@@@aw@@UAEPAXI@Z 1006ffe0 f i skinchanger_weapon.obj
 0001:0006efe0       ??_G?$ModuleWithFactory@VWeaponOverride@skinchanger@mod@csgo@aw@@@aw@@UAEPAXI@Z 1006ffe0 f i skinchanger_weapon.obj
 0001:0006f010       ??_EWeaponOverride@impl@skinchanger@mod@csgo@aw@@UAEPAXI@Z 10070010 f i skinchanger_weapon.obj
 0001:0006f010       ??_GWeaponOverride@impl@skinchanger@mod@csgo@aw@@UAEPAXI@Z 10070010 f i skinchanger_weapon.obj
 0001:0006f040       ?CreateModule@?$ModuleWithFactory@VWeaponOverride@skinchanger@mod@csgo@aw@@@aw@@SAPAVWeaponOverride@skinchanger@mod@csgo@2@XZ 10070040 f   skinchanger_weapon.obj
 0001:0006f1d0       ?GetId@?$TypedObject@VWeaponOverride@skinchanger@mod@csgo@aw@@VModuleBase@5@@aw@@UAEIXZ 100701d0 f i skinchanger_weapon.obj
 0001:0006f1e0       ?GetItemDesignByDefinitionIndex@WeaponOverride@impl@skinchanger@mod@csgo@aw@@IAEPAVEconItemDesign@3456@H@Z 100701e0 f   skinchanger_weapon.obj
 0001:0006f230       ?HkGetStickerAttributeBySlotIndexInt@WeaponOverride@impl@skinchanger@mod@csgo@aw@@KIIPAXHHHI@Z 10070230 f   skinchanger_weapon.obj
 0001:0006f280       ?OnBaseViewModelSequence@WeaponOverride@impl@skinchanger@mod@csgo@aw@@IAEXAAUBaseViewModelSequence@hk@56@@Z 10070280 f   skinchanger_weapon.obj
 0001:0006f430       ?OnFireEventClientSide@WeaponOverride@impl@skinchanger@mod@csgo@aw@@IAEXAAUGameEventClientSide@hk@56@@Z 10070430 f   skinchanger_weapon.obj
 0001:0006fab0       ?OnGetStickerAttributeBySlotIndexInt@WeaponOverride@impl@skinchanger@mod@csgo@aw@@MAEXAAUGetStickerAttributeBySlotIndexInt@456@@Z 10070ab0 f   skinchanger_weapon.obj
 0001:0006fb60       ?OnPostRunCommand@WeaponOverride@impl@skinchanger@mod@csgo@aw@@IAEXAAURunCommand@hk@56@@Z 10070b60 f   skinchanger_weapon.obj
 0001:0006fbe0       ?OnPreRunCommand@WeaponOverride@impl@skinchanger@mod@csgo@aw@@IAEXAAURunCommand@hk@56@@Z 10070be0 f   skinchanger_weapon.obj
 0001:0006fc60       ?Update@WeaponOverride@impl@skinchanger@mod@csgo@aw@@UAEXPAVCSPlayer@sdk@56@_K@Z 10070c60 f   skinchanger_weapon.obj
 0001:0006fe40       ?UpdateBaseCombatWeapon@WeaponOverride@impl@skinchanger@mod@csgo@aw@@IAEXPAVBaseCombatWeapon@sdk@56@@Z 10070e40 f   skinchanger_weapon.obj
 0001:00070150       ??_E?$ModuleBaseImpl@VWearableOverride@skinchanger@mod@csgo@aw@@V?$TypedObject@VWearableOverride@skinchanger@mod@csgo@aw@@VModuleBase@5@@5@@aw@@UAEPAXI@Z 10071150 f i skinchanger_wearable.obj
 0001:00070150       ??_G?$ModuleBaseImpl@VWearableOverride@skinchanger@mod@csgo@aw@@V?$TypedObject@VWearableOverride@skinchanger@mod@csgo@aw@@VModuleBase@5@@5@@aw@@UAEPAXI@Z 10071150 f i skinchanger_wearable.obj
 0001:00070180       ??_E?$ModuleWithFactory@VWearableOverride@skinchanger@mod@csgo@aw@@@aw@@UAEPAXI@Z 10071180 f i skinchanger_wearable.obj
 0001:00070180       ??_G?$ModuleWithFactory@VWearableOverride@skinchanger@mod@csgo@aw@@@aw@@UAEPAXI@Z 10071180 f i skinchanger_wearable.obj
 0001:000701b0       ??_EWearableOverride@impl@skinchanger@mod@csgo@aw@@UAEPAXI@Z 100711b0 f i skinchanger_wearable.obj
 0001:000701b0       ??_GWearableOverride@impl@skinchanger@mod@csgo@aw@@UAEPAXI@Z 100711b0 f i skinchanger_wearable.obj
 0001:000701e0       ?CreateModule@?$ModuleWithFactory@VWearableOverride@skinchanger@mod@csgo@aw@@@aw@@SAPAVWearableOverride@skinchanger@mod@csgo@2@XZ 100711e0 f   skinchanger_wearable.obj
 0001:00070260       ?GetId@?$TypedObject@VWearableOverride@skinchanger@mod@csgo@aw@@VModuleBase@5@@aw@@UAEIXZ 10071260 f i skinchanger_wearable.obj
 0001:00070270       ?Update@WearableOverride@impl@skinchanger@mod@csgo@aw@@UAEXPAVCSPlayer@sdk@56@_K@Z 10071270 f   skinchanger_wearable.obj
 0001:00070400       ??0EspEntityBase@mod@csgo@aw@@QAE@PAVObjectBase@ui@3@@Z 10071400 f   esp_entity_base.obj
 0001:00070550       ??1EspEntityBase@mod@csgo@aw@@UAE@XZ 10071550 f i esp_entity_base.obj
 0001:00070750       ??_EEspEntityBase@mod@csgo@aw@@UAEPAXI@Z 10071750 f i esp_entity_base.obj
 0001:00070750       ??_GEspEntityBase@mod@csgo@aw@@UAEPAXI@Z 10071750 f i esp_entity_base.obj
 0001:00070780       ?AllowVarHelper@EspEntityBase@mod@csgo@aw@@UAE_NXZ 10071780 f   esp_entity_base.obj
 0001:00070790       ?Build@EspEntityBase@mod@csgo@aw@@UAEXXZ 10071790 f   esp_entity_base.obj
 0001:00070f30       ?GetBoxColor@EspEntityBase@mod@csgo@aw@@QAE?AUColor@gfx@4@PAVBaseEntity@sdk@34@@Z 10071f30 f   esp_entity_base.obj
 0001:00070fb0       ?GetDefaultBoxColor@EspEntityBase@mod@csgo@aw@@UAE?AUColor@gfx@4@XZ 10071fb0 f   esp_entity_base.obj
 0001:00070fc0       ?GetType@?$Object@VGroupbox@ui@aw@@@ui@aw@@UAEIXZ 10071fc0 f i esp_entity_base.obj
 0001:00070fd0       ?IsEnemy@EspEntityBase@mod@csgo@aw@@UAE_NXZ 10071fd0 f   esp_entity_base.obj
 0001:00070fe0       ?IsPlayer@EspEntityBase@mod@csgo@aw@@UAE_NXZ 10071fe0 f   esp_entity_base.obj
 0001:00070ff0       ?IsWeapon@EspEntityBase@mod@csgo@aw@@UAE_NXZ 10071ff0 f   esp_entity_base.obj
 0001:00071000       ?_Xlength@?$vector@PAVEspElementBase@mod@csgo@aw@@V?$allocator@PAVEspElementBase@mod@csgo@aw@@@std@@@std@@CAXXZ 10072000 f i esp_entity_base.obj
 0001:00071010       ?allocate@?$allocator@PAVEspElementBase@mod@csgo@aw@@@std@@QAEPAPAVEspElementBase@mod@csgo@aw@@I@Z 10072010 f i esp_entity_base.obj
 0001:00071070       ?push_back@?$vector@PAVEspElementBase@mod@csgo@aw@@V?$allocator@PAVEspElementBase@mod@csgo@aw@@@std@@@std@@QAEX$$QAPAVEspElementBase@mod@csgo@aw@@@Z 10072070 f i esp_entity_base.obj
 0001:00071170       ?GetDefaultBoxColor@EspEntityEnemy@mod@csgo@aw@@UAE?AUColor@gfx@4@XZ 10072170 f   esp_entity_enemy.obj
 0001:00071180       ?IsEnemy@EspEntityEnemy@mod@csgo@aw@@UAE_NXZ 10072180 f   esp_entity_enemy.obj
 0001:00071190       ?GetDefaultBoxColor@EspEntityFriend@mod@csgo@aw@@UAE?AUColor@gfx@4@XZ 10072190 f   esp_entity_friend.obj
 0001:000711a0       ?IsEnemy@EspEntityFriend@mod@csgo@aw@@UAE_NXZ 100721a0 f   esp_entity_friend.obj
 0001:000711b0       ?IsPlayer@EspEntityPlayer@mod@csgo@aw@@UAE_NXZ 100721b0 f   esp_entity_player.obj
 0001:000711c0       ?Build@EspEntityWeapon@mod@csgo@aw@@UAEXXZ 100721c0 f   esp_entity_weapon.obj
 0001:00071230       ?GetDefaultBoxColor@EspEntityWeapon@mod@csgo@aw@@UAE?AUColor@gfx@4@XZ 10072230 f   esp_entity_weapon.obj
 0001:00071240       ?IsWeapon@EspEntityWeapon@mod@csgo@aw@@UAE_NXZ 10072240 f   esp_entity_weapon.obj
 0001:00071250       ?GetDynamic@PanoramaUIEngine@sdk@csgo@aw@@SAPAV1234@XZ 10072250 f i stdafx.obj
 0001:00071270       ??$_Emplace_reallocate@AAPAVBaseCSGrenadeProjectile@sdk@csgo@aw@@@?$vector@PAVBaseCSGrenadeProjectile@sdk@csgo@aw@@V?$allocator@PAVBaseCSGrenadeProjectile@sdk@csgo@aw@@@std@@@std@@AAEPAPAVBaseCSGrenadeProjectile@sdk@csgo@aw@@QAPAV2345@AAPAV2345@@Z 10072270 f i esp_drawhelper.obj
 0001:000713b0       ??$_Emplace_reallocate@AAPAVBaseEntity@sdk@csgo@aw@@@?$vector@PAVBaseEntity@sdk@csgo@aw@@V?$allocator@PAVBaseEntity@sdk@csgo@aw@@@std@@@std@@AAEPAPAVBaseEntity@sdk@csgo@aw@@QAPAV2345@AAPAV2345@@Z 100723b0 f i esp_drawhelper.obj
 0001:000714f0       ??$_Emplace_reallocate@AAPAVCSPlayer@sdk@csgo@aw@@@?$vector@PAVCSPlayer@sdk@csgo@aw@@V?$allocator@PAVCSPlayer@sdk@csgo@aw@@@std@@@std@@AAEPAPAVCSPlayer@sdk@csgo@aw@@QAPAV2345@AAPAV2345@@Z 100724f0 f i esp_drawhelper.obj
 0001:00071630       ??$_Emplace_reallocate@AAPAVInferno@sdk@csgo@aw@@@?$vector@PAVInferno@sdk@csgo@aw@@V?$allocator@PAVInferno@sdk@csgo@aw@@@std@@@std@@AAEPAPAVInferno@sdk@csgo@aw@@QAPAV2345@AAPAV2345@@Z 10072630 f i esp_drawhelper.obj
 0001:00071770       ??1EspDrawHelper@impl@mod@csgo@aw@@UAE@XZ 10072770 f i esp_drawhelper.obj
 0001:000718b0       ??_E?$ModuleBaseImpl@VEspDrawHelper@mod@csgo@aw@@V?$TypedObject@VEspDrawHelper@mod@csgo@aw@@VModuleBase@4@@4@@aw@@UAEPAXI@Z 100728b0 f i esp_drawhelper.obj
 0001:000718b0       ??_G?$ModuleBaseImpl@VEspDrawHelper@mod@csgo@aw@@V?$TypedObject@VEspDrawHelper@mod@csgo@aw@@VModuleBase@4@@4@@aw@@UAEPAXI@Z 100728b0 f i esp_drawhelper.obj
 0001:000718e0       ??_EEspDraw@mod@csgo@aw@@UAEPAXI@Z 100728e0 f i esp_drawhelper.obj
 0001:000718e0       ??_GEspDraw@mod@csgo@aw@@UAEPAXI@Z 100728e0 f i esp_drawhelper.obj
 0001:00071910       ??_EEspDrawHelper@impl@mod@csgo@aw@@UAEPAXI@Z 10072910 f i esp_drawhelper.obj
 0001:00071910       ??_GEspDrawHelper@impl@mod@csgo@aw@@UAEPAXI@Z 10072910 f i esp_drawhelper.obj
 0001:00071930       ?CreateModule@?$ModuleWithFactory@VEspDrawHelper@mod@csgo@aw@@@aw@@SAPAVEspDrawHelper@mod@csgo@2@XZ 10072930 f   esp_drawhelper.obj
 0001:00071ae0       ?GetId@?$TypedObject@UEspDraw@mod@csgo@aw@@UCallbackVars@4@@aw@@UAEIXZ 10072ae0 f i esp_drawhelper.obj
 0001:00071af0       ?GetId@?$TypedObject@VEspDrawHelper@mod@csgo@aw@@VModuleBase@4@@aw@@UAEIXZ 10072af0 f i esp_drawhelper.obj
 0001:00071b00       ?OnAddEntity@EspDrawHelper@impl@mod@csgo@aw@@IAEXAAUOnAddEntityCallback@hk@45@@Z 10072b00 f   esp_drawhelper.obj
 0001:00071b10       ?OnInit@EspDrawHelper@impl@mod@csgo@aw@@IAEXAAUCommonInit@5@@Z 10072b10 f   esp_drawhelper.obj
 0001:00071c60       ?OnRemoveEntity@EspDrawHelper@impl@mod@csgo@aw@@IAEXAAUOnRemoveEntityCallback@hk@45@@Z 10072c60 f   esp_drawhelper.obj
 0001:00071dc0       ?OnRender@EspDrawHelper@impl@mod@csgo@aw@@IAEXAAURenderFrame@gfx@5@@Z 10072dc0 f   esp_drawhelper.obj
 0001:00071e60       ?ValidateAndAddEntity@EspDrawHelper@impl@mod@csgo@aw@@IAEXPAVBaseEntity@sdk@45@@Z 10072e60 f   esp_drawhelper.obj
 0001:00071f50       ?_Xlength@?$vector@PAVBaseCSGrenadeProjectile@sdk@csgo@aw@@V?$allocator@PAVBaseCSGrenadeProjectile@sdk@csgo@aw@@@std@@@std@@CAXXZ 10072f50 f i esp_drawhelper.obj
 0001:00071f60       ?_Xlength@?$vector@PAVBaseEntity@sdk@csgo@aw@@V?$allocator@PAVBaseEntity@sdk@csgo@aw@@@std@@@std@@CAXXZ 10072f60 f i esp_drawhelper.obj
 0001:00071f70       ?_Xlength@?$vector@PAVCSPlayer@sdk@csgo@aw@@V?$allocator@PAVCSPlayer@sdk@csgo@aw@@@std@@@std@@CAXXZ 10072f70 f i esp_drawhelper.obj
 0001:00071f80       ?_Xlength@?$vector@PAVInferno@sdk@csgo@aw@@V?$allocator@PAVInferno@sdk@csgo@aw@@@std@@@std@@CAXXZ 10072f80 f i esp_drawhelper.obj
 0001:00071f90       ??_E?$ModuleBaseImpl@VEntityExtender@mod@csgo@aw@@V?$TypedObject@VEntityExtender@mod@csgo@aw@@VModuleBase@4@@4@@aw@@UAEPAXI@Z 10072f90 f i esp_extender.obj
 0001:00071f90       ??_G?$ModuleBaseImpl@VEntityExtender@mod@csgo@aw@@V?$TypedObject@VEntityExtender@mod@csgo@aw@@VModuleBase@4@@4@@aw@@UAEPAXI@Z 10072f90 f i esp_extender.obj
 0001:00071fc0       ??_EEntityExtender@impl@mod@csgo@aw@@UAEPAXI@Z 10072fc0 f i esp_extender.obj
 0001:00071fc0       ??_GEntityExtender@impl@mod@csgo@aw@@UAEPAXI@Z 10072fc0 f i esp_extender.obj
 0001:00071ff0       ?CreateModule@?$ModuleWithFactory@VEntityExtender@mod@csgo@aw@@@aw@@SAPAVEntityExtender@mod@csgo@2@XZ 10072ff0 f   esp_extender.obj
 0001:00072110       ?GetCurrentTime@EntityExtender@impl@mod@csgo@aw@@UAEMXZ 10073110 f i esp_extender.obj
 0001:00072120       ?GetDormantTime@EntityExtender@impl@mod@csgo@aw@@UAEMPAVBaseEntity@sdk@45@@Z 10073120 f   esp_extender.obj
 0001:00072160       ?GetEntityTrack@EntityExtender@impl@mod@csgo@aw@@UAEPAUEntityTracker@345@H@Z 10073160 f   esp_extender.obj
 0001:00072180       ?GetEntityTrack@EntityExtender@impl@mod@csgo@aw@@UAEPAUEntityTracker@345@PAVBaseEntity@sdk@45@@Z 10073180 f   esp_extender.obj
 0001:000721a0       ?GetId@?$TypedObject@VEntityExtender@mod@csgo@aw@@VModuleBase@4@@aw@@UAEIXZ 100731a0 f i esp_extender.obj
 0001:000721b0       ?OnActive@EntityExtender@impl@mod@csgo@aw@@UAEXPAVBaseEntity@sdk@45@@Z 100731b0 f   esp_extender.obj
 0001:00072220       ?OnDormant@EntityExtender@impl@mod@csgo@aw@@UAE_NPAVBaseEntity@sdk@45@@Z 10073220 f   esp_extender.obj
 0001:00072370       ?OnGameEvent@EntityExtender@impl@mod@csgo@aw@@IAEXAAUGameEvent@hk@45@@Z 10073370 f   esp_extender.obj
 0001:00072580       ?Update@EntityExtender@impl@mod@csgo@aw@@UAEXM@Z 10073580 f   esp_extender.obj
 0001:000727a0       ??$_Emplace_one_at_back@ABUVector2@dt@@@?$vector@UVector2@dt@@V?$allocator@UVector2@dt@@@std@@@std@@AAEAAUVector2@dt@@ABU23@@Z 100737a0 f i esp_inferno.obj
 0001:000728d0       ??$_Emplace_one_at_back@UVector2@dt@@@?$vector@UVector2@dt@@V?$allocator@UVector2@dt@@@std@@@std@@AAEAAUVector2@dt@@$$QAU23@@Z 100738d0 f i esp_inferno.obj
 0001:00072a00       ??0EspInferno@impl@mod@csgo@aw@@QAE@XZ 10073a00 f i esp_inferno.obj
 0001:00072ba0       ??1EspInferno@impl@mod@csgo@aw@@UAE@XZ 10073ba0 f i esp_inferno.obj
 0001:00072cd0       ??A?$map@HMU?$less@H@std@@V?$allocator@U?$pair@$$CBHM@std@@@2@@std@@QAEAAM$$QAH@Z 10073cd0 f i esp_inferno.obj
 0001:00072d70       ??_E?$ModuleBaseImpl@VEspInferno@mod@csgo@aw@@V?$TypedObject@VEspInferno@mod@csgo@aw@@VModuleBase@4@@4@@aw@@UAEPAXI@Z 10073d70 f i esp_inferno.obj
 0001:00072d70       ??_G?$ModuleBaseImpl@VEspInferno@mod@csgo@aw@@V?$TypedObject@VEspInferno@mod@csgo@aw@@VModuleBase@4@@4@@aw@@UAEPAXI@Z 10073d70 f i esp_inferno.obj
 0001:00072da0       ??_EEspInferno@impl@mod@csgo@aw@@UAEPAXI@Z 10073da0 f i esp_inferno.obj
 0001:00072da0       ??_GEspInferno@impl@mod@csgo@aw@@UAEPAXI@Z 10073da0 f i esp_inferno.obj
 0001:00072dc0       ?CreateModule@?$ModuleWithFactory@VEspInferno@mod@csgo@aw@@@aw@@SAPAVEspInferno@mod@csgo@2@XZ 10073dc0 f   esp_inferno.obj
 0001:00072df0       ?DrawTriangles@EspInferno@impl@mod@csgo@aw@@IAEXPAVRenderContext@gfx@5@PAVInferno@sdk@45@UColor@75@@Z 10073df0 f   esp_inferno.obj
 0001:000738d0       ?DrawWarning@EspInferno@impl@mod@csgo@aw@@MAEXPAVRenderContext@gfx@5@PAVInferno@sdk@45@ABVVector3@5@@Z 100748d0 f   esp_inferno.obj
 0001:00073ce0       ?GetId@?$TypedObject@VEspInferno@mod@csgo@aw@@VModuleBase@4@@aw@@UAEIXZ 10074ce0 f i esp_inferno.obj
 0001:00073cf0       ?OnAddEntity@EspInferno@impl@mod@csgo@aw@@IAEXAAUOnAddEntityCallback@hk@45@@Z 10074cf0 f   esp_inferno.obj
 0001:00073d40       ?OnEspDraw@EspInferno@impl@mod@csgo@aw@@IAEXAAUEspDraw@345@@Z 10074d40 f   esp_inferno.obj
 0001:00073ec0       ?OnRemoveEntity@EspInferno@impl@mod@csgo@aw@@IAEXAAUOnRemoveEntityCallback@hk@45@@Z 10074ec0 f   esp_inferno.obj
 0001:00073ef0       ?_Change_array@?$vector@HV?$allocator@H@std@@@std@@AAEXQAHII@Z 10074ef0 f i esp_inferno.obj
 0001:00073f40       ?_Change_array@?$vector@MV?$allocator@M@std@@@std@@AAEXQAMII@Z 10074f40 f i esp_inferno.obj
 0001:00073f90       ?_Change_array@?$vector@UVector2@dt@@V?$allocator@UVector2@dt@@@std@@@std@@AAEXQAUVector2@dt@@II@Z 10074f90 f i esp_inferno.obj
 0001:00073fe0       ?_Xlength@?$vector@UVector2@dt@@V?$allocator@UVector2@dt@@@std@@@std@@CAXXZ 10074fe0 f i esp_inferno.obj
 0001:00073ff0       ?allocate@?$allocator@H@std@@QAEPAHI@Z 10074ff0 f i esp_inferno.obj
 0001:00074050       ?allocate@?$allocator@UVector2@dt@@@std@@QAEPAUVector2@dt@@I@Z 10075050 f i esp_inferno.obj
 0001:000740b0       ?erase@?$_Tree@V?$_Tmap_traits@HMU?$less@H@std@@V?$allocator@U?$pair@$$CBHM@std@@@2@$0A@@std@@@std@@QAEIABH@Z 100750b0 f i esp_inferno.obj
 0001:00074220       ??$_Emplace_reallocate@UEspEntity@mod@csgo@aw@@@?$vector@UEspEntity@mod@csgo@aw@@V?$allocator@UEspEntity@mod@csgo@aw@@@std@@@std@@AAEPAUEspEntity@mod@csgo@aw@@QAU2345@$$QAU2345@@Z 10075220 f i esp_overlay.obj
 0001:00075620       ??_EEspOverlay@impl@mod@csgo@aw@@UAEPAXI@Z 10076620 f i esp_overlay.obj
 0001:00075620       ??_GEspOverlay@impl@mod@csgo@aw@@UAEPAXI@Z 10076620 f i esp_overlay.obj
 0001:000756f0       ?CalcDistanceMultipler@EspOverlay@impl@mod@csgo@aw@@UAEMABVVector3@5@@Z 100766f0 f   esp_overlay.obj
 0001:00075750       ?CalcEntityRect@EspOverlay@impl@mod@csgo@aw@@UAE_NPAVBaseEntity@sdk@45@AAM111_N@Z 10076750 f   esp_overlay.obj
 0001:00075a80       ?CalcEntityRect@EspProjection@mod@csgo@aw@@QAE_NPAUStudioHdr@sdk@34@PBVMatrix3x4@4@AAVEulerAngles@4@AAVVector3@4@3W4EntityRectType@234@AAM555@Z 10076a80 f   esp_overlay.obj
 0001:00075ec0       ?CalcOutOfView@EspOverlay@impl@mod@csgo@aw@@UAEXABVVector3@5@PAM11@Z 10076ec0 f   esp_overlay.obj
 0001:00076050       ?CreateModule@?$ModuleWithFactory@VEspBase@cheat@aw@@@aw@@SAPAVEspBase@cheat@2@XZ 10077050 f   esp_overlay.obj
 0001:000761d0       ?DrawFilledCapsule@EspOverlay@impl@mod@csgo@aw@@QAEXAAV?$vector@UDrawHitboxFace@EspOverlay@impl@mod@csgo@aw@@V?$allocator@UDrawHitboxFace@EspOverlay@impl@mod@csgo@aw@@@std@@@std@@ABVVector3@5@1MUColor@gfx@5@_N@Z 100771d0 f   esp_overlay.obj
 0001:00076910       ?DrawFilledCube@EspOverlay@impl@mod@csgo@aw@@QAEXAAV?$vector@UDrawHitboxFace@EspOverlay@impl@mod@csgo@aw@@V?$allocator@UDrawHitboxFace@EspOverlay@impl@mod@csgo@aw@@@std@@@std@@ABVMatrix3x4@5@ABVVector3@5@2UColor@gfx@5@_N@Z 10077910 f   esp_overlay.obj
 0001:00076ba0       ?DrawFilledFace@EspOverlay@impl@mod@csgo@aw@@QAEXAAV?$vector@UDrawHitboxFace@EspOverlay@impl@mod@csgo@aw@@V?$allocator@UDrawHitboxFace@EspOverlay@impl@mod@csgo@aw@@@std@@@std@@UColor@gfx@5@PAVVector3@5@2@Z 10077ba0 f   esp_overlay.obj
 0001:00076f20       ?DrawHitboxes@EspOverlay@impl@mod@csgo@aw@@UAEXPAVRenderContext@gfx@5@PAVBaseAnimating@sdk@45@UColor@75@H@Z 10077f20 f   esp_overlay.obj
 0001:00076f90       ?DrawMatrixHitboxSet@EspOverlay@impl@mod@csgo@aw@@UAEXPAVRenderContext@gfx@5@PAUStudioHitboxSet@sdk@45@PAVMatrix3x4@5@UColor@75@H@Z 10077f90 f   esp_overlay.obj
 0001:000775a0       ?DrawMatrixHitboxes@EspOverlay@impl@mod@csgo@aw@@UAEXPAVRenderContext@gfx@5@PAVBaseAnimating@sdk@45@PAVMatrix3x4@5@UColor@75@H@Z 100785a0 f   esp_overlay.obj
 0001:000775f0       ?DrawMatrixSkeleton@EspOverlay@impl@mod@csgo@aw@@UAEXPAVRenderContext@gfx@5@PAUStudioHdr@sdk@45@PAVMatrix3x4@5@UColor@75@@Z 100785f0 f   esp_overlay.obj
 0001:000776c0       ?DrawRecordHitboxes@EspOverlay@impl@mod@csgo@aw@@UAEXPAVRenderContext@gfx@5@PAVCSPlayer@sdk@45@@Z 100786c0 f   esp_overlay.obj
 0001:000776d0       ?DrawSkeleton@EspOverlay@impl@mod@csgo@aw@@UAEXPAVRenderContext@gfx@5@UColor@75@PAVBaseAnimating@sdk@45@@Z 100786d0 f   esp_overlay.obj
 0001:00077750       ?GetDrawnEntities@EspOverlay@impl@mod@csgo@aw@@UAEAAV?$vector@UEspEntity@mod@csgo@aw@@V?$allocator@UEspEntity@mod@csgo@aw@@@std@@@std@@XZ 10078750 f i esp_overlay.obj
 0001:00077760       ?GetEntityBounds@EspOverlay@impl@mod@csgo@aw@@UAEXPAVBaseEntity@sdk@45@PAVVector3@5@1@Z 10078760 f   esp_overlay.obj
 0001:000777e0       ?GetEntityOrigin@EspOverlay@impl@mod@csgo@aw@@UAEXPAVBaseEntity@sdk@45@PAVVector3@5@PAVEulerAngles@5@@Z 100787e0 f   esp_overlay.obj
 0001:000778d0       ?GetEspBuilderEntity@EspOverlay@impl@mod@csgo@aw@@QAEPAVEspEntityBase@345@PAVBaseEntity@sdk@45@@Z 100788d0 f   esp_overlay.obj
 0001:00077930       ?GetId@?$TypedObject@VEspBase@cheat@aw@@VModuleBase@3@@aw@@UAEIXZ 10078930 f i esp_overlay.obj
 0001:00077940       ?GetViewAngles@EspOverlay@impl@mod@csgo@aw@@UAEABVEulerAngles@5@XZ 10078940 f i esp_overlay.obj
 0001:00077950       ?GetViewPosition@EspOverlay@impl@mod@csgo@aw@@UAEABVVector3@5@XZ 10078950 f i esp_overlay.obj
 0001:00077960       ?IsValidFilteredEntity@EspOverlay@impl@mod@csgo@aw@@UAE_NPAVBaseEntity@sdk@45@@Z 10078960 f   esp_overlay.obj
 0001:00077a40       ?IsValidRenderEntity@EspOverlay@impl@mod@csgo@aw@@UAE_NPAVBaseEntity@sdk@45@@Z 10078a40 f   esp_overlay.obj
 0001:00077bb0       ?NoRenderingThink@EspOverlay@impl@mod@csgo@aw@@QAEXXZ 10078bb0 f   esp_overlay.obj
 0001:00077db0       ?OnEspDraw@EspOverlay@impl@mod@csgo@aw@@QAEXAAUEspDraw@345@@Z 10078db0 f   esp_overlay.obj
 0001:00078700       ?OnGameEvent@EspOverlay@impl@mod@csgo@aw@@QAEXAAUGameEvent@hk@45@@Z 10079700 f   esp_overlay.obj
 0001:00078810       ?OnPostViewDrawScene@EspOverlay@impl@mod@csgo@aw@@QAEXAAUPostViewDrawScene@hk@45@@Z 10079810 f   esp_overlay.obj
 0001:00078980       ?OnPreRender@EspOverlay@impl@mod@csgo@aw@@QAEXAAURenderFrame@gfx@5@@Z 10079980 f   esp_overlay.obj
 0001:000789d0       ?OnRender@EspOverlay@impl@mod@csgo@aw@@QAEXAAURenderFrame@gfx@5@@Z 100799d0 f   esp_overlay.obj
 0001:000789e0       ?ShouldDrawOutOfView@EspOverlay@impl@mod@csgo@aw@@UAE_NPAVBaseEntity@sdk@45@@Z 100799e0 f   esp_overlay.obj
 0001:00078a50       ?UpdateSortedEntities@EspOverlay@impl@mod@csgo@aw@@QAEXAAUEspDraw@345@@Z 10079a50 f   esp_overlay.obj
 0001:00078c60       ?WorldToScreen@EspOverlay@impl@mod@csgo@aw@@UAE_NABVVector3@5@PAM1@Z 10079c60 f   esp_overlay.obj
 0001:00078d40       ?WorldToScreen@EspOverlay@impl@mod@csgo@aw@@UAE_NABVVector3@5@PAVVector2@5@@Z 10079d40 f   esp_overlay.obj
 0001:00078d60       ?_Change_array@?$vector@UDrawHitboxFace@EspOverlay@impl@mod@csgo@aw@@V?$allocator@UDrawHitboxFace@EspOverlay@impl@mod@csgo@aw@@@std@@@std@@AAEXQAUDrawHitboxFace@EspOverlay@impl@mod@csgo@aw@@II@Z 10079d60 f i esp_overlay.obj
 0001:00078dd0       ?_Xlength@?$vector@UDrawHitboxFace@EspOverlay@impl@mod@csgo@aw@@V?$allocator@UDrawHitboxFace@EspOverlay@impl@mod@csgo@aw@@@std@@@std@@CAXXZ 10079dd0 f i esp_overlay.obj
 0001:00078de0       ?_Xlength@?$vector@UEspEntity@mod@csgo@aw@@V?$allocator@UEspEntity@mod@csgo@aw@@@std@@@std@@CAXXZ 10079de0 f i esp_overlay.obj
 0001:00078df0       ?allocate@?$allocator@UDrawHitboxFace@EspOverlay@impl@mod@csgo@aw@@@std@@QAEPAUDrawHitboxFace@EspOverlay@impl@mod@csgo@aw@@I@Z 10079df0 f i esp_overlay.obj
 0001:00078e50       ??$_Emplace_reallocate@ABUEspSoundItem@impl@mod@csgo@aw@@@?$vector@UEspSoundItem@impl@mod@csgo@aw@@V?$allocator@UEspSoundItem@impl@mod@csgo@aw@@@std@@@std@@AAEPAUEspSoundItem@impl@mod@csgo@aw@@QAU23456@ABU23456@@Z 10079e50 f i esp_sound.obj
 0001:00079010       ??1?$vector@UEspSoundItem@impl@mod@csgo@aw@@V?$allocator@UEspSoundItem@impl@mod@csgo@aw@@@std@@@std@@QAE@XZ 1007a010 f i esp_sound.obj
 0001:00079070       ??_E?$ModuleBaseImpl@VEspSound@mod@csgo@aw@@V?$TypedObject@VEspSound@mod@csgo@aw@@VModuleBase@4@@4@@aw@@UAEPAXI@Z 1007a070 f i esp_sound.obj
 0001:00079070       ??_G?$ModuleBaseImpl@VEspSound@mod@csgo@aw@@V?$TypedObject@VEspSound@mod@csgo@aw@@VModuleBase@4@@4@@aw@@UAEPAXI@Z 1007a070 f i esp_sound.obj
 0001:000790a0       ??_EEspSound@impl@mod@csgo@aw@@UAEPAXI@Z 1007a0a0 f i esp_sound.obj
 0001:000790a0       ??_GEspSound@impl@mod@csgo@aw@@UAEPAXI@Z 1007a0a0 f i esp_sound.obj
 0001:000790d0       ?CreateModule@?$ModuleWithFactory@VEspSound@mod@csgo@aw@@@aw@@SAPAVEspSound@mod@csgo@2@XZ 1007a0d0 f   esp_sound.obj
 0001:00079190       ?GetId@?$TypedObject@VEspSound@mod@csgo@aw@@VModuleBase@4@@aw@@UAEIXZ 1007a190 f i esp_sound.obj
 0001:000791a0       ?OnRender@EspSound@impl@mod@csgo@aw@@IAEXAAURenderFrame@gfx@5@@Z 1007a1a0 f   esp_sound.obj
 0001:00079440       ?_Xlength@?$vector@UEspSoundItem@impl@mod@csgo@aw@@V?$allocator@UEspSoundItem@impl@mod@csgo@aw@@@std@@@std@@CAXXZ 1007a440 f i esp_sound.obj
 0001:00079450       ??$CreateModule@VBaseClientState@hk@csgo@aw@@@ModuleMgr@aw@@QAEPAVBaseClientState@hk@csgo@1@XZ 1007a450 f i csgo-hk-x86:hooks.obj
 0001:00079460       ??$CreateModule@VBaseEntityList@hk@csgo@aw@@@ModuleMgr@aw@@QAEPAVBaseEntityList@hk@csgo@1@XZ 1007a460 f i csgo-hk-x86:hooks.obj
 0001:00079470       ??$CreateModule@VCSPlayer@hk@csgo@aw@@@ModuleMgr@aw@@QAEPAVCSPlayer@hk@csgo@1@XZ 1007a470 f i csgo-hk-x86:hooks.obj
 0001:00079480       ??$CreateModule@VClientMode@hk@csgo@aw@@@ModuleMgr@aw@@QAEPAVClientMode@hk@csgo@1@XZ 1007a480 f i csgo-hk-x86:hooks.obj
 0001:00079490       ??$CreateModule@VConVarHooks@hk@csgo@aw@@@ModuleMgr@aw@@QAEPAVConVarHooks@hk@csgo@1@XZ 1007a490 f i csgo-hk-x86:hooks.obj
 0001:000794f0       ??$CreateModule@VD3D9Device@hk@csgo@aw@@@ModuleMgr@aw@@QAEPAVD3D9Device@hk@csgo@1@XZ 1007a4f0 f i csgo-hk-x86:hooks.obj
 0001:00079500       ??$CreateModule@VDemoPlayer@hk@csgo@aw@@@ModuleMgr@aw@@QAEPAVDemoPlayer@hk@csgo@1@XZ 1007a500 f i csgo-hk-x86:hooks.obj
 0001:00079510       ??$CreateModule@VEngine@hk@csgo@aw@@@ModuleMgr@aw@@QAEPAVEngine@hk@csgo@1@XZ 1007a510 f i csgo-hk-x86:hooks.obj
 0001:00079520       ??$CreateModule@VGameEventManager@hk@csgo@aw@@@ModuleMgr@aw@@QAEPAVGameEventManager@hk@csgo@1@XZ 1007a520 f i csgo-hk-x86:hooks.obj
 0001:00079530       ??$CreateModule@VGameMovement@hk@csgo@aw@@@ModuleMgr@aw@@QAEPAVGameMovement@hk@csgo@1@XZ 1007a530 f i csgo-hk-x86:hooks.obj
 0001:00079540       ??$CreateModule@VGameRules@hk@csgo@aw@@@ModuleMgr@aw@@QAEPAVGameRules@hk@csgo@1@XZ 1007a540 f i csgo-hk-x86:hooks.obj
 0001:00079550       ??$CreateModule@VInput@hk@csgo@aw@@@ModuleMgr@aw@@QAEPAVInput@hk@csgo@1@XZ 1007a550 f i csgo-hk-x86:hooks.obj
 0001:00079560       ??$CreateModule@VNetChan@hk@csgo@aw@@@ModuleMgr@aw@@QAEPAVNetChan@hk@csgo@1@XZ 1007a560 f i csgo-hk-x86:hooks.obj
 0001:00079580       ??$CreateModule@VPanel@hk@csgo@aw@@@ModuleMgr@aw@@QAEPAVPanel@hk@csgo@1@XZ 1007a580 f i csgo-hk-x86:hooks.obj
 0001:00079590       ??$CreateModule@VPrediction@hk@csgo@aw@@@ModuleMgr@aw@@QAEPAVPrediction@hk@csgo@1@XZ 1007a590 f i csgo-hk-x86:hooks.obj
 0001:000795b0       ??$CreateModule@VRecvProxies@hk@csgo@aw@@@ModuleMgr@aw@@QAEPAVRecvProxies@hk@csgo@1@XZ 1007a5b0 f i csgo-hk-x86:hooks.obj
 0001:000795c0       ??$CreateModule@VRender@hk@csgo@aw@@@ModuleMgr@aw@@QAEPAVRender@hk@csgo@1@XZ 1007a5c0 f i csgo-hk-x86:hooks.obj
 0001:000795d0       ??$CreateModule@VSpatialPartition@hk@csgo@aw@@@ModuleMgr@aw@@QAEPAVSpatialPartition@hk@csgo@1@XZ 1007a5d0 f i csgo-hk-x86:hooks.obj
 0001:000795e0       ??$CreateModule@VSpatialQuery@hk@csgo@aw@@@ModuleMgr@aw@@QAEPAVSpatialQuery@hk@csgo@1@XZ 1007a5e0 f i csgo-hk-x86:hooks.obj
 0001:000795f0       ??$CreateModule@VSplitScreen@hk@csgo@aw@@@ModuleMgr@aw@@QAEPAVSplitScreen@hk@csgo@1@XZ 1007a5f0 f i csgo-hk-x86:hooks.obj
 0001:00079600       ??$CreateModule@VSteamGameCoordinator@hk@csgo@aw@@@ModuleMgr@aw@@QAEPAVSteamGameCoordinator@hk@csgo@1@XZ 1007a600 f i csgo-hk-x86:hooks.obj
 0001:00079610       ??$CreateModule@VSteamSocketMgr@hk@csgo@aw@@@ModuleMgr@aw@@QAEPAVSteamSocketMgr@hk@csgo@1@XZ 1007a610 f i csgo-hk-x86:hooks.obj
 0001:00079620       ??$CreateModule@VStudioRender@hk@csgo@aw@@@ModuleMgr@aw@@QAEPAVStudioRender@hk@csgo@1@XZ 1007a620 f i csgo-hk-x86:hooks.obj
 0001:00079630       ??$CreateModule@VVGuiSurface@hk@csgo@aw@@@ModuleMgr@aw@@QAEPAVVGuiSurface@hk@csgo@1@XZ 1007a630 f i csgo-hk-x86:hooks.obj
 0001:00079640       ??$FindModule@VBaseClientState@hk@csgo@aw@@@ModuleMgr@aw@@QAEPAVBaseClientState@hk@csgo@1@_N@Z 1007a640 f i csgo-hk-x86:hooks.obj
 0001:00079710       ??$FindModule@VBaseEntityList@hk@csgo@aw@@@ModuleMgr@aw@@QAEPAVBaseEntityList@hk@csgo@1@_N@Z 1007a710 f i csgo-hk-x86:hooks.obj
 0001:000797e0       ??$FindModule@VCSPlayer@hk@csgo@aw@@@ModuleMgr@aw@@QAEPAVCSPlayer@hk@csgo@1@_N@Z 1007a7e0 f i csgo-hk-x86:hooks.obj
 0001:000798b0       ??$FindModule@VClientMode@hk@csgo@aw@@@ModuleMgr@aw@@QAEPAVClientMode@hk@csgo@1@_N@Z 1007a8b0 f i csgo-hk-x86:hooks.obj
 0001:00079980       ??$FindModule@VConVarHooks@hk@csgo@aw@@@ModuleMgr@aw@@QAEPAVConVarHooks@hk@csgo@1@_N@Z 1007a980 f i csgo-hk-x86:hooks.obj
 0001:00079a50       ??$FindModule@VD3D9Device@hk@csgo@aw@@@ModuleMgr@aw@@QAEPAVD3D9Device@hk@csgo@1@_N@Z 1007aa50 f i csgo-hk-x86:hooks.obj
 0001:00079b20       ??$FindModule@VDemoPlayer@hk@csgo@aw@@@ModuleMgr@aw@@QAEPAVDemoPlayer@hk@csgo@1@_N@Z 1007ab20 f i csgo-hk-x86:hooks.obj
 0001:00079bf0       ??$FindModule@VEngine@hk@csgo@aw@@@ModuleMgr@aw@@QAEPAVEngine@hk@csgo@1@_N@Z 1007abf0 f i csgo-hk-x86:hooks.obj
 0001:00079cc0       ??$FindModule@VGameEventManager@hk@csgo@aw@@@ModuleMgr@aw@@QAEPAVGameEventManager@hk@csgo@1@_N@Z 1007acc0 f i csgo-hk-x86:hooks.obj
 0001:00079d90       ??$FindModule@VGameMovement@hk@csgo@aw@@@ModuleMgr@aw@@QAEPAVGameMovement@hk@csgo@1@_N@Z 1007ad90 f i csgo-hk-x86:hooks.obj
 0001:00079e60       ??$FindModule@VGameRules@hk@csgo@aw@@@ModuleMgr@aw@@QAEPAVGameRules@hk@csgo@1@_N@Z 1007ae60 f i csgo-hk-x86:hooks.obj
 0001:00079f30       ??$FindModule@VInput@hk@csgo@aw@@@ModuleMgr@aw@@QAEPAVInput@hk@csgo@1@_N@Z 1007af30 f i csgo-hk-x86:hooks.obj
 0001:0007a000       ??$FindModule@VNetChan@hk@csgo@aw@@@ModuleMgr@aw@@QAEPAVNetChan@hk@csgo@1@_N@Z 1007b000 f i csgo-hk-x86:hooks.obj
 0001:0007a0d0       ??$FindModule@VPanel@hk@csgo@aw@@@ModuleMgr@aw@@QAEPAVPanel@hk@csgo@1@_N@Z 1007b0d0 f i csgo-hk-x86:hooks.obj
 0001:0007a1a0       ??$FindModule@VPrediction@hk@csgo@aw@@@ModuleMgr@aw@@QAEPAVPrediction@hk@csgo@1@_N@Z 1007b1a0 f i csgo-hk-x86:hooks.obj
 0001:0007a270       ??$FindModule@VRecvProxies@hk@csgo@aw@@@ModuleMgr@aw@@QAEPAVRecvProxies@hk@csgo@1@_N@Z 1007b270 f i csgo-hk-x86:hooks.obj
 0001:0007a340       ??$FindModule@VRender@hk@csgo@aw@@@ModuleMgr@aw@@QAEPAVRender@hk@csgo@1@_N@Z 1007b340 f i csgo-hk-x86:hooks.obj
 0001:0007a410       ??$FindModule@VSpatialPartition@hk@csgo@aw@@@ModuleMgr@aw@@QAEPAVSpatialPartition@hk@csgo@1@_N@Z 1007b410 f i csgo-hk-x86:hooks.obj
 0001:0007a4e0       ??$FindModule@VSpatialQuery@hk@csgo@aw@@@ModuleMgr@aw@@QAEPAVSpatialQuery@hk@csgo@1@_N@Z 1007b4e0 f i csgo-hk-x86:hooks.obj
 0001:0007a5b0       ??$FindModule@VSplitScreen@hk@csgo@aw@@@ModuleMgr@aw@@QAEPAVSplitScreen@hk@csgo@1@_N@Z 1007b5b0 f i csgo-hk-x86:hooks.obj
 0001:0007a680       ??$FindModule@VSteamGameCoordinator@hk@csgo@aw@@@ModuleMgr@aw@@QAEPAVSteamGameCoordinator@hk@csgo@1@_N@Z 1007b680 f i csgo-hk-x86:hooks.obj
 0001:0007a750       ??$FindModule@VSteamSocketMgr@hk@csgo@aw@@@ModuleMgr@aw@@QAEPAVSteamSocketMgr@hk@csgo@1@_N@Z 1007b750 f i csgo-hk-x86:hooks.obj
 0001:0007a820       ??$FindModule@VStudioRender@hk@csgo@aw@@@ModuleMgr@aw@@QAEPAVStudioRender@hk@csgo@1@_N@Z 1007b820 f i csgo-hk-x86:hooks.obj
 0001:0007a8f0       ??$FindModule@VVGuiSurface@hk@csgo@aw@@@ModuleMgr@aw@@QAEPAVVGuiSurface@hk@csgo@1@_N@Z 1007b8f0 f i csgo-hk-x86:hooks.obj
 0001:0007a9c0       ??$FindOrCreateModule@VBaseClientState@hk@csgo@aw@@@ModuleMgr@aw@@QAEPAVBaseClientState@hk@csgo@1@XZ 1007b9c0 f i csgo-hk-x86:hooks.obj
 0001:0007a9e0       ??$FindOrCreateModule@VBaseEntityList@hk@csgo@aw@@@ModuleMgr@aw@@QAEPAVBaseEntityList@hk@csgo@1@XZ 1007b9e0 f i csgo-hk-x86:hooks.obj
 0001:0007aa00       ??$FindOrCreateModule@VCSPlayer@hk@csgo@aw@@@ModuleMgr@aw@@QAEPAVCSPlayer@hk@csgo@1@XZ 1007ba00 f i csgo-hk-x86:hooks.obj
 0001:0007aa20       ??$FindOrCreateModule@VClientMode@hk@csgo@aw@@@ModuleMgr@aw@@QAEPAVClientMode@hk@csgo@1@XZ 1007ba20 f i csgo-hk-x86:hooks.obj
 0001:0007aa40       ??$FindOrCreateModule@VConVarHooks@hk@csgo@aw@@@ModuleMgr@aw@@QAEPAVConVarHooks@hk@csgo@1@XZ 1007ba40 f i csgo-hk-x86:hooks.obj
 0001:0007aa60       ??$FindOrCreateModule@VD3D9Device@hk@csgo@aw@@@ModuleMgr@aw@@QAEPAVD3D9Device@hk@csgo@1@XZ 1007ba60 f i csgo-hk-x86:hooks.obj
 0001:0007aa80       ??$FindOrCreateModule@VDemoPlayer@hk@csgo@aw@@@ModuleMgr@aw@@QAEPAVDemoPlayer@hk@csgo@1@XZ 1007ba80 f i csgo-hk-x86:hooks.obj
 0001:0007aaa0       ??$FindOrCreateModule@VEngine@hk@csgo@aw@@@ModuleMgr@aw@@QAEPAVEngine@hk@csgo@1@XZ 1007baa0 f i csgo-hk-x86:hooks.obj
 0001:0007aac0       ??$FindOrCreateModule@VGameEventManager@hk@csgo@aw@@@ModuleMgr@aw@@QAEPAVGameEventManager@hk@csgo@1@XZ 1007bac0 f i csgo-hk-x86:hooks.obj
 0001:0007aae0       ??$FindOrCreateModule@VGameMovement@hk@csgo@aw@@@ModuleMgr@aw@@QAEPAVGameMovement@hk@csgo@1@XZ 1007bae0 f i csgo-hk-x86:hooks.obj
 0001:0007ab00       ??$FindOrCreateModule@VGameRules@hk@csgo@aw@@@ModuleMgr@aw@@QAEPAVGameRules@hk@csgo@1@XZ 1007bb00 f i csgo-hk-x86:hooks.obj
 0001:0007ab20       ??$FindOrCreateModule@VInput@hk@csgo@aw@@@ModuleMgr@aw@@QAEPAVInput@hk@csgo@1@XZ 1007bb20 f i csgo-hk-x86:hooks.obj
 0001:0007ab40       ??$FindOrCreateModule@VNetChan@hk@csgo@aw@@@ModuleMgr@aw@@QAEPAVNetChan@hk@csgo@1@XZ 1007bb40 f i csgo-hk-x86:hooks.obj
 0001:0007ab60       ??$FindOrCreateModule@VPanel@hk@csgo@aw@@@ModuleMgr@aw@@QAEPAVPanel@hk@csgo@1@XZ 1007bb60 f i csgo-hk-x86:hooks.obj
 0001:0007ab80       ??$FindOrCreateModule@VPrediction@hk@csgo@aw@@@ModuleMgr@aw@@QAEPAVPrediction@hk@csgo@1@XZ 1007bb80 f i csgo-hk-x86:hooks.obj
 0001:0007aba0       ??$FindOrCreateModule@VRecvProxies@hk@csgo@aw@@@ModuleMgr@aw@@QAEPAVRecvProxies@hk@csgo@1@XZ 1007bba0 f i csgo-hk-x86:hooks.obj
 0001:0007abc0       ??$FindOrCreateModule@VRender@hk@csgo@aw@@@ModuleMgr@aw@@QAEPAVRender@hk@csgo@1@XZ 1007bbc0 f i csgo-hk-x86:hooks.obj
 0001:0007abe0       ??$FindOrCreateModule@VSpatialPartition@hk@csgo@aw@@@ModuleMgr@aw@@QAEPAVSpatialPartition@hk@csgo@1@XZ 1007bbe0 f i csgo-hk-x86:hooks.obj
 0001:0007ac00       ??$FindOrCreateModule@VSpatialQuery@hk@csgo@aw@@@ModuleMgr@aw@@QAEPAVSpatialQuery@hk@csgo@1@XZ 1007bc00 f i csgo-hk-x86:hooks.obj
 0001:0007ac20       ??$FindOrCreateModule@VSplitScreen@hk@csgo@aw@@@ModuleMgr@aw@@QAEPAVSplitScreen@hk@csgo@1@XZ 1007bc20 f i csgo-hk-x86:hooks.obj
 0001:0007ac40       ??$FindOrCreateModule@VSteamGameCoordinator@hk@csgo@aw@@@ModuleMgr@aw@@QAEPAVSteamGameCoordinator@hk@csgo@1@XZ 1007bc40 f i csgo-hk-x86:hooks.obj
 0001:0007ac60       ??$FindOrCreateModule@VSteamSocketMgr@hk@csgo@aw@@@ModuleMgr@aw@@QAEPAVSteamSocketMgr@hk@csgo@1@XZ 1007bc60 f i csgo-hk-x86:hooks.obj
 0001:0007ac80       ??$FindOrCreateModule@VStudioRender@hk@csgo@aw@@@ModuleMgr@aw@@QAEPAVStudioRender@hk@csgo@1@XZ 1007bc80 f i csgo-hk-x86:hooks.obj
 0001:0007aca0       ??$FindOrCreateModule@VVGuiSurface@hk@csgo@aw@@@ModuleMgr@aw@@QAEPAVVGuiSurface@hk@csgo@1@XZ 1007bca0 f i csgo-hk-x86:hooks.obj
 0001:0007acc0       ??$RegisterModule@VBaseClientState@hk@csgo@aw@@@ModuleMgr@aw@@QAEPAVBaseClientState@hk@csgo@1@XZ 1007bcc0 f i csgo-hk-x86:hooks.obj
 0001:0007acd0       ??$RegisterModule@VBaseEntityList@hk@csgo@aw@@@ModuleMgr@aw@@QAEPAVBaseEntityList@hk@csgo@1@XZ 1007bcd0 f i csgo-hk-x86:hooks.obj
 0001:0007ace0       ??$RegisterModule@VCSPlayer@hk@csgo@aw@@@ModuleMgr@aw@@QAEPAVCSPlayer@hk@csgo@1@XZ 1007bce0 f i csgo-hk-x86:hooks.obj
 0001:0007acf0       ??$RegisterModule@VClientMode@hk@csgo@aw@@@ModuleMgr@aw@@QAEPAVClientMode@hk@csgo@1@XZ 1007bcf0 f i csgo-hk-x86:hooks.obj
 0001:0007ad00       ??$RegisterModule@VConVarHooks@hk@csgo@aw@@@ModuleMgr@aw@@QAEPAVConVarHooks@hk@csgo@1@XZ 1007bd00 f i csgo-hk-x86:hooks.obj
 0001:0007ad10       ??$RegisterModule@VD3D9Device@hk@csgo@aw@@@ModuleMgr@aw@@QAEPAVD3D9Device@hk@csgo@1@XZ 1007bd10 f i csgo-hk-x86:hooks.obj
 0001:0007ad20       ??$RegisterModule@VDemoPlayer@hk@csgo@aw@@@ModuleMgr@aw@@QAEPAVDemoPlayer@hk@csgo@1@XZ 1007bd20 f i csgo-hk-x86:hooks.obj
 0001:0007ad30       ??$RegisterModule@VEngine@hk@csgo@aw@@@ModuleMgr@aw@@QAEPAVEngine@hk@csgo@1@XZ 1007bd30 f i csgo-hk-x86:hooks.obj
 0001:0007ad40       ??$RegisterModule@VGameEventManager@hk@csgo@aw@@@ModuleMgr@aw@@QAEPAVGameEventManager@hk@csgo@1@XZ 1007bd40 f i csgo-hk-x86:hooks.obj
 0001:0007ad50       ??$RegisterModule@VGameMovement@hk@csgo@aw@@@ModuleMgr@aw@@QAEPAVGameMovement@hk@csgo@1@XZ 1007bd50 f i csgo-hk-x86:hooks.obj
 0001:0007ad60       ??$RegisterModule@VGameRules@hk@csgo@aw@@@ModuleMgr@aw@@QAEPAVGameRules@hk@csgo@1@XZ 1007bd60 f i csgo-hk-x86:hooks.obj
 0001:0007ad70       ??$RegisterModule@VInput@hk@csgo@aw@@@ModuleMgr@aw@@QAEPAVInput@hk@csgo@1@XZ 1007bd70 f i csgo-hk-x86:hooks.obj
 0001:0007ad80       ??$RegisterModule@VNetChan@hk@csgo@aw@@@ModuleMgr@aw@@QAEPAVNetChan@hk@csgo@1@XZ 1007bd80 f i csgo-hk-x86:hooks.obj
 0001:0007ad90       ??$RegisterModule@VPanel@hk@csgo@aw@@@ModuleMgr@aw@@QAEPAVPanel@hk@csgo@1@XZ 1007bd90 f i csgo-hk-x86:hooks.obj
 0001:0007ada0       ??$RegisterModule@VPrediction@hk@csgo@aw@@@ModuleMgr@aw@@QAEPAVPrediction@hk@csgo@1@XZ 1007bda0 f i csgo-hk-x86:hooks.obj
 0001:0007adb0       ??$RegisterModule@VRecvProxies@hk@csgo@aw@@@ModuleMgr@aw@@QAEPAVRecvProxies@hk@csgo@1@XZ 1007bdb0 f i csgo-hk-x86:hooks.obj
 0001:0007adc0       ??$RegisterModule@VRender@hk@csgo@aw@@@ModuleMgr@aw@@QAEPAVRender@hk@csgo@1@XZ 1007bdc0 f i csgo-hk-x86:hooks.obj
 0001:0007add0       ??$RegisterModule@VSpatialPartition@hk@csgo@aw@@@ModuleMgr@aw@@QAEPAVSpatialPartition@hk@csgo@1@XZ 1007bdd0 f i csgo-hk-x86:hooks.obj
 0001:0007ade0       ??$RegisterModule@VSpatialQuery@hk@csgo@aw@@@ModuleMgr@aw@@QAEPAVSpatialQuery@hk@csgo@1@XZ 1007bde0 f i csgo-hk-x86:hooks.obj
 0001:0007adf0       ??$RegisterModule@VSplitScreen@hk@csgo@aw@@@ModuleMgr@aw@@QAEPAVSplitScreen@hk@csgo@1@XZ 1007bdf0 f i csgo-hk-x86:hooks.obj
 0001:0007ae00       ??$RegisterModule@VSteamGameCoordinator@hk@csgo@aw@@@ModuleMgr@aw@@QAEPAVSteamGameCoordinator@hk@csgo@1@XZ 1007be00 f i csgo-hk-x86:hooks.obj
 0001:0007ae10       ??$RegisterModule@VSteamSocketMgr@hk@csgo@aw@@@ModuleMgr@aw@@QAEPAVSteamSocketMgr@hk@csgo@1@XZ 1007be10 f i csgo-hk-x86:hooks.obj
 0001:0007ae20       ??$RegisterModule@VStudioRender@hk@csgo@aw@@@ModuleMgr@aw@@QAEPAVStudioRender@hk@csgo@1@XZ 1007be20 f i csgo-hk-x86:hooks.obj
 0001:0007ae30       ??$RegisterModule@VVGuiSurface@hk@csgo@aw@@@ModuleMgr@aw@@QAEPAVVGuiSurface@hk@csgo@1@XZ 1007be30 f i csgo-hk-x86:hooks.obj
 0001:0007ae40       ??$RegisterModule@VViewRender@hk@csgo@aw@@@ModuleMgr@aw@@QAEPAVViewRender@hk@csgo@1@XZ 1007be40 f i csgo-hk-x86:hooks.obj
 0001:0007ae50       ??_E?$ModuleBaseImpl@VConVarHooks@hk@csgo@aw@@V?$TypedObject@VConVarHooks@hk@csgo@aw@@VModuleBase@4@@4@@aw@@UAEPAXI@Z 1007be50 f i csgo-hk-x86:hooks.obj
 0001:0007ae50       ??_G?$ModuleBaseImpl@VConVarHooks@hk@csgo@aw@@V?$TypedObject@VConVarHooks@hk@csgo@aw@@VModuleBase@4@@4@@aw@@UAEPAXI@Z 1007be50 f i csgo-hk-x86:hooks.obj
 0001:0007ae80       ??_EConVarHooks@hk@csgo@aw@@UAEPAXI@Z 1007be80 f i csgo-hk-x86:hooks.obj
 0001:0007ae80       ??_GConVarHooks@hk@csgo@aw@@UAEPAXI@Z 1007be80 f i csgo-hk-x86:hooks.obj
 0001:0007aeb0       ?GetDynamic@CVar@sdk@csgo@aw@@SAPAV1234@XZ 1007beb0 f i csgo-hk-x86:hooks.obj
 0001:0007aed0       ?GetId@?$TypedObject@VConVarHooks@hk@csgo@aw@@VModuleBase@4@@aw@@UAEIXZ 1007bed0 f i csgo-hk-x86:hooks.obj
 0001:0007aee0       ??_E?$ModuleBaseImpl@VViewRender@hk@csgo@aw@@V?$TypedObject@VViewRender@hk@csgo@aw@@VModuleBase@4@@4@@aw@@UAEPAXI@Z 1007bee0 f i csgo-hk-x86:viewrender.obj
 0001:0007aee0       ??_G?$ModuleBaseImpl@VViewRender@hk@csgo@aw@@V?$TypedObject@VViewRender@hk@csgo@aw@@VModuleBase@4@@4@@aw@@UAEPAXI@Z 1007bee0 f i csgo-hk-x86:viewrender.obj
 0001:0007af10       ??_EOnRenderStart@hk@csgo@aw@@UAEPAXI@Z 1007bf10 f i csgo-hk-x86:viewrender.obj
 0001:0007af10       ??_GOnRenderStart@hk@csgo@aw@@UAEPAXI@Z 1007bf10 f i csgo-hk-x86:viewrender.obj
 0001:0007af40       ??_EPostViewDrawScene@hk@csgo@aw@@UAEPAXI@Z 1007bf40 f i csgo-hk-x86:viewrender.obj
 0001:0007af40       ??_GPostViewDrawScene@hk@csgo@aw@@UAEPAXI@Z 1007bf40 f i csgo-hk-x86:viewrender.obj
 0001:0007af70       ??_ERenderView@hk@csgo@aw@@UAEPAXI@Z 1007bf70 f i csgo-hk-x86:viewrender.obj
 0001:0007af70       ??_GRenderView@hk@csgo@aw@@UAEPAXI@Z 1007bf70 f i csgo-hk-x86:viewrender.obj
 0001:0007afa0       ??_EViewRender@impl@hk@csgo@aw@@UAEPAXI@Z 1007bfa0 f i csgo-hk-x86:viewrender.obj
 0001:0007afa0       ??_GViewRender@impl@hk@csgo@aw@@UAEPAXI@Z 1007bfa0 f i csgo-hk-x86:viewrender.obj
 0001:0007afd0       ?CreateModule@?$ModuleWithFactory@VViewRender@hk@csgo@aw@@@aw@@SAPAVViewRender@hk@csgo@2@XZ 1007bfd0 f   csgo-hk-x86:viewrender.obj
 0001:0007b160       ?GetId@?$TypedObject@UOnRenderStart@hk@csgo@aw@@UCallbackVars@4@@aw@@UAEIXZ 1007c160 f i csgo-hk-x86:viewrender.obj
 0001:0007b170       ?GetId@?$TypedObject@UPostViewDrawScene@hk@csgo@aw@@UCallbackVars@4@@aw@@UAEIXZ 1007c170 f i csgo-hk-x86:viewrender.obj
 0001:0007b180       ?GetId@?$TypedObject@URenderView@hk@csgo@aw@@UCallbackVars@4@@aw@@UAEIXZ 1007c180 f i csgo-hk-x86:viewrender.obj
 0001:0007b190       ?GetId@?$TypedObject@VViewRender@hk@csgo@aw@@VModuleBase@4@@aw@@UAEIXZ 1007c190 f i csgo-hk-x86:viewrender.obj
 0001:0007b1a0       ?GetOrgRenderView@ViewRender@impl@hk@csgo@aw@@UAEP6IXPAV1sdk@45@HAAVViewSetup@645@1HH@ZXZ 1007c1a0 f i csgo-hk-x86:viewrender.obj
 0001:0007b1b0       ?HkOnRenderStart@ViewRender@impl@hk@csgo@aw@@KIXPAV1sdk@45@H@Z 1007c1b0 f   csgo-hk-x86:viewrender.obj
 0001:0007b1e0       ?HkPostViewDrawScene@ViewRender@impl@hk@csgo@aw@@KIXPAV1sdk@45@HPAVViewSetup@645@@Z 1007c1e0 f   csgo-hk-x86:viewrender.obj
 0001:0007b210       ?HkRenderView@ViewRender@impl@hk@csgo@aw@@KIXPAV1sdk@45@HAAVViewSetup@645@1HH@Z 1007c210 f   csgo-hk-x86:viewrender.obj
 0001:0007b260       ?OnHook@ViewRender@impl@hk@csgo@aw@@IAEXAAUCommonHook@5@@Z 1007c260 f   csgo-hk-x86:viewrender.obj
 0001:0007b2b0       ?OnOnRenderStart@ViewRender@impl@hk@csgo@aw@@IAEXAAUOnRenderStart@345@@Z 1007c2b0 f   csgo-hk-x86:viewrender.obj
 0001:0007b2d0       ?OnPostViewDrawScene@ViewRender@impl@hk@csgo@aw@@IAEXAAUPostViewDrawScene@345@@Z 1007c2d0 f   csgo-hk-x86:viewrender.obj
 0001:0007b2f0       ?OnRenderView@ViewRender@impl@hk@csgo@aw@@IAEXAAURenderView@345@@Z 1007c2f0 f   csgo-hk-x86:viewrender.obj
 0001:0007b320       ?OnUnhook@ViewRender@impl@hk@csgo@aw@@IAEXAAUCommonUnhook@5@@Z 1007c320 f   csgo-hk-x86:viewrender.obj
 0001:0007b330       ??0ClientMode@impl@hk@csgo@aw@@QAE@XZ 1007c330 f i csgo-hk-x86:clientmode.obj
 0001:0007b5d0       ??_E?$ModuleBaseImpl@VClientMode@hk@csgo@aw@@V?$TypedObject@VClientMode@hk@csgo@aw@@VModuleBase@4@@4@@aw@@UAEPAXI@Z 1007c5d0 f i csgo-hk-x86:clientmode.obj
 0001:0007b5d0       ??_G?$ModuleBaseImpl@VClientMode@hk@csgo@aw@@V?$TypedObject@VClientMode@hk@csgo@aw@@VModuleBase@4@@4@@aw@@UAEPAXI@Z 1007c5d0 f i csgo-hk-x86:clientmode.obj
 0001:0007b600       ??_EClientMode@impl@hk@csgo@aw@@UAEPAXI@Z 1007c600 f i csgo-hk-x86:clientmode.obj
 0001:0007b600       ??_GClientMode@impl@hk@csgo@aw@@UAEPAXI@Z 1007c600 f i csgo-hk-x86:clientmode.obj
 0001:0007b630       ??_ECreateMove@hk@csgo@aw@@UAEPAXI@Z 1007c630 f i csgo-hk-x86:clientmode.obj
 0001:0007b630       ??_GCreateMove@hk@csgo@aw@@UAEPAXI@Z 1007c630 f i csgo-hk-x86:clientmode.obj
 0001:0007b660       ??_EDoPostScreenSpaceEffects@hk@csgo@aw@@UAEPAXI@Z 1007c660 f i csgo-hk-x86:clientmode.obj
 0001:0007b660       ??_GDoPostScreenSpaceEffects@hk@csgo@aw@@UAEPAXI@Z 1007c660 f i csgo-hk-x86:clientmode.obj
 0001:0007b690       ??_EGetViewModelFOV@hk@csgo@aw@@UAEPAXI@Z 1007c690 f i csgo-hk-x86:clientmode.obj
 0001:0007b690       ??_GGetViewModelFOV@hk@csgo@aw@@UAEPAXI@Z 1007c690 f i csgo-hk-x86:clientmode.obj
 0001:0007b6c0       ??_ELevelInit@hk@csgo@aw@@UAEPAXI@Z 1007c6c0 f i csgo-hk-x86:clientmode.obj
 0001:0007b6c0       ??_GLevelInit@hk@csgo@aw@@UAEPAXI@Z 1007c6c0 f i csgo-hk-x86:clientmode.obj
 0001:0007b6f0       ??_ELevelShutdown@hk@csgo@aw@@UAEPAXI@Z 1007c6f0 f i csgo-hk-x86:clientmode.obj
 0001:0007b6f0       ??_GLevelShutdown@hk@csgo@aw@@UAEPAXI@Z 1007c6f0 f i csgo-hk-x86:clientmode.obj
 0001:0007b720       ??_EOverrideView@hk@csgo@aw@@UAEPAXI@Z 1007c720 f i csgo-hk-x86:clientmode.obj
 0001:0007b720       ??_GOverrideView@hk@csgo@aw@@UAEPAXI@Z 1007c720 f i csgo-hk-x86:clientmode.obj
 0001:0007b750       ??_EPostRender@hk@csgo@aw@@UAEPAXI@Z 1007c750 f i csgo-hk-x86:clientmode.obj
 0001:0007b750       ??_GPostRender@hk@csgo@aw@@UAEPAXI@Z 1007c750 f i csgo-hk-x86:clientmode.obj
 0001:0007b780       ??_EShouldDrawFog@hk@csgo@aw@@UAEPAXI@Z 1007c780 f i csgo-hk-x86:clientmode.obj
 0001:0007b780       ??_GShouldDrawFog@hk@csgo@aw@@UAEPAXI@Z 1007c780 f i csgo-hk-x86:clientmode.obj
 0001:0007b7b0       ?CreateModule@?$ModuleWithFactory@VClientMode@hk@csgo@aw@@@aw@@SAPAVClientMode@hk@csgo@2@XZ 1007c7b0 f   csgo-hk-x86:clientmode.obj
 0001:0007b7e0       ?GetId@?$TypedObject@UCreateMove@hk@csgo@aw@@UCallbackVars@4@@aw@@UAEIXZ 1007c7e0 f i csgo-hk-x86:clientmode.obj
 0001:0007b7f0       ?GetId@?$TypedObject@UDoPostScreenSpaceEffects@hk@csgo@aw@@UCallbackVars@4@@aw@@UAEIXZ 1007c7f0 f i csgo-hk-x86:clientmode.obj
 0001:0007b800       ?GetId@?$TypedObject@UGetViewModelFOV@hk@csgo@aw@@UCallbackVars@4@@aw@@UAEIXZ 1007c800 f i csgo-hk-x86:clientmode.obj
 0001:0007b810       ?GetId@?$TypedObject@ULevelInit@hk@csgo@aw@@UCallbackVars@4@@aw@@UAEIXZ 1007c810 f i csgo-hk-x86:clientmode.obj
 0001:0007b820       ?GetId@?$TypedObject@ULevelShutdown@hk@csgo@aw@@UCallbackVars@4@@aw@@UAEIXZ 1007c820 f i csgo-hk-x86:clientmode.obj
 0001:0007b830       ?GetId@?$TypedObject@UOverrideView@hk@csgo@aw@@UCallbackVars@4@@aw@@UAEIXZ 1007c830 f i csgo-hk-x86:clientmode.obj
 0001:0007b840       ?GetId@?$TypedObject@UPostRender@hk@csgo@aw@@UCallbackVars@4@@aw@@UAEIXZ 1007c840 f i csgo-hk-x86:clientmode.obj
 0001:0007b850       ?GetId@?$TypedObject@UShouldDrawFog@hk@csgo@aw@@UCallbackVars@4@@aw@@UAEIXZ 1007c850 f i csgo-hk-x86:clientmode.obj
 0001:0007b860       ?GetId@?$TypedObject@VClientMode@hk@csgo@aw@@VModuleBase@4@@aw@@UAEIXZ 1007c860 f i csgo-hk-x86:clientmode.obj
 0001:0007b870       ?HkCreateMove@ClientMode@impl@hk@csgo@aw@@KA_NPAV1sdk@45@MPAVUserCmd@645@PA_NPAHPAI4@Z 1007c870 f   csgo-hk-x86:clientmode.obj
 0001:0007b8d0       ?HkCreateMoveNaked@ClientMode@impl@hk@csgo@aw@@KAXXZ 1007c8d0 f   csgo-hk-x86:clientmode.obj
 0001:0007b930       ?HkDoPostScreenSpaceEffects@ClientMode@impl@hk@csgo@aw@@KIXPAV1sdk@45@HPAVViewSetup@645@@Z 1007c930 f   csgo-hk-x86:clientmode.obj
 0001:0007b960       ?HkGetViewModelFOV@ClientMode@impl@hk@csgo@aw@@KIMPAV1sdk@45@H@Z 1007c960 f   csgo-hk-x86:clientmode.obj
 0001:0007b990       ?HkLevelInit@ClientMode@impl@hk@csgo@aw@@KIXPAV1sdk@45@HPBD@Z 1007c990 f   csgo-hk-x86:clientmode.obj
 0001:0007b9c0       ?HkLevelShutdown@ClientMode@impl@hk@csgo@aw@@KIXPAV1sdk@45@@Z 1007c9c0 f   csgo-hk-x86:clientmode.obj
 0001:0007b9e0       ?HkOverrideView@ClientMode@impl@hk@csgo@aw@@KIXPAV1sdk@45@HPAVViewSetup@645@@Z 1007c9e0 f   csgo-hk-x86:clientmode.obj
 0001:0007ba10       ?HkPostRender@ClientMode@impl@hk@csgo@aw@@KIXPAV1sdk@45@@Z 1007ca10 f   csgo-hk-x86:clientmode.obj
 0001:0007ba30       ?HkShouldDrawFog@ClientMode@impl@hk@csgo@aw@@KI_NPAV1sdk@45@H@Z 1007ca30 f   csgo-hk-x86:clientmode.obj
 0001:0007ba60       ?OnCreateMove@ClientMode@impl@hk@csgo@aw@@IAEXAAUCreateMove@345@@Z 1007ca60 f   csgo-hk-x86:clientmode.obj
 0001:0007ba90       ?OnDoPostScreenSpaceEffects@ClientMode@impl@hk@csgo@aw@@IAEXAAUDoPostScreenSpaceEffects@345@@Z 1007ca90 f   csgo-hk-x86:clientmode.obj
 0001:0007bab0       ?OnGetViewModelFOV@ClientMode@impl@hk@csgo@aw@@IAEXAAUGetViewModelFOV@345@@Z 1007cab0 f   csgo-hk-x86:clientmode.obj
 0001:0007bae0       ?OnHook@ClientMode@impl@hk@csgo@aw@@IAEXAAUCommonHook@5@@Z 1007cae0 f   csgo-hk-x86:clientmode.obj
 0001:0007bba0       ?OnLevelInit@ClientMode@impl@hk@csgo@aw@@IAEXAAULevelInit@345@@Z 1007cba0 f   csgo-hk-x86:clientmode.obj
 0001:0007bbc0       ?OnLevelShutdown@ClientMode@impl@hk@csgo@aw@@IAEXAAULevelShutdown@345@@Z 1007cbc0 f   csgo-hk-x86:clientmode.obj
 0001:0007bbd0       ?OnOverrideView@ClientMode@impl@hk@csgo@aw@@IAEXAAUOverrideView@345@@Z 1007cbd0 f   csgo-hk-x86:clientmode.obj
 0001:0007bbf0       ?OnPostRender@ClientMode@impl@hk@csgo@aw@@IAEXAAUPostRender@345@@Z 1007cbf0 f   csgo-hk-x86:clientmode.obj
 0001:0007bc00       ?OnShouldDrawFog@ClientMode@impl@hk@csgo@aw@@IAEXAAUShouldDrawFog@345@@Z 1007cc00 f   csgo-hk-x86:clientmode.obj
 0001:0007bc20       ?OnUnhook@ClientMode@impl@hk@csgo@aw@@IAEXAAUCommonUnhook@5@@Z 1007cc20 f   csgo-hk-x86:clientmode.obj
 0001:0007bc30       ??0Prediction@hk@csgo@aw@@QAE@XZ 1007cc30 f   csgo-hk-x86:prediction.obj
 0001:0007be20       ??_E?$ModuleBaseImpl@VPrediction@hk@csgo@aw@@V?$TypedObject@VPrediction@hk@csgo@aw@@VModuleBase@4@@4@@aw@@UAEPAXI@Z 1007ce20 f i csgo-hk-x86:prediction.obj
 0001:0007be20       ??_G?$ModuleBaseImpl@VPrediction@hk@csgo@aw@@V?$TypedObject@VPrediction@hk@csgo@aw@@VModuleBase@4@@4@@aw@@UAEPAXI@Z 1007ce20 f i csgo-hk-x86:prediction.obj
 0001:0007be50       ??_EInPrediction@hk@csgo@aw@@UAEPAXI@Z 1007ce50 f i csgo-hk-x86:prediction.obj
 0001:0007be50       ??_GInPrediction@hk@csgo@aw@@UAEPAXI@Z 1007ce50 f i csgo-hk-x86:prediction.obj
 0001:0007be80       ??_EPostEntityPacketReceived@hk@csgo@aw@@UAEPAXI@Z 1007ce80 f i csgo-hk-x86:prediction.obj
 0001:0007be80       ??_GPostEntityPacketReceived@hk@csgo@aw@@UAEPAXI@Z 1007ce80 f i csgo-hk-x86:prediction.obj
 0001:0007beb0       ??_EPostNetworkDataReceived@hk@csgo@aw@@UAEPAXI@Z 1007ceb0 f i csgo-hk-x86:prediction.obj
 0001:0007beb0       ??_GPostNetworkDataReceived@hk@csgo@aw@@UAEPAXI@Z 1007ceb0 f i csgo-hk-x86:prediction.obj
 0001:0007bee0       ??_EPreEntityPacketReceived@hk@csgo@aw@@UAEPAXI@Z 1007cee0 f i csgo-hk-x86:prediction.obj
 0001:0007bee0       ??_GPreEntityPacketReceived@hk@csgo@aw@@UAEPAXI@Z 1007cee0 f i csgo-hk-x86:prediction.obj
 0001:0007bf10       ??_EPrediction@hk@csgo@aw@@UAEPAXI@Z 1007cf10 f i csgo-hk-x86:prediction.obj
 0001:0007bf10       ??_GPrediction@hk@csgo@aw@@UAEPAXI@Z 1007cf10 f i csgo-hk-x86:prediction.obj
 0001:0007bf40       ??_ERunCommand@hk@csgo@aw@@UAEPAXI@Z 1007cf40 f i csgo-hk-x86:prediction.obj
 0001:0007bf40       ??_GRunCommand@hk@csgo@aw@@UAEPAXI@Z 1007cf40 f i csgo-hk-x86:prediction.obj
 0001:0007bf70       ??_ERunPrediction@hk@csgo@aw@@UAEPAXI@Z 1007cf70 f i csgo-hk-x86:prediction.obj
 0001:0007bf70       ??_GRunPrediction@hk@csgo@aw@@UAEPAXI@Z 1007cf70 f i csgo-hk-x86:prediction.obj
 0001:0007bfa0       ?GetId@?$TypedObject@UInPrediction@hk@csgo@aw@@UCallbackVars@4@@aw@@UAEIXZ 1007cfa0 f i csgo-hk-x86:prediction.obj
 0001:0007bfb0       ?GetId@?$TypedObject@UPostEntityPacketReceived@hk@csgo@aw@@UCallbackVars@4@@aw@@UAEIXZ 1007cfb0 f i csgo-hk-x86:prediction.obj
 0001:0007bfc0       ?GetId@?$TypedObject@UPostNetworkDataReceived@hk@csgo@aw@@UCallbackVars@4@@aw@@UAEIXZ 1007cfc0 f i csgo-hk-x86:prediction.obj
 0001:0007bfd0       ?GetId@?$TypedObject@UPreEntityPacketReceived@hk@csgo@aw@@UCallbackVars@4@@aw@@UAEIXZ 1007cfd0 f i csgo-hk-x86:prediction.obj
 0001:0007bfe0       ?GetId@?$TypedObject@URunCommand@hk@csgo@aw@@UCallbackVars@4@@aw@@UAEIXZ 1007cfe0 f i csgo-hk-x86:prediction.obj
 0001:0007bff0       ?GetId@?$TypedObject@URunPrediction@hk@csgo@aw@@UCallbackVars@4@@aw@@UAEIXZ 1007cff0 f i csgo-hk-x86:prediction.obj
 0001:0007c000       ?GetId@?$TypedObject@VPrediction@hk@csgo@aw@@VModuleBase@4@@aw@@UAEIXZ 1007d000 f i csgo-hk-x86:prediction.obj
 0001:0007c010       ?HkInPrediction@Prediction@hk@csgo@aw@@KI_NPAV1sdk@34@HPAVBasePlayer@534@PAVEulerAngles@4@@Z 1007d010 f   csgo-hk-x86:prediction.obj
 0001:0007c060       ?HkInPredictionGate@Prediction@hk@csgo@aw@@KAXXZ 1007d060 f   csgo-hk-x86:prediction.obj
 0001:0007c070       ?HkPostEntityPacketReceived@Prediction@hk@csgo@aw@@KIXPAV1sdk@34@@Z 1007d070 f   csgo-hk-x86:prediction.obj
 0001:0007c090       ?HkPostNetworkDataReceived@Prediction@hk@csgo@aw@@KIXPAV1sdk@34@HH@Z 1007d090 f   csgo-hk-x86:prediction.obj
 0001:0007c0c0       ?HkPreEntityPacketReceived@Prediction@hk@csgo@aw@@KIXPAV1sdk@34@HHHH@Z 1007d0c0 f   csgo-hk-x86:prediction.obj
 0001:0007c100       ?HkRunCommand@Prediction@hk@csgo@aw@@KIXPAV1sdk@34@HPAVBasePlayer@534@PAVUserCmd@534@PAVMoveHelper@534@@Z 1007d100 f   csgo-hk-x86:prediction.obj
 0001:0007c140       ?HkUpdate@Prediction@hk@csgo@aw@@KIXPAV1sdk@34@HH_NHH@Z 1007d140 f   csgo-hk-x86:prediction.obj
 0001:0007c190       ?OnHook@Prediction@hk@csgo@aw@@IAEXAAUCommonHook@4@@Z 1007d190 f   csgo-hk-x86:prediction.obj
 0001:0007c220       ?OnPostEntityPacketReceived@Prediction@hk@csgo@aw@@IAEXAAUPostEntityPacketReceived@234@@Z 1007d220 f   csgo-hk-x86:prediction.obj
 0001:0007c230       ?OnPostNetworkDataReceived@Prediction@hk@csgo@aw@@IAEXAAUPostNetworkDataReceived@234@@Z 1007d230 f   csgo-hk-x86:prediction.obj
 0001:0007c250       ?OnPreEntityPacketReceived@Prediction@hk@csgo@aw@@IAEXAAUPreEntityPacketReceived@234@@Z 1007d250 f   csgo-hk-x86:prediction.obj
 0001:0007c270       ?OnRunCommand@Prediction@hk@csgo@aw@@IAEXAAURunCommand@234@@Z 1007d270 f   csgo-hk-x86:prediction.obj
 0001:0007c2d0       ?OnUnhook@Prediction@hk@csgo@aw@@IAEXAAUCommonUnhook@4@@Z 1007d2d0 f   csgo-hk-x86:prediction.obj
 0001:0007c2e0       ?OnUpdate@Prediction@hk@csgo@aw@@IAEXAAURunPrediction@234@@Z 1007d2e0 f   csgo-hk-x86:prediction.obj
 0001:0007c310       ??_E?$ModuleBaseImpl@VBaseEntityList@hk@csgo@aw@@V?$TypedObject@VBaseEntityList@hk@csgo@aw@@VModuleBase@4@@4@@aw@@UAEPAXI@Z 1007d310 f i csgo-hk-x86:baseentitylist.obj
 0001:0007c310       ??_G?$ModuleBaseImpl@VBaseEntityList@hk@csgo@aw@@V?$TypedObject@VBaseEntityList@hk@csgo@aw@@VModuleBase@4@@4@@aw@@UAEPAXI@Z 1007d310 f i csgo-hk-x86:baseentitylist.obj
 0001:0007c340       ??_EBaseEntityList@impl@hk@csgo@aw@@UAEPAXI@Z 1007d340 f i csgo-hk-x86:baseentitylist.obj
 0001:0007c340       ??_GBaseEntityList@impl@hk@csgo@aw@@UAEPAXI@Z 1007d340 f i csgo-hk-x86:baseentitylist.obj
 0001:0007c370       ??_EOnAddEntityCallback@hk@csgo@aw@@UAEPAXI@Z 1007d370 f i csgo-hk-x86:baseentitylist.obj
 0001:0007c370       ??_GOnAddEntityCallback@hk@csgo@aw@@UAEPAXI@Z 1007d370 f i csgo-hk-x86:baseentitylist.obj
 0001:0007c3a0       ??_EOnRemoveEntityCallback@hk@csgo@aw@@UAEPAXI@Z 1007d3a0 f i csgo-hk-x86:baseentitylist.obj
 0001:0007c3a0       ??_GOnRemoveEntityCallback@hk@csgo@aw@@UAEPAXI@Z 1007d3a0 f i csgo-hk-x86:baseentitylist.obj
 0001:0007c3d0       ?CreateModule@?$ModuleWithFactory@VBaseEntityList@hk@csgo@aw@@@aw@@SAPAVBaseEntityList@hk@csgo@2@XZ 1007d3d0 f   csgo-hk-x86:baseentitylist.obj
 0001:0007c530       ?GetId@?$TypedObject@UOnAddEntityCallback@hk@csgo@aw@@UCallbackVars@4@@aw@@UAEIXZ 1007d530 f i csgo-hk-x86:baseentitylist.obj
 0001:0007c540       ?GetId@?$TypedObject@UOnRemoveEntityCallback@hk@csgo@aw@@UCallbackVars@4@@aw@@UAEIXZ 1007d540 f i csgo-hk-x86:baseentitylist.obj
 0001:0007c550       ?GetId@?$TypedObject@VBaseEntityList@hk@csgo@aw@@VModuleBase@4@@aw@@UAEIXZ 1007d550 f i csgo-hk-x86:baseentitylist.obj
 0001:0007c560       ?HkOnAddEntity@BaseEntityList@impl@hk@csgo@aw@@KIXPAXHPAVBaseEntity@sdk@45@VBaseHandle@745@@Z 1007d560 f   csgo-hk-x86:baseentitylist.obj
 0001:0007c5a0       ?HkOnRemoveEntity@BaseEntityList@impl@hk@csgo@aw@@KIXPAXHPAVBaseEntity@sdk@45@VBaseHandle@745@@Z 1007d5a0 f   csgo-hk-x86:baseentitylist.obj
 0001:0007c5e0       ?OnAddEntity@BaseEntityList@impl@hk@csgo@aw@@IAEXAAUOnAddEntityCallback@345@@Z 1007d5e0 f   csgo-hk-x86:baseentitylist.obj
 0001:0007c600       ?OnHook@BaseEntityList@impl@hk@csgo@aw@@IAEXAAUCommonHook@5@@Z 1007d600 f   csgo-hk-x86:baseentitylist.obj
 0001:0007c790       ?OnRemoveEntity@BaseEntityList@impl@hk@csgo@aw@@IAEXAAUOnRemoveEntityCallback@345@@Z 1007d790 f   csgo-hk-x86:baseentitylist.obj
 0001:0007c7c0       ?OnUnhook@BaseEntityList@impl@hk@csgo@aw@@IAEXAAUCommonUnhook@5@@Z 1007d7c0 f   csgo-hk-x86:baseentitylist.obj
 0001:0007c7d0       ??$_Erase_tree@V?$allocator@U?$_Tree_node@PAVCSPlayer@sdk@csgo@aw@@PAX@std@@@std@@@?$_Tree_val@U?$_Tree_simple_types@PAVCSPlayer@sdk@csgo@aw@@@std@@@std@@QAEXAAV?$allocator@U?$_Tree_node@PAVCSPlayer@sdk@csgo@aw@@PAX@std@@@1@PAU?$_Tree_node@PAVCSPlayer@sdk@csgo@aw@@PAX@1@@Z 1007d7d0 f i csgo-hk-x86:csplayer.obj
 0001:0007c810       ??0CSPlayer@impl@hk@csgo@aw@@QAE@XZ 1007d810 f   csgo-hk-x86:csplayer.obj
 0001:0007cbb0       ??1?$_Tree@V?$_Tset_traits@PAVCSPlayer@sdk@csgo@aw@@U?$less@PAVCSPlayer@sdk@csgo@aw@@@std@@V?$allocator@PAVCSPlayer@sdk@csgo@aw@@@6@$0A@@std@@@std@@QAE@XZ 1007dbb0 f i csgo-hk-x86:csplayer.obj
 0001:0007cbf0       ??E?$_Tree_unchecked_const_iterator@V?$_Tree_val@U?$_Tree_simple_types@PAVCSPlayer@sdk@csgo@aw@@@std@@@std@@U_Iterator_base0@2@@std@@QAEAAV01@XZ 1007dbf0 f i csgo-hk-x86:csplayer.obj
 0001:0007cc50       ??_E?$ModuleBaseImpl@VCSPlayer@hk@csgo@aw@@V?$TypedObject@VCSPlayer@hk@csgo@aw@@VModuleBase@4@@4@@aw@@UAEPAXI@Z 1007dc50 f i csgo-hk-x86:csplayer.obj
 0001:0007cc50       ??_G?$ModuleBaseImpl@VCSPlayer@hk@csgo@aw@@V?$TypedObject@VCSPlayer@hk@csgo@aw@@VModuleBase@4@@4@@aw@@UAEPAXI@Z 1007dc50 f i csgo-hk-x86:csplayer.obj
 0001:0007cc80       ??_ECSPlayer@impl@hk@csgo@aw@@UAEPAXI@Z 1007dc80 f i csgo-hk-x86:csplayer.obj
 0001:0007cc80       ??_GCSPlayer@impl@hk@csgo@aw@@UAEPAXI@Z 1007dc80 f i csgo-hk-x86:csplayer.obj
 0001:0007cce0       ??_EPlayerCalcView@hk@csgo@aw@@UAEPAXI@Z 1007dce0 f i csgo-hk-x86:csplayer.obj
 0001:0007cce0       ??_GPlayerCalcView@hk@csgo@aw@@UAEPAXI@Z 1007dce0 f i csgo-hk-x86:csplayer.obj
 0001:0007cd10       ??_EPlayerEyeAngles@hk@csgo@aw@@UAEPAXI@Z 1007dd10 f i csgo-hk-x86:csplayer.obj
 0001:0007cd10       ??_GPlayerEyeAngles@hk@csgo@aw@@UAEPAXI@Z 1007dd10 f i csgo-hk-x86:csplayer.obj
 0001:0007cd40       ??_EPlayerEyePosition@hk@csgo@aw@@UAEPAXI@Z 1007dd40 f i csgo-hk-x86:csplayer.obj
 0001:0007cd40       ??_GPlayerEyePosition@hk@csgo@aw@@UAEPAXI@Z 1007dd40 f i csgo-hk-x86:csplayer.obj
 0001:0007cd70       ??_EPlayerLatchInterpVars@hk@csgo@aw@@UAEPAXI@Z 1007dd70 f i csgo-hk-x86:csplayer.obj
 0001:0007cd70       ??_GPlayerLatchInterpVars@hk@csgo@aw@@UAEPAXI@Z 1007dd70 f i csgo-hk-x86:csplayer.obj
 0001:0007cda0       ??_EPlayerOnDataChanged@hk@csgo@aw@@UAEPAXI@Z 1007dda0 f i csgo-hk-x86:csplayer.obj
 0001:0007cda0       ??_GPlayerOnDataChanged@hk@csgo@aw@@UAEPAXI@Z 1007dda0 f i csgo-hk-x86:csplayer.obj
 0001:0007cdd0       ??_EPlayerPostDataUpdate@hk@csgo@aw@@UAEPAXI@Z 1007ddd0 f i csgo-hk-x86:csplayer.obj
 0001:0007cdd0       ??_GPlayerPostDataUpdate@hk@csgo@aw@@UAEPAXI@Z 1007ddd0 f i csgo-hk-x86:csplayer.obj
 0001:0007ce00       ??_EPlayerPostThink@hk@csgo@aw@@UAEPAXI@Z 1007de00 f i csgo-hk-x86:csplayer.obj
 0001:0007ce00       ??_GPlayerPostThink@hk@csgo@aw@@UAEPAXI@Z 1007de00 f i csgo-hk-x86:csplayer.obj
 0001:0007ce30       ??_EPlayerSetupBones@hk@csgo@aw@@UAEPAXI@Z 1007de30 f i csgo-hk-x86:csplayer.obj
 0001:0007ce30       ??_GPlayerSetupBones@hk@csgo@aw@@UAEPAXI@Z 1007de30 f i csgo-hk-x86:csplayer.obj
 0001:0007ce60       ??_EPlayerUpdateAnimation@hk@csgo@aw@@UAEPAXI@Z 1007de60 f i csgo-hk-x86:csplayer.obj
 0001:0007ce60       ??_GPlayerUpdateAnimation@hk@csgo@aw@@UAEPAXI@Z 1007de60 f i csgo-hk-x86:csplayer.obj
 0001:0007ce90       ?CreateModule@?$ModuleWithFactory@VCSPlayer@hk@csgo@aw@@@aw@@SAPAVCSPlayer@hk@csgo@2@XZ 1007de90 f   csgo-hk-x86:csplayer.obj
 0001:0007ceb0       ?GetId@?$TypedObject@UPlayerCalcView@hk@csgo@aw@@UCallbackVars@4@@aw@@UAEIXZ 1007deb0 f i csgo-hk-x86:csplayer.obj
 0001:0007cec0       ?GetId@?$TypedObject@UPlayerEyeAngles@hk@csgo@aw@@UCallbackVars@4@@aw@@UAEIXZ 1007dec0 f i csgo-hk-x86:csplayer.obj
 0001:0007ced0       ?GetId@?$TypedObject@UPlayerEyePosition@hk@csgo@aw@@UCallbackVars@4@@aw@@UAEIXZ 1007ded0 f i csgo-hk-x86:csplayer.obj
 0001:0007cee0       ?GetId@?$TypedObject@UPlayerLatchInterpVars@hk@csgo@aw@@UCallbackVars@4@@aw@@UAEIXZ 1007dee0 f i csgo-hk-x86:csplayer.obj
 0001:0007cef0       ?GetId@?$TypedObject@UPlayerOnDataChanged@hk@csgo@aw@@UCallbackVars@4@@aw@@UAEIXZ 1007def0 f i csgo-hk-x86:csplayer.obj
 0001:0007cf00       ?GetId@?$TypedObject@UPlayerPostDataUpdate@hk@csgo@aw@@UCallbackVars@4@@aw@@UAEIXZ 1007df00 f i csgo-hk-x86:csplayer.obj
 0001:0007cf10       ?GetId@?$TypedObject@UPlayerPostThink@hk@csgo@aw@@UCallbackVars@4@@aw@@UAEIXZ 1007df10 f i csgo-hk-x86:csplayer.obj
 0001:0007cf20       ?GetId@?$TypedObject@UPlayerSetupBones@hk@csgo@aw@@UCallbackVars@4@@aw@@UAEIXZ 1007df20 f i csgo-hk-x86:csplayer.obj
 0001:0007cf30       ?GetId@?$TypedObject@UPlayerUpdateAnimation@hk@csgo@aw@@UCallbackVars@4@@aw@@UAEIXZ 1007df30 f i csgo-hk-x86:csplayer.obj
 0001:0007cf40       ?GetId@?$TypedObject@VCSPlayer@hk@csgo@aw@@VModuleBase@4@@aw@@UAEIXZ 1007df40 f i csgo-hk-x86:csplayer.obj
 0001:0007cf50       ?GetOldVTable@CSPlayer@impl@hk@csgo@aw@@UAEPAPAXXZ 1007df50 f i csgo-hk-x86:csplayer.obj
 0001:0007cf60       ?GetOrgUpdateClientSideAnimation@CSPlayer@impl@hk@csgo@aw@@UAEP6IXPAV1sdk@45@@ZXZ 1007df60 f i csgo-hk-x86:csplayer.obj
 0001:0007cf70       ?HkCalcView@CSPlayer@impl@hk@csgo@aw@@KIXPAV1sdk@45@HPAVVector3@5@PAVEulerAngles@5@PAM33@Z 1007df70 f   csgo-hk-x86:csplayer.obj
 0001:0007cfc0       ?HkDataChanged@CSPlayer@impl@hk@csgo@aw@@KIXPAVClientNetworkable@sdk@45@HW4DataUpdateType@745@@Z 1007dfc0 f   csgo-hk-x86:csplayer.obj
 0001:0007cff0       ?HkEyeAngles@CSPlayer@impl@hk@csgo@aw@@KIPBVEulerAngles@5@PAV1sdk@45@@Z 1007dff0 f   csgo-hk-x86:csplayer.obj
 0001:0007d020       ?HkEyePosition@CSPlayer@impl@hk@csgo@aw@@KIPAVVector3@5@PAV1sdk@45@HPAV65@@Z 1007e020 f   csgo-hk-x86:csplayer.obj
 0001:0007d060       ?HkLatchInterpVars@CSPlayer@impl@hk@csgo@aw@@KIXPAV1sdk@45@HH@Z 1007e060 f   csgo-hk-x86:csplayer.obj
 0001:0007d0c0       ?HkPostDataUpdate@CSPlayer@impl@hk@csgo@aw@@KIXPAVClientNetworkable@sdk@45@HW4DataUpdateType@745@@Z 1007e0c0 f   csgo-hk-x86:csplayer.obj
 0001:0007d0f0       ?HkPostThink@CSPlayer@impl@hk@csgo@aw@@KIXPAV1sdk@45@@Z 1007e0f0 f   csgo-hk-x86:csplayer.obj
 0001:0007d120       ?HkSetupBones@CSPlayer@impl@hk@csgo@aw@@KI_NPAVClientRenderable@sdk@45@HPAVMatrix3x4@5@HIM@Z 1007e120 f   csgo-hk-x86:csplayer.obj
 0001:0007d180       ?HkShouldCollide@CSPlayer@impl@hk@csgo@aw@@KI_NPAV1sdk@45@HHH@Z 1007e180 f   csgo-hk-x86:csplayer.obj
 0001:0007d1e0       ?HkUpdateClientSideAnimation@CSPlayer@impl@hk@csgo@aw@@KIXPAV1sdk@45@@Z 1007e1e0 f   csgo-hk-x86:csplayer.obj
 0001:0007d210       ?HookEntity@CSPlayer@impl@hk@csgo@aw@@IAEXPAV1sdk@45@@Z 1007e210 f   csgo-hk-x86:csplayer.obj
 0001:0007d3e0       ?OnAddEntity@CSPlayer@impl@hk@csgo@aw@@IAEXAAUOnAddEntityCallback@345@@Z 1007e3e0 f   csgo-hk-x86:csplayer.obj
 0001:0007d430       ?OnCalcView@CSPlayer@impl@hk@csgo@aw@@IAEXAAUPlayerCalcView@345@@Z 1007e430 f   csgo-hk-x86:csplayer.obj
 0001:0007d450       ?OnDataChanged@CSPlayer@impl@hk@csgo@aw@@IAEXAAUPlayerOnDataChanged@345@@Z 1007e450 f   csgo-hk-x86:csplayer.obj
 0001:0007d470       ?OnEyeAngles@CSPlayer@impl@hk@csgo@aw@@IAEXAAUPlayerEyeAngles@345@@Z 1007e470 f   csgo-hk-x86:csplayer.obj
 0001:0007d490       ?OnEyePosition@CSPlayer@impl@hk@csgo@aw@@IAEXAAUPlayerEyePosition@345@@Z 1007e490 f   csgo-hk-x86:csplayer.obj
 0001:0007d4b0       ?OnHook@CSPlayer@impl@hk@csgo@aw@@IAEXAAUCommonHook@5@@Z 1007e4b0 f   csgo-hk-x86:csplayer.obj
 0001:0007d520       ?OnLatchInterpVars@CSPlayer@impl@hk@csgo@aw@@IAEXAAUPlayerLatchInterpVars@345@@Z 1007e520 f   csgo-hk-x86:csplayer.obj
 0001:0007d540       ?OnPostDataUpdate@CSPlayer@impl@hk@csgo@aw@@IAEXAAUPlayerPostDataUpdate@345@@Z 1007e540 f   csgo-hk-x86:csplayer.obj
 0001:0007d560       ?OnPostThink@CSPlayer@impl@hk@csgo@aw@@IAEXAAUPlayerPostThink@345@@Z 1007e560 f   csgo-hk-x86:csplayer.obj
 0001:0007d580       ?OnRemoveEntity@CSPlayer@impl@hk@csgo@aw@@IAEXAAUOnRemoveEntityCallback@345@@Z 1007e580 f   csgo-hk-x86:csplayer.obj
 0001:0007d5e0       ?OnSetupBones@CSPlayer@impl@hk@csgo@aw@@IAEXAAUPlayerSetupBones@345@@Z 1007e5e0 f   csgo-hk-x86:csplayer.obj
 0001:0007d610       ?OnUnhook@CSPlayer@impl@hk@csgo@aw@@IAEXAAUCommonUnhook@5@@Z 1007e610 f   csgo-hk-x86:csplayer.obj
 0001:0007d6b0       ?OnUpdateClientSideAnimation@CSPlayer@impl@hk@csgo@aw@@IAEXAAUPlayerUpdateAnimation@345@@Z 1007e6b0 f   csgo-hk-x86:csplayer.obj
 0001:0007d6d0       ?_Extract@?$_Tree_val@U?$_Tree_simple_types@PAVCSPlayer@sdk@csgo@aw@@@std@@@std@@QAEPAU?$_Tree_node@PAVCSPlayer@sdk@csgo@aw@@PAX@2@V?$_Tree_unchecked_const_iterator@V?$_Tree_val@U?$_Tree_simple_types@PAVCSPlayer@sdk@csgo@aw@@@std@@@std@@U_Iterator_base0@2@@2@@Z 1007e6d0 f i csgo-hk-x86:csplayer.obj
 0001:0007d9d0       ?_Insert_node@?$_Tree_val@U?$_Tree_simple_types@PAVCSPlayer@sdk@csgo@aw@@@std@@@std@@QAEPAU?$_Tree_node@PAVCSPlayer@sdk@csgo@aw@@PAX@2@U?$_Tree_id@PAU?$_Tree_node@PAVCSPlayer@sdk@csgo@aw@@PAX@std@@@2@QAU32@@Z 1007e9d0 f i csgo-hk-x86:csplayer.obj
 0001:0007dbc0       ?_Lrotate@?$_Tree_val@U?$_Tree_simple_types@PAVCSPlayer@sdk@csgo@aw@@@std@@@std@@QAEXPAU?$_Tree_node@PAVCSPlayer@sdk@csgo@aw@@PAX@2@@Z 1007ebc0 f i csgo-hk-x86:csplayer.obj
 0001:0007dc10       ?_Min@?$_Tree_val@U?$_Tree_simple_types@PAVCSPlayer@sdk@csgo@aw@@@std@@@std@@SAPAU?$_Tree_node@PAVCSPlayer@sdk@csgo@aw@@PAX@2@PAU32@@Z 1007ec10 f i csgo-hk-x86:csplayer.obj
 0001:0007dc30       ?_Rrotate@?$_Tree_val@U?$_Tree_simple_types@PAVCSPlayer@sdk@csgo@aw@@@std@@@std@@QAEXPAU?$_Tree_node@PAVCSPlayer@sdk@csgo@aw@@PAX@2@@Z 1007ec30 f i csgo-hk-x86:csplayer.obj
 0001:0007dc90       ?clear@?$_Tree@V?$_Tset_traits@PAVCSPlayer@sdk@csgo@aw@@U?$less@PAVCSPlayer@sdk@csgo@aw@@@std@@V?$allocator@PAVCSPlayer@sdk@csgo@aw@@@6@$0A@@std@@@std@@QAEXXZ 1007ec90 f i csgo-hk-x86:csplayer.obj
 0001:0007dce0       ?erase@?$_Tree@V?$_Tset_traits@PAVCSPlayer@sdk@csgo@aw@@U?$less@PAVCSPlayer@sdk@csgo@aw@@@std@@V?$allocator@PAVCSPlayer@sdk@csgo@aw@@@6@$0A@@std@@@std@@QAEIABQAVCSPlayer@sdk@csgo@aw@@@Z 1007ece0 f i csgo-hk-x86:csplayer.obj
 0001:0007de00       ??_E?$ModuleBaseImpl@VSplitScreen@hk@csgo@aw@@V?$TypedObject@VSplitScreen@hk@csgo@aw@@VModuleBase@4@@4@@aw@@UAEPAXI@Z 1007ee00 f i csgo-hk-x86:splitscreen.obj
 0001:0007de00       ??_G?$ModuleBaseImpl@VSplitScreen@hk@csgo@aw@@V?$TypedObject@VSplitScreen@hk@csgo@aw@@VModuleBase@4@@4@@aw@@UAEPAXI@Z 1007ee00 f i csgo-hk-x86:splitscreen.obj
 0001:0007de30       ??_EReadPackets@hk@csgo@aw@@UAEPAXI@Z 1007ee30 f i csgo-hk-x86:splitscreen.obj
 0001:0007de30       ??_GReadPackets@hk@csgo@aw@@UAEPAXI@Z 1007ee30 f i csgo-hk-x86:splitscreen.obj
 0001:0007de60       ??_ESplitScreen@impl@hk@csgo@aw@@UAEPAXI@Z 1007ee60 f i csgo-hk-x86:splitscreen.obj
 0001:0007de60       ??_GSplitScreen@impl@hk@csgo@aw@@UAEPAXI@Z 1007ee60 f i csgo-hk-x86:splitscreen.obj
 0001:0007de90       ??_ESplitScreenSetLocalPlayerIsResolvable@hk@csgo@aw@@UAEPAXI@Z 1007ee90 f i csgo-hk-x86:splitscreen.obj
 0001:0007de90       ??_GSplitScreenSetLocalPlayerIsResolvable@hk@csgo@aw@@UAEPAXI@Z 1007ee90 f i csgo-hk-x86:splitscreen.obj
 0001:0007dec0       ?CreateModule@?$ModuleWithFactory@VSplitScreen@hk@csgo@aw@@@aw@@SAPAVSplitScreen@hk@csgo@2@XZ 1007eec0 f   csgo-hk-x86:splitscreen.obj
 0001:0007e020       ?GetId@?$TypedObject@UReadPackets@hk@csgo@aw@@UCallbackVars@4@@aw@@UAEIXZ 1007f020 f i csgo-hk-x86:splitscreen.obj
 0001:0007e030       ?GetId@?$TypedObject@USplitScreenSetLocalPlayerIsResolvable@hk@csgo@aw@@UCallbackVars@4@@aw@@UAEIXZ 1007f030 f i csgo-hk-x86:splitscreen.obj
 0001:0007e040       ?GetId@?$TypedObject@VSplitScreen@hk@csgo@aw@@VModuleBase@4@@aw@@UAEIXZ 1007f040 f i csgo-hk-x86:splitscreen.obj
 0001:0007e050       ?HkSetLocalPlayerIsResolvable@SplitScreen@impl@hk@csgo@aw@@KIXPAXHPBDH_N@Z 1007f050 f   csgo-hk-x86:splitscreen.obj
 0001:0007e0a0       ?OnHook@SplitScreen@impl@hk@csgo@aw@@IAEXAAUCommonHook@5@@Z 1007f0a0 f   csgo-hk-x86:splitscreen.obj
 0001:0007e3d0       ?OnSetLocalPlayerIsResolvable@SplitScreen@impl@hk@csgo@aw@@IAEXAAUSplitScreenSetLocalPlayerIsResolvable@345@@Z 1007f3d0 f   csgo-hk-x86:splitscreen.obj
 0001:0007e430       ?OnUnhook@SplitScreen@impl@hk@csgo@aw@@IAEXAAUCommonUnhook@5@@Z 1007f430 f   csgo-hk-x86:splitscreen.obj
 0001:0007e440       ??_E?$ModuleBaseImpl@VInput@hk@csgo@aw@@V?$TypedObject@VInput@hk@csgo@aw@@VModuleBase@4@@4@@aw@@UAEPAXI@Z 1007f440 f i csgo-hk-x86:input.obj
 0001:0007e440       ??_G?$ModuleBaseImpl@VInput@hk@csgo@aw@@V?$TypedObject@VInput@hk@csgo@aw@@VModuleBase@4@@4@@aw@@UAEPAXI@Z 1007f440 f i csgo-hk-x86:input.obj
 0001:0007e470       ??_EGetUserCmd@hk@csgo@aw@@UAEPAXI@Z 1007f470 f i csgo-hk-x86:input.obj
 0001:0007e470       ??_GGetUserCmd@hk@csgo@aw@@UAEPAXI@Z 1007f470 f i csgo-hk-x86:input.obj
 0001:0007e4a0       ??_EInput@impl@hk@csgo@aw@@UAEPAXI@Z 1007f4a0 f i csgo-hk-x86:input.obj
 0001:0007e4a0       ??_GInput@impl@hk@csgo@aw@@UAEPAXI@Z 1007f4a0 f i csgo-hk-x86:input.obj
 0001:0007e4d0       ?CreateModule@?$ModuleWithFactory@VInput@hk@csgo@aw@@@aw@@SAPAVInput@hk@csgo@2@XZ 1007f4d0 f   csgo-hk-x86:input.obj
 0001:0007e5c0       ?GetId@?$TypedObject@UGetUserCmd@hk@csgo@aw@@UCallbackVars@4@@aw@@UAEIXZ 1007f5c0 f i csgo-hk-x86:input.obj
 0001:0007e5d0       ?GetId@?$TypedObject@VInput@hk@csgo@aw@@VModuleBase@4@@aw@@UAEIXZ 1007f5d0 f i csgo-hk-x86:input.obj
 0001:0007e5e0       ?HkGetUserCmd@Input@impl@hk@csgo@aw@@KIPAVUserCmd@sdk@45@PAV1745@HHH@Z 1007f5e0 f   csgo-hk-x86:input.obj
 0001:0007e650       ?OnHook@Input@impl@hk@csgo@aw@@IAEXAAUCommonHook@5@@Z 1007f650 f   csgo-hk-x86:input.obj
 0001:0007e680       ?OnUnhook@Input@impl@hk@csgo@aw@@IAEXAAUCommonUnhook@5@@Z 1007f680 f   csgo-hk-x86:input.obj
 0001:0007e690       ??_EGameEventManager@impl@hk@csgo@aw@@W7AEPAXI@Z 1007f690 f i csgo-hk-x86:gameevent.obj
 0001:0007e6a0       ??_E?$ModuleBaseImpl@VGameEventManager@hk@csgo@aw@@V?$TypedObject@VGameEventManager@hk@csgo@aw@@VModuleBase@4@@4@@aw@@UAEPAXI@Z 1007f6a0 f i csgo-hk-x86:gameevent.obj
 0001:0007e6a0       ??_G?$ModuleBaseImpl@VGameEventManager@hk@csgo@aw@@V?$TypedObject@VGameEventManager@hk@csgo@aw@@VModuleBase@4@@4@@aw@@UAEPAXI@Z 1007f6a0 f i csgo-hk-x86:gameevent.obj
 0001:0007e6d0       ??_EGameEvent@hk@csgo@aw@@UAEPAXI@Z 1007f6d0 f i csgo-hk-x86:gameevent.obj
 0001:0007e6d0       ??_GGameEvent@hk@csgo@aw@@UAEPAXI@Z 1007f6d0 f i csgo-hk-x86:gameevent.obj
 0001:0007e700       ??_EGameEventClientSide@hk@csgo@aw@@UAEPAXI@Z 1007f700 f i csgo-hk-x86:gameevent.obj
 0001:0007e700       ??_GGameEventClientSide@hk@csgo@aw@@UAEPAXI@Z 1007f700 f i csgo-hk-x86:gameevent.obj
 0001:0007e730       ??_EGameEventListener2@sdk@csgo@aw@@UAEPAXI@Z 1007f730 f i csgo-hk-x86:gameevent.obj
 0001:0007e730       ??_GGameEventListener2@sdk@csgo@aw@@UAEPAXI@Z 1007f730 f i csgo-hk-x86:gameevent.obj
 0001:0007e760       ??_EGameEventManager@impl@hk@csgo@aw@@UAEPAXI@Z 1007f760 f i csgo-hk-x86:gameevent.obj
 0001:0007e760       ??_GGameEventManager@impl@hk@csgo@aw@@UAEPAXI@Z 1007f760 f i csgo-hk-x86:gameevent.obj
 0001:0007e790       ?AllowListener@GameEventManager@impl@hk@csgo@aw@@UAEXV?$basic_string_view@DU?$char_traits@D@std@@@std@@@Z 1007f790 f   csgo-hk-x86:gameevent.obj
 0001:0007e7c0       ?CreateModule@?$ModuleWithFactory@VGameEventManager@hk@csgo@aw@@@aw@@SAPAVGameEventManager@hk@csgo@2@XZ 1007f7c0 f   csgo-hk-x86:gameevent.obj
 0001:0007e8e0       ?FireGameEvent@GameEventManager@impl@hk@csgo@aw@@MAEXPAVGameEvent@sdk@45@@Z 1007f8e0 f   csgo-hk-x86:gameevent.obj
 0001:0007e930       ?Get@GameEventManager@sdk@csgo@aw@@SAPAV1234@XZ 1007f930 f i csgo-hk-x86:gameevent.obj
 0001:0007e940       ?GetEventDebugID@GameEventListener2@sdk@csgo@aw@@UAEHXZ 1007f940 f i csgo-hk-x86:gameevent.obj
 0001:0007e950       ?GetId@?$TypedObject@UGameEvent@hk@csgo@aw@@UCallbackVars@4@@aw@@UAEIXZ 1007f950 f i csgo-hk-x86:gameevent.obj
 0001:0007e960       ?GetId@?$TypedObject@UGameEventClientSide@hk@csgo@aw@@UCallbackVars@4@@aw@@UAEIXZ 1007f960 f i csgo-hk-x86:gameevent.obj
 0001:0007e970       ?GetId@?$TypedObject@VGameEventManager@hk@csgo@aw@@VModuleBase@4@@aw@@UAEIXZ 1007f970 f i csgo-hk-x86:gameevent.obj
 0001:0007e980       ?HkFireEventClientSide@GameEventManager@impl@hk@csgo@aw@@KI_NPAV1sdk@45@HPAVGameEvent@645@@Z 1007f980 f   csgo-hk-x86:gameevent.obj
 0001:0007e9d0       ?OnFireEventClientSide@GameEventManager@impl@hk@csgo@aw@@IAEXAAUGameEventClientSide@345@@Z 1007f9d0 f   csgo-hk-x86:gameevent.obj
 0001:0007e9f0       ?OnHook@GameEventManager@impl@hk@csgo@aw@@IAEXAAUCommonHook@5@@Z 1007f9f0 f   csgo-hk-x86:gameevent.obj
 0001:0007f110       ?OnUnhook@GameEventManager@impl@hk@csgo@aw@@IAEXAAUCommonUnhook@5@@Z 10080110 f   csgo-hk-x86:gameevent.obj
 0001:0007f140       ??$CreateModule@VD3D9Resources@gfx@aw@@@ModuleMgr@aw@@QAEPAVD3D9Resources@gfx@1@XZ 10080140 f i csgo-hk-x86:d3d9device.obj
 0001:0007f150       ??$CreateModule@VD3D9Thread@gfx@aw@@@ModuleMgr@aw@@QAEPAVD3D9Thread@gfx@1@XZ 10080150 f i csgo-hk-x86:d3d9device.obj
 0001:0007f160       ??$FindModule@VD3D9Resources@gfx@aw@@@ModuleMgr@aw@@QAEPAVD3D9Resources@gfx@1@_N@Z 10080160 f i csgo-hk-x86:d3d9device.obj
 0001:0007f230       ??$FindModule@VD3D9Thread@gfx@aw@@@ModuleMgr@aw@@QAEPAVD3D9Thread@gfx@1@_N@Z 10080230 f i csgo-hk-x86:d3d9device.obj
 0001:0007f300       ??$FindOrCreateModule@VD3D9Resources@gfx@aw@@@ModuleMgr@aw@@QAEPAVD3D9Resources@gfx@1@XZ 10080300 f i csgo-hk-x86:d3d9device.obj
 0001:0007f320       ??$FindOrCreateModule@VD3D9Thread@gfx@aw@@@ModuleMgr@aw@@QAEPAVD3D9Thread@gfx@1@XZ 10080320 f i csgo-hk-x86:d3d9device.obj
 0001:0007f340       ??0D3D9Device@impl@hk@csgo@aw@@QAE@XZ 10080340 f i csgo-hk-x86:d3d9device.obj
 0001:0007f580       ??_E?$ModuleBaseImpl@VD3D9Device@hk@csgo@aw@@V?$TypedObject@VD3D9Device@hk@csgo@aw@@VModuleBase@4@@4@@aw@@UAEPAXI@Z 10080580 f i csgo-hk-x86:d3d9device.obj
 0001:0007f580       ??_G?$ModuleBaseImpl@VD3D9Device@hk@csgo@aw@@V?$TypedObject@VD3D9Device@hk@csgo@aw@@VModuleBase@4@@4@@aw@@UAEPAXI@Z 10080580 f i csgo-hk-x86:d3d9device.obj
 0001:0007f5b0       ??_ED3D9Device@impl@hk@csgo@aw@@UAEPAXI@Z 100805b0 f i csgo-hk-x86:d3d9device.obj
 0001:0007f5b0       ??_GD3D9Device@impl@hk@csgo@aw@@UAEPAXI@Z 100805b0 f i csgo-hk-x86:d3d9device.obj
 0001:0007f5e0       ??_ED3D9EndScene@impl@hk@csgo@aw@@UAEPAXI@Z 100805e0 f i csgo-hk-x86:d3d9device.obj
 0001:0007f5e0       ??_GD3D9EndScene@impl@hk@csgo@aw@@UAEPAXI@Z 100805e0 f i csgo-hk-x86:d3d9device.obj
 0001:0007f610       ??_ED3D9Reset@impl@hk@csgo@aw@@UAEPAXI@Z 10080610 f i csgo-hk-x86:d3d9device.obj
 0001:0007f610       ??_GD3D9Reset@impl@hk@csgo@aw@@UAEPAXI@Z 10080610 f i csgo-hk-x86:d3d9device.obj
 0001:0007f640       ?CreateModule@?$ModuleWithFactory@VD3D9Device@hk@csgo@aw@@@aw@@SAPAVD3D9Device@hk@csgo@2@XZ 10080640 f   csgo-hk-x86:d3d9device.obj
 0001:0007f670       ?GetFrameTime@D3D9Device@impl@hk@csgo@aw@@UAEMXZ 10080670 f i csgo-hk-x86:d3d9device.obj
 0001:0007f680       ?GetId@?$TypedObject@UD3D9EndScene@impl@hk@csgo@aw@@UCallbackVars@5@@aw@@UAEIXZ 10080680 f i csgo-hk-x86:d3d9device.obj
 0001:0007f690       ?GetId@?$TypedObject@UD3D9Reset@impl@hk@csgo@aw@@UCallbackVars@5@@aw@@UAEIXZ 10080690 f i csgo-hk-x86:d3d9device.obj
 0001:0007f6a0       ?GetId@?$TypedObject@VD3D9Device@hk@csgo@aw@@VModuleBase@4@@aw@@UAEIXZ 100806a0 f i csgo-hk-x86:d3d9device.obj
 0001:0007f6b0       ?HkEndScene@D3D9Device@impl@hk@csgo@aw@@KGJPAUIDirect3DDevice9@@@Z 100806b0 f   csgo-hk-x86:d3d9device.obj
 0001:0007f6f0       ?HkReset@D3D9Device@impl@hk@csgo@aw@@KGJPAUIDirect3DDevice9@@PAU_D3DPRESENT_PARAMETERS_@@@Z 100806f0 f   csgo-hk-x86:d3d9device.obj
 0001:0007f730       ?OnEndScene@D3D9Device@impl@hk@csgo@aw@@IAEXAAUD3D9EndScene@2345@@Z 10080730 f   csgo-hk-x86:d3d9device.obj
 0001:0007f7e0       ?OnHook@D3D9Device@impl@hk@csgo@aw@@IAEXAAUCommonHook@5@@Z 100807e0 f   csgo-hk-x86:d3d9device.obj
 0001:0007f830       ?OnInit@D3D9Device@impl@hk@csgo@aw@@IAEXAAUCommonInit@5@@Z 10080830 f   csgo-hk-x86:d3d9device.obj
 0001:0007f900       ?OnReset@D3D9Device@impl@hk@csgo@aw@@IAEXAAUD3D9Reset@2345@@Z 10080900 f   csgo-hk-x86:d3d9device.obj
 0001:0007f930       ?OnUnhook@D3D9Device@impl@hk@csgo@aw@@IAEXAAUCommonUnhook@5@@Z 10080930 f   csgo-hk-x86:d3d9device.obj
 0001:0007f940       ??_E?$ModuleBaseImpl@VRender@hk@csgo@aw@@V?$TypedObject@VRender@hk@csgo@aw@@VModuleBase@4@@4@@aw@@UAEPAXI@Z 10080940 f i csgo-hk-x86:render.obj
 0001:0007f940       ??_G?$ModuleBaseImpl@VRender@hk@csgo@aw@@V?$TypedObject@VRender@hk@csgo@aw@@VModuleBase@4@@4@@aw@@UAEPAXI@Z 10080940 f i csgo-hk-x86:render.obj
 0001:0007f970       ??_EDrawWorldLists@hk@csgo@aw@@UAEPAXI@Z 10080970 f i csgo-hk-x86:render.obj
 0001:0007f970       ??_GDrawWorldLists@hk@csgo@aw@@UAEPAXI@Z 10080970 f i csgo-hk-x86:render.obj
 0001:0007f9a0       ??_EFrameEnd@hk@csgo@aw@@UAEPAXI@Z 100809a0 f i csgo-hk-x86:render.obj
 0001:0007f9a0       ??_GFrameEnd@hk@csgo@aw@@UAEPAXI@Z 100809a0 f i csgo-hk-x86:render.obj
 0001:0007f9d0       ??_ERender@impl@hk@csgo@aw@@UAEPAXI@Z 100809d0 f i csgo-hk-x86:render.obj
 0001:0007f9d0       ??_GRender@impl@hk@csgo@aw@@UAEPAXI@Z 100809d0 f i csgo-hk-x86:render.obj
 0001:0007fa00       ?CreateModule@?$ModuleWithFactory@VRender@hk@csgo@aw@@@aw@@SAPAVRender@hk@csgo@2@XZ 10080a00 f   csgo-hk-x86:render.obj
 0001:0007fb50       ?GetId@?$TypedObject@UDrawWorldLists@hk@csgo@aw@@UCallbackVars@4@@aw@@UAEIXZ 10080b50 f i csgo-hk-x86:render.obj
 0001:0007fb60       ?GetId@?$TypedObject@UFrameEnd@hk@csgo@aw@@UCallbackVars@4@@aw@@UAEIXZ 10080b60 f i csgo-hk-x86:render.obj
 0001:0007fb70       ?GetId@?$TypedObject@VRender@hk@csgo@aw@@VModuleBase@4@@aw@@UAEIXZ 10080b70 f i csgo-hk-x86:render.obj
 0001:0007fb80       ?HkDrawWorldLists@Render@impl@hk@csgo@aw@@KIXPAV1sdk@45@HPAVMatRenderContext@645@PAVWorldRenderList@645@IM@Z 10080b80 f   csgo-hk-x86:render.obj
 0001:0007fbd0       ?HkFrameEnd@Render@impl@hk@csgo@aw@@KIXPAV1sdk@45@H@Z 10080bd0 f   csgo-hk-x86:render.obj
 0001:0007fbf0       ?OnDrawWorldLists@Render@impl@hk@csgo@aw@@IAEXAAUDrawWorldLists@345@@Z 10080bf0 f   csgo-hk-x86:render.obj
 0001:0007fc20       ?OnFrameEnd@Render@impl@hk@csgo@aw@@IAEXAAUFrameEnd@345@@Z 10080c20 f   csgo-hk-x86:render.obj
 0001:0007fc30       ?OnHook@Render@impl@hk@csgo@aw@@IAEXAAUCommonHook@5@@Z 10080c30 f   csgo-hk-x86:render.obj
 0001:0007fcf0       ?OnUnhook@Render@impl@hk@csgo@aw@@IAEXAAUCommonUnhook@5@@Z 10080cf0 f   csgo-hk-x86:render.obj
 0001:0007fd00       ??0BaseClientState@impl@hk@csgo@aw@@QAE@XZ 10080d00 f i csgo-hk-x86:baseclientstate.obj
 0001:0007feb0       ??_E?$ModuleBaseImpl@VBaseClientState@hk@csgo@aw@@V?$TypedObject@VBaseClientState@hk@csgo@aw@@VModuleBase@4@@4@@aw@@UAEPAXI@Z 10080eb0 f i csgo-hk-x86:baseclientstate.obj
 0001:0007feb0       ??_G?$ModuleBaseImpl@VBaseClientState@hk@csgo@aw@@V?$TypedObject@VBaseClientState@hk@csgo@aw@@VModuleBase@4@@4@@aw@@UAEPAXI@Z 10080eb0 f i csgo-hk-x86:baseclientstate.obj
 0001:0007fee0       ??_EBaseClientState@impl@hk@csgo@aw@@UAEPAXI@Z 10080ee0 f i csgo-hk-x86:baseclientstate.obj
 0001:0007fee0       ??_GBaseClientState@impl@hk@csgo@aw@@UAEPAXI@Z 10080ee0 f i csgo-hk-x86:baseclientstate.obj
 0001:0007ff10       ??_EConnectionStart@hk@csgo@aw@@UAEPAXI@Z 10080f10 f i csgo-hk-x86:baseclientstate.obj
 0001:0007ff10       ??_GConnectionStart@hk@csgo@aw@@UAEPAXI@Z 10080f10 f i csgo-hk-x86:baseclientstate.obj
 0001:0007ff40       ??_EPacketEnd@hk@csgo@aw@@UAEPAXI@Z 10080f40 f i csgo-hk-x86:baseclientstate.obj
 0001:0007ff40       ??_GPacketEnd@hk@csgo@aw@@UAEPAXI@Z 10080f40 f i csgo-hk-x86:baseclientstate.obj
 0001:0007ff70       ??_EPacketStart@hk@csgo@aw@@UAEPAXI@Z 10080f70 f i csgo-hk-x86:baseclientstate.obj
 0001:0007ff70       ??_GPacketStart@hk@csgo@aw@@UAEPAXI@Z 10080f70 f i csgo-hk-x86:baseclientstate.obj
 0001:0007ffa0       ??_EReadPacketEntities@hk@csgo@aw@@UAEPAXI@Z 10080fa0 f i csgo-hk-x86:baseclientstate.obj
 0001:0007ffa0       ??_GReadPacketEntities@hk@csgo@aw@@UAEPAXI@Z 10080fa0 f i csgo-hk-x86:baseclientstate.obj
 0001:0007ffd0       ?CreateModule@?$ModuleWithFactory@VBaseClientState@hk@csgo@aw@@@aw@@SAPAVBaseClientState@hk@csgo@2@XZ 10080fd0 f   csgo-hk-x86:baseclientstate.obj
 0001:00080000       ?GetId@?$TypedObject@UConnectionStart@hk@csgo@aw@@UCallbackVars@4@@aw@@UAEIXZ 10081000 f i csgo-hk-x86:baseclientstate.obj
 0001:00080010       ?GetId@?$TypedObject@UPacketEnd@hk@csgo@aw@@UCallbackVars@4@@aw@@UAEIXZ 10081010 f i csgo-hk-x86:baseclientstate.obj
 0001:00080020       ?GetId@?$TypedObject@UPacketStart@hk@csgo@aw@@UCallbackVars@4@@aw@@UAEIXZ 10081020 f i csgo-hk-x86:baseclientstate.obj
 0001:00080030       ?GetId@?$TypedObject@UReadPacketEntities@hk@csgo@aw@@UCallbackVars@4@@aw@@UAEIXZ 10081030 f i csgo-hk-x86:baseclientstate.obj
 0001:00080040       ?GetId@?$TypedObject@VBaseClientState@hk@csgo@aw@@VModuleBase@4@@aw@@UAEIXZ 10081040 f i csgo-hk-x86:baseclientstate.obj
 0001:00080050       ?HkConnectionStart@BaseClientState@impl@hk@csgo@aw@@KIXPAXHPAVNetChan@sdk@45@@Z 10081050 f   csgo-hk-x86:baseclientstate.obj
 0001:00080080       ?HkPacketEnd@BaseClientState@impl@hk@csgo@aw@@KIXPAXH@Z 10081080 f   csgo-hk-x86:baseclientstate.obj
 0001:000800b0       ?HkPacketStart@BaseClientState@impl@hk@csgo@aw@@KIXPAXHHH@Z 100810b0 f   csgo-hk-x86:baseclientstate.obj
 0001:000800f0       ?HkReadPacketEntities@BaseClientState@impl@hk@csgo@aw@@KIXPAXH0@Z 100810f0 f   csgo-hk-x86:baseclientstate.obj
 0001:00080120       ?OnConnectionStart@BaseClientState@impl@hk@csgo@aw@@IAEXAAUConnectionStart@345@@Z 10081120 f   csgo-hk-x86:baseclientstate.obj
 0001:00080140       ?OnHook@BaseClientState@impl@hk@csgo@aw@@IAEXAAUCommonHook@5@@Z 10081140 f   csgo-hk-x86:baseclientstate.obj
 0001:000801b0       ?OnPacketEnd@BaseClientState@impl@hk@csgo@aw@@IAEXAAUPacketEnd@345@@Z 100811b0 f   csgo-hk-x86:baseclientstate.obj
 0001:000801d0       ?OnPacketStart@BaseClientState@impl@hk@csgo@aw@@IAEXAAUPacketStart@345@@Z 100811d0 f   csgo-hk-x86:baseclientstate.obj
 0001:00080200       ?OnReadPacketEntities@BaseClientState@impl@hk@csgo@aw@@IAEXAAUReadPacketEntities@345@@Z 10081200 f   csgo-hk-x86:baseclientstate.obj
 0001:00080220       ?OnUnhook@BaseClientState@impl@hk@csgo@aw@@IAEXAAUCommonUnhook@5@@Z 10081220 f   csgo-hk-x86:baseclientstate.obj
 0001:00080230       ??$_Resize_reallocate@U_Value_init_tag@std@@@?$vector@VVTable@hk@aw@@V?$allocator@VVTable@hk@aw@@@std@@@std@@AAEXIABU_Value_init_tag@1@@Z 10081230 f i csgo-hk-x86:netchan.obj
 0001:00080370       ??$_Uninitialized_value_construct_n@V?$allocator@VVTable@hk@aw@@@std@@@std@@YAPAVVTable@hk@aw@@PAV123@IAAV?$allocator@VVTable@hk@aw@@@0@@Z 10081370 f i csgo-hk-x86:netchan.obj
 0001:000803b0       ??0NetChan@hk@csgo@aw@@QAE@XZ 100813b0 f   csgo-hk-x86:netchan.obj
 0001:000805e0       ??_E?$ModuleBaseImpl@VNetChan@hk@csgo@aw@@V?$TypedObject@VNetChan@hk@csgo@aw@@VModuleBase@4@@4@@aw@@UAEPAXI@Z 100815e0 f i csgo-hk-x86:netchan.obj
 0001:000805e0       ??_G?$ModuleBaseImpl@VNetChan@hk@csgo@aw@@V?$TypedObject@VNetChan@hk@csgo@aw@@VModuleBase@4@@4@@aw@@UAEPAXI@Z 100815e0 f i csgo-hk-x86:netchan.obj
 0001:00080610       ??_ENetChan@hk@csgo@aw@@UAEPAXI@Z 10081610 f i csgo-hk-x86:netchan.obj
 0001:00080610       ??_GNetChan@hk@csgo@aw@@UAEPAXI@Z 10081610 f i csgo-hk-x86:netchan.obj
 0001:00080690       ??_ENetChannelCreated@hk@csgo@aw@@UAEPAXI@Z 10081690 f i csgo-hk-x86:netchan.obj
 0001:00080690       ??_GNetChannelCreated@hk@csgo@aw@@UAEPAXI@Z 10081690 f i csgo-hk-x86:netchan.obj
 0001:000806c0       ??_EParseNetMsg@hk@csgo@aw@@UAEPAXI@Z 100816c0 f i csgo-hk-x86:netchan.obj
 0001:000806c0       ??_GParseNetMsg@hk@csgo@aw@@UAEPAXI@Z 100816c0 f i csgo-hk-x86:netchan.obj
 0001:000806f0       ??_EProcessPacket@hk@csgo@aw@@UAEPAXI@Z 100816f0 f i csgo-hk-x86:netchan.obj
 0001:000806f0       ??_GProcessPacket@hk@csgo@aw@@UAEPAXI@Z 100816f0 f i csgo-hk-x86:netchan.obj
 0001:00080720       ??_ESendDatagram@hk@csgo@aw@@UAEPAXI@Z 10081720 f i csgo-hk-x86:netchan.obj
 0001:00080720       ??_GSendDatagram@hk@csgo@aw@@UAEPAXI@Z 10081720 f i csgo-hk-x86:netchan.obj
 0001:00080750       ??_ESendNetMsg@hk@csgo@aw@@UAEPAXI@Z 10081750 f i csgo-hk-x86:netchan.obj
 0001:00080750       ??_GSendNetMsg@hk@csgo@aw@@UAEPAXI@Z 10081750 f i csgo-hk-x86:netchan.obj
 0001:00080780       ?GetId@?$TypedObject@UNetChannelCreated@hk@csgo@aw@@UCallbackVars@4@@aw@@UAEIXZ 10081780 f i csgo-hk-x86:netchan.obj
 0001:00080790       ?GetId@?$TypedObject@UParseNetMsg@hk@csgo@aw@@UCallbackVars@4@@aw@@UAEIXZ 10081790 f i csgo-hk-x86:netchan.obj
 0001:000807a0       ?GetId@?$TypedObject@UProcessPacket@hk@csgo@aw@@UCallbackVars@4@@aw@@UAEIXZ 100817a0 f i csgo-hk-x86:netchan.obj
 0001:000807b0       ?GetId@?$TypedObject@USendDatagram@hk@csgo@aw@@UCallbackVars@4@@aw@@UAEIXZ 100817b0 f i csgo-hk-x86:netchan.obj
 0001:000807c0       ?GetId@?$TypedObject@USendNetMsg@hk@csgo@aw@@UCallbackVars@4@@aw@@UAEIXZ 100817c0 f i csgo-hk-x86:netchan.obj
 0001:000807d0       ?GetId@?$TypedObject@VNetChan@hk@csgo@aw@@VModuleBase@4@@aw@@UAEIXZ 100817d0 f i csgo-hk-x86:netchan.obj
 0001:000807e0       ?HkCreateFromBuffer@NetChan@hk@csgo@aw@@KIPAVNetMessage@sdk@34@PAVNetMessageBinder@634@HPAVbf_read@634@@Z 100817e0 f   csgo-hk-x86:netchan.obj
 0001:00080820       ?HkProcessPacket@NetChan@hk@csgo@aw@@KIXPAV1sdk@34@HPAX_N@Z 10081820 f   csgo-hk-x86:netchan.obj
 0001:00080860       ?HkSendDatagram@NetChan@hk@csgo@aw@@KIHPAV1sdk@34@HPAX@Z 10081860 f   csgo-hk-x86:netchan.obj
 0001:000808b0       ?HkSendNetMsg@NetChan@hk@csgo@aw@@KI_NPAV1sdk@34@HPAVNetMessage@534@_N2@Z 100818b0 f   csgo-hk-x86:netchan.obj
 0001:00080900       ?HookNetChan@NetChan@hk@csgo@aw@@IAEXPAV1sdk@34@@Z 10081900 f   csgo-hk-x86:netchan.obj
 0001:00080a60       ?OnConnectionStart@NetChan@hk@csgo@aw@@IAEXAAUConnectionStart@234@@Z 10081a60 f   csgo-hk-x86:netchan.obj
 0001:00080a70       ?OnFrameEnd@NetChan@hk@csgo@aw@@IAEXAAUFrameEnd@234@@Z 10081a70 f   csgo-hk-x86:netchan.obj
 0001:00080a80       ?OnHook@NetChan@hk@csgo@aw@@IAEXAAUCommonHook@4@@Z 10081a80 f   csgo-hk-x86:netchan.obj
 0001:00080a90       ?OnParseNetMsg@NetChan@hk@csgo@aw@@IAEXAAUParseNetMsg@234@@Z 10081a90 f   csgo-hk-x86:netchan.obj
 0001:00080ad0       ?OnProcessPacket@NetChan@hk@csgo@aw@@IAEXAAUProcessPacket@234@@Z 10081ad0 f   csgo-hk-x86:netchan.obj
 0001:00080af0       ?OnSendDatagram@NetChan@hk@csgo@aw@@IAEXAAUSendDatagram@234@@Z 10081af0 f   csgo-hk-x86:netchan.obj
 0001:00080b10       ?OnSendNetMsg@NetChan@hk@csgo@aw@@IAEXAAUSendNetMsg@234@@Z 10081b10 f   csgo-hk-x86:netchan.obj
 0001:00080b40       ?OnUnhook@NetChan@hk@csgo@aw@@IAEXAAUCommonUnhook@4@@Z 10081b40 f   csgo-hk-x86:netchan.obj
 0001:00080b80       ?Rehook@NetChan@hk@csgo@aw@@QAEX_N@Z 10081b80 f   csgo-hk-x86:netchan.obj
 0001:00080c00       ?_Xlength@?$vector@VVTable@hk@aw@@V?$allocator@VVTable@hk@aw@@@std@@@std@@CAXXZ 10081c00 f i csgo-hk-x86:netchan.obj
 0001:00080c10       ??$FindModule@VInputBase@hk@aw@@@ModuleMgr@aw@@QAEPAVInputBase@hk@1@_N@Z 10081c10 f i csgo-hk-x86:vgui_surface.obj
 0001:00080ce0       ??_E?$ModuleBaseImpl@VVGuiSurface@hk@csgo@aw@@V?$TypedObject@VVGuiSurface@hk@csgo@aw@@VModuleBase@4@@4@@aw@@UAEPAXI@Z 10081ce0 f i csgo-hk-x86:vgui_surface.obj
 0001:00080ce0       ??_G?$ModuleBaseImpl@VVGuiSurface@hk@csgo@aw@@V?$TypedObject@VVGuiSurface@hk@csgo@aw@@VModuleBase@4@@4@@aw@@UAEPAXI@Z 10081ce0 f i csgo-hk-x86:vgui_surface.obj
 0001:00080d10       ??_EDrawSetColor@hk@csgo@aw@@UAEPAXI@Z 10081d10 f i csgo-hk-x86:vgui_surface.obj
 0001:00080d10       ??_GDrawSetColor@hk@csgo@aw@@UAEPAXI@Z 10081d10 f i csgo-hk-x86:vgui_surface.obj
 0001:00080d40       ??_ELockCursor@hk@csgo@aw@@UAEPAXI@Z 10081d40 f i csgo-hk-x86:vgui_surface.obj
 0001:00080d40       ??_GLockCursor@hk@csgo@aw@@UAEPAXI@Z 10081d40 f i csgo-hk-x86:vgui_surface.obj
 0001:00080d70       ??_EVGuiSurface@impl@hk@csgo@aw@@UAEPAXI@Z 10081d70 f i csgo-hk-x86:vgui_surface.obj
 0001:00080d70       ??_GVGuiSurface@impl@hk@csgo@aw@@UAEPAXI@Z 10081d70 f i csgo-hk-x86:vgui_surface.obj
 0001:00080da0       ?CreateModule@?$ModuleWithFactory@VVGuiSurface@hk@csgo@aw@@@aw@@SAPAVVGuiSurface@hk@csgo@2@XZ 10081da0 f   csgo-hk-x86:vgui_surface.obj
 0001:00080f10       ?Get@VGuiSurface@sdk@csgo@aw@@SAPAV1234@XZ 10081f10 f i csgo-hk-x86:vgui_surface.obj
 0001:00080f20       ?GetDynamic@VGuiSurface@sdk@csgo@aw@@SAPAV1234@XZ 10081f20 f i csgo-hk-x86:vgui_surface.obj
 0001:00080f40       ?GetId@?$TypedObject@UDrawSetColor@hk@csgo@aw@@UCallbackVars@4@@aw@@UAEIXZ 10081f40 f i csgo-hk-x86:vgui_surface.obj
 0001:00080f50       ?GetId@?$TypedObject@ULockCursor@hk@csgo@aw@@UCallbackVars@4@@aw@@UAEIXZ 10081f50 f i csgo-hk-x86:vgui_surface.obj
 0001:00080f60       ?GetId@?$TypedObject@VVGuiSurface@hk@csgo@aw@@VModuleBase@4@@aw@@UAEIXZ 10081f60 f i csgo-hk-x86:vgui_surface.obj
 0001:00080f70       ?HkDrawSetColor@VGuiSurface@impl@hk@csgo@aw@@KIXPAV1sdk@45@HHHHH@Z 10081f70 f   csgo-hk-x86:vgui_surface.obj
 0001:00080fc0       ?HkLockCursor@VGuiSurface@impl@hk@csgo@aw@@KIXPAV1sdk@45@@Z 10081fc0 f   csgo-hk-x86:vgui_surface.obj
 0001:00080fe0       ?OnDrawSetColor@VGuiSurface@impl@hk@csgo@aw@@IAEXAAUDrawSetColor@345@@Z 10081fe0 f   csgo-hk-x86:vgui_surface.obj
 0001:00081010       ?OnHook@VGuiSurface@impl@hk@csgo@aw@@IAEXAAUCommonHook@5@@Z 10082010 f   csgo-hk-x86:vgui_surface.obj
 0001:00081060       ?OnLockCursor@VGuiSurface@impl@hk@csgo@aw@@IAEXAAULockCursor@345@@Z 10082060 f   csgo-hk-x86:vgui_surface.obj
 0001:000810c0       ?OnUnhook@VGuiSurface@impl@hk@csgo@aw@@IAEXAAUCommonUnhook@5@@Z 100820c0 f   csgo-hk-x86:vgui_surface.obj
 0001:000810d0       ??_E?$ModuleBaseImpl@VStudioRender@hk@csgo@aw@@V?$TypedObject@VStudioRender@hk@csgo@aw@@VModuleBase@4@@4@@aw@@UAEPAXI@Z 100820d0 f i csgo-hk-x86:studiorender.obj
 0001:000810d0       ??_G?$ModuleBaseImpl@VStudioRender@hk@csgo@aw@@V?$TypedObject@VStudioRender@hk@csgo@aw@@VModuleBase@4@@4@@aw@@UAEPAXI@Z 100820d0 f i csgo-hk-x86:studiorender.obj
 0001:00081100       ??_EDrawModel@hk@csgo@aw@@UAEPAXI@Z 10082100 f i csgo-hk-x86:studiorender.obj
 0001:00081100       ??_GDrawModel@hk@csgo@aw@@UAEPAXI@Z 10082100 f i csgo-hk-x86:studiorender.obj
 0001:00081130       ??_EStudioRender@impl@hk@csgo@aw@@UAEPAXI@Z 10082130 f i csgo-hk-x86:studiorender.obj
 0001:00081130       ??_GStudioRender@impl@hk@csgo@aw@@UAEPAXI@Z 10082130 f i csgo-hk-x86:studiorender.obj
 0001:00081160       ?CreateModule@?$ModuleWithFactory@VStudioRender@hk@csgo@aw@@@aw@@SAPAVStudioRender@hk@csgo@2@XZ 10082160 f   csgo-hk-x86:studiorender.obj
 0001:000812a0       ?GetId@?$TypedObject@UDrawModel@hk@csgo@aw@@UCallbackVars@4@@aw@@UAEIXZ 100822a0 f i csgo-hk-x86:studiorender.obj
 0001:000812b0       ?GetId@?$TypedObject@VStudioRender@hk@csgo@aw@@VModuleBase@4@@aw@@UAEIXZ 100822b0 f i csgo-hk-x86:studiorender.obj
 0001:000812c0       ?GetOrgDrawModel@StudioRender@impl@hk@csgo@aw@@UAEP6IXPAV1sdk@45@HPAXPAUDrawModelInfo@645@PAVMatrix3x4@5@HHABVVector3@5@H@ZXZ 100822c0 f i csgo-hk-x86:studiorender.obj
 0001:000812d0       ?HkDrawModel@StudioRender@impl@hk@csgo@aw@@KIXPAV1sdk@45@HPAXPAUDrawModelInfo@645@PAVMatrix3x4@5@HHABVVector3@5@H@Z 100822d0 f   csgo-hk-x86:studiorender.obj
 0001:00081350       ?OnDrawModel@StudioRender@impl@hk@csgo@aw@@IAEXAAUDrawModel@345@@Z 10082350 f   csgo-hk-x86:studiorender.obj
 0001:00081380       ?OnHook@StudioRender@impl@hk@csgo@aw@@IAEXAAUCommonHook@5@@Z 10082380 f   csgo-hk-x86:studiorender.obj
 0001:000813b0       ?OnUnhook@StudioRender@impl@hk@csgo@aw@@IAEXAAUCommonUnhook@5@@Z 100823b0 f   csgo-hk-x86:studiorender.obj
 0001:000813c0       ??$OnAnimLayerChanged@ULayerCycle@impl@hk@csgo@aw@@@RecvProxies@impl@hk@csgo@aw@@IAEXAAULayerCycle@1234@@Z 100823c0 f i csgo-hk-x86:recvproxy.obj
 0001:00081400       ??$OnAnimLayerChanged@ULayerOrder@impl@hk@csgo@aw@@@RecvProxies@impl@hk@csgo@aw@@IAEXAAULayerOrder@1234@@Z 10082400 f i csgo-hk-x86:recvproxy.obj
 0001:00081440       ??$OnAnimLayerChanged@ULayerPlaybackRate@impl@hk@csgo@aw@@@RecvProxies@impl@hk@csgo@aw@@IAEXAAULayerPlaybackRate@1234@@Z 10082440 f i csgo-hk-x86:recvproxy.obj
 0001:00081480       ??$OnAnimLayerChanged@ULayerPrevCycle@impl@hk@csgo@aw@@@RecvProxies@impl@hk@csgo@aw@@IAEXAAULayerPrevCycle@1234@@Z 10082480 f i csgo-hk-x86:recvproxy.obj
 0001:000814c0       ??$OnAnimLayerChanged@ULayerSequence@impl@hk@csgo@aw@@@RecvProxies@impl@hk@csgo@aw@@IAEXAAULayerSequence@1234@@Z 100824c0 f i csgo-hk-x86:recvproxy.obj
 0001:00081500       ??$OnAnimLayerChanged@ULayerWeight@impl@hk@csgo@aw@@@RecvProxies@impl@hk@csgo@aw@@IAEXAAULayerWeight@1234@@Z 10082500 f i csgo-hk-x86:recvproxy.obj
 0001:00081540       ??$OnAnimLayerChanged@ULayerWeightDeltaRate@impl@hk@csgo@aw@@@RecvProxies@impl@hk@csgo@aw@@IAEXAAULayerWeightDeltaRate@1234@@Z 10082540 f i csgo-hk-x86:recvproxy.obj
 0001:00081580       ??0RecvProxies@impl@hk@csgo@aw@@QAE@XZ 10082580 f i csgo-hk-x86:recvproxy.obj
 0001:00081990       ??_E?$ModuleBaseImpl@VRecvProxies@hk@csgo@aw@@V?$TypedObject@VRecvProxies@hk@csgo@aw@@VModuleBase@4@@4@@aw@@UAEPAXI@Z 10082990 f i csgo-hk-x86:recvproxy.obj
 0001:00081990       ??_G?$ModuleBaseImpl@VRecvProxies@hk@csgo@aw@@V?$TypedObject@VRecvProxies@hk@csgo@aw@@VModuleBase@4@@4@@aw@@UAEPAXI@Z 10082990 f i csgo-hk-x86:recvproxy.obj
 0001:000819c0       ??_EAnimLayerVar@hk@csgo@aw@@UAEPAXI@Z 100829c0 f i csgo-hk-x86:recvproxy.obj
 0001:000819c0       ??_GAnimLayerVar@hk@csgo@aw@@UAEPAXI@Z 100829c0 f i csgo-hk-x86:recvproxy.obj
 0001:000819f0       ??_EBaseViewModelSequence@hk@csgo@aw@@UAEPAXI@Z 100829f0 f i csgo-hk-x86:recvproxy.obj
 0001:000819f0       ??_GBaseViewModelSequence@hk@csgo@aw@@UAEPAXI@Z 100829f0 f i csgo-hk-x86:recvproxy.obj
 0001:00081a20       ??_EFlashDuration@hk@csgo@aw@@UAEPAXI@Z 10082a20 f i csgo-hk-x86:recvproxy.obj
 0001:00081a20       ??_GFlashDuration@hk@csgo@aw@@UAEPAXI@Z 10082a20 f i csgo-hk-x86:recvproxy.obj
 0001:00081a50       ??_EGroundAccelLinearFracLastTime@hk@csgo@aw@@UAEPAXI@Z 10082a50 f i csgo-hk-x86:recvproxy.obj
 0001:00081a50       ??_GGroundAccelLinearFracLastTime@hk@csgo@aw@@UAEPAXI@Z 10082a50 f i csgo-hk-x86:recvproxy.obj
 0001:00081a80       ??_ELayerCycle@impl@hk@csgo@aw@@UAEPAXI@Z 10082a80 f i csgo-hk-x86:recvproxy.obj
 0001:00081a80       ??_GLayerCycle@impl@hk@csgo@aw@@UAEPAXI@Z 10082a80 f i csgo-hk-x86:recvproxy.obj
 0001:00081ab0       ??_ELayerOrder@impl@hk@csgo@aw@@UAEPAXI@Z 10082ab0 f i csgo-hk-x86:recvproxy.obj
 0001:00081ab0       ??_GLayerOrder@impl@hk@csgo@aw@@UAEPAXI@Z 10082ab0 f i csgo-hk-x86:recvproxy.obj
 0001:00081ae0       ??_ELayerPlaybackRate@impl@hk@csgo@aw@@UAEPAXI@Z 10082ae0 f i csgo-hk-x86:recvproxy.obj
 0001:00081ae0       ??_GLayerPlaybackRate@impl@hk@csgo@aw@@UAEPAXI@Z 10082ae0 f i csgo-hk-x86:recvproxy.obj
 0001:00081b10       ??_ELayerPrevCycle@impl@hk@csgo@aw@@UAEPAXI@Z 10082b10 f i csgo-hk-x86:recvproxy.obj
 0001:00081b10       ??_GLayerPrevCycle@impl@hk@csgo@aw@@UAEPAXI@Z 10082b10 f i csgo-hk-x86:recvproxy.obj
 0001:00081b40       ??_ELayerSequence@impl@hk@csgo@aw@@UAEPAXI@Z 10082b40 f i csgo-hk-x86:recvproxy.obj
 0001:00081b40       ??_GLayerSequence@impl@hk@csgo@aw@@UAEPAXI@Z 10082b40 f i csgo-hk-x86:recvproxy.obj
 0001:00081b70       ??_ELayerWeight@impl@hk@csgo@aw@@UAEPAXI@Z 10082b70 f i csgo-hk-x86:recvproxy.obj
 0001:00081b70       ??_GLayerWeight@impl@hk@csgo@aw@@UAEPAXI@Z 10082b70 f i csgo-hk-x86:recvproxy.obj
 0001:00081ba0       ??_ELayerWeightDeltaRate@impl@hk@csgo@aw@@UAEPAXI@Z 10082ba0 f i csgo-hk-x86:recvproxy.obj
 0001:00081ba0       ??_GLayerWeightDeltaRate@impl@hk@csgo@aw@@UAEPAXI@Z 10082ba0 f i csgo-hk-x86:recvproxy.obj
 0001:00081bd0       ??_ELowerBodyYawTarget@hk@csgo@aw@@UAEPAXI@Z 10082bd0 f i csgo-hk-x86:recvproxy.obj
 0001:00081bd0       ??_GLowerBodyYawTarget@hk@csgo@aw@@UAEPAXI@Z 10082bd0 f i csgo-hk-x86:recvproxy.obj
 0001:00081c00       ??_ERecvProxies@impl@hk@csgo@aw@@UAEPAXI@Z 10082c00 f i csgo-hk-x86:recvproxy.obj
 0001:00081c00       ??_GRecvProxies@impl@hk@csgo@aw@@UAEPAXI@Z 10082c00 f i csgo-hk-x86:recvproxy.obj
 0001:00081c30       ??_ESmokeEffectTickBegin@hk@csgo@aw@@UAEPAXI@Z 10082c30 f i csgo-hk-x86:recvproxy.obj
 0001:00081c30       ??_GSmokeEffectTickBegin@hk@csgo@aw@@UAEPAXI@Z 10082c30 f i csgo-hk-x86:recvproxy.obj
 0001:00081c60       ??_ETickBase@hk@csgo@aw@@UAEPAXI@Z 10082c60 f i csgo-hk-x86:recvproxy.obj
 0001:00081c60       ??_GTickBase@hk@csgo@aw@@UAEPAXI@Z 10082c60 f i csgo-hk-x86:recvproxy.obj
 0001:00081c90       ?CreateModule@?$ModuleWithFactory@VRecvProxies@hk@csgo@aw@@@aw@@SAPAVRecvProxies@hk@csgo@2@XZ 10082c90 f   csgo-hk-x86:recvproxy.obj
 0001:00081cc0       ?GetId@?$TypedObject@UAnimLayerVar@hk@csgo@aw@@UCallbackVars@4@@aw@@UAEIXZ 10082cc0 f i csgo-hk-x86:recvproxy.obj
 0001:00081cd0       ?GetId@?$TypedObject@UBaseViewModelSequence@hk@csgo@aw@@UCallbackVars@4@@aw@@UAEIXZ 10082cd0 f i csgo-hk-x86:recvproxy.obj
 0001:00081ce0       ?GetId@?$TypedObject@UFlashDuration@hk@csgo@aw@@UCallbackVars@4@@aw@@UAEIXZ 10082ce0 f i csgo-hk-x86:recvproxy.obj
 0001:00081cf0       ?GetId@?$TypedObject@UGroundAccelLinearFracLastTime@hk@csgo@aw@@UCallbackVars@4@@aw@@UAEIXZ 10082cf0 f i csgo-hk-x86:recvproxy.obj
 0001:00081d00       ?GetId@?$TypedObject@ULayerCycle@impl@hk@csgo@aw@@UCallbackVars@5@@aw@@UAEIXZ 10082d00 f i csgo-hk-x86:recvproxy.obj
 0001:00081d10       ?GetId@?$TypedObject@ULayerOrder@impl@hk@csgo@aw@@UCallbackVars@5@@aw@@UAEIXZ 10082d10 f i csgo-hk-x86:recvproxy.obj
 0001:00081d20       ?GetId@?$TypedObject@ULayerPlaybackRate@impl@hk@csgo@aw@@UCallbackVars@5@@aw@@UAEIXZ 10082d20 f i csgo-hk-x86:recvproxy.obj
 0001:00081d30       ?GetId@?$TypedObject@ULayerPrevCycle@impl@hk@csgo@aw@@UCallbackVars@5@@aw@@UAEIXZ 10082d30 f i csgo-hk-x86:recvproxy.obj
 0001:00081d40       ?GetId@?$TypedObject@ULayerSequence@impl@hk@csgo@aw@@UCallbackVars@5@@aw@@UAEIXZ 10082d40 f i csgo-hk-x86:recvproxy.obj
 0001:00081d50       ?GetId@?$TypedObject@ULayerWeight@impl@hk@csgo@aw@@UCallbackVars@5@@aw@@UAEIXZ 10082d50 f i csgo-hk-x86:recvproxy.obj
 0001:00081d60       ?GetId@?$TypedObject@ULayerWeightDeltaRate@impl@hk@csgo@aw@@UCallbackVars@5@@aw@@UAEIXZ 10082d60 f i csgo-hk-x86:recvproxy.obj
 0001:00081d70       ?GetId@?$TypedObject@ULowerBodyYawTarget@hk@csgo@aw@@UCallbackVars@4@@aw@@UAEIXZ 10082d70 f i csgo-hk-x86:recvproxy.obj
 0001:00081d80       ?GetId@?$TypedObject@USmokeEffectTickBegin@hk@csgo@aw@@UCallbackVars@4@@aw@@UAEIXZ 10082d80 f i csgo-hk-x86:recvproxy.obj
 0001:00081d90       ?GetId@?$TypedObject@UTickBase@hk@csgo@aw@@UCallbackVars@4@@aw@@UAEIXZ 10082d90 f i csgo-hk-x86:recvproxy.obj
 0001:00081da0       ?GetId@?$TypedObject@VRecvProxies@hk@csgo@aw@@VModuleBase@4@@aw@@UAEIXZ 10082da0 f i csgo-hk-x86:recvproxy.obj
 0001:00081db0       ?OnHook@RecvProxies@impl@hk@csgo@aw@@IAEXAAUCommonHook@5@@Z 10082db0 f   csgo-hk-x86:recvproxy.obj
 0001:00082100       ?OnUnhook@RecvProxies@impl@hk@csgo@aw@@IAEXAAUCommonUnhook@5@@Z 10083100 f   csgo-hk-x86:recvproxy.obj
 0001:00082170       ?ProxyCallback@?$RecvProxyHook@UBaseViewModelSequence@hk@csgo@aw@@@impl@hk@csgo@aw@@QAEXAAUBaseViewModelSequence@345@@Z 10083170 f i csgo-hk-x86:recvproxy.obj
 0001:00082190       ?ProxyCallback@?$RecvProxyHook@UFlashDuration@hk@csgo@aw@@@impl@hk@csgo@aw@@QAEXAAUFlashDuration@345@@Z 10083190 f i csgo-hk-x86:recvproxy.obj
 0001:000821b0       ?ProxyCallback@?$RecvProxyHook@UGroundAccelLinearFracLastTime@hk@csgo@aw@@@impl@hk@csgo@aw@@QAEXAAUGroundAccelLinearFracLastTime@345@@Z 100831b0 f i csgo-hk-x86:recvproxy.obj
 0001:000821d0       ?ProxyCallback@?$RecvProxyHook@ULayerCycle@impl@hk@csgo@aw@@@impl@hk@csgo@aw@@QAEXAAULayerCycle@2345@@Z 100831d0 f i csgo-hk-x86:recvproxy.obj
 0001:000821f0       ?ProxyCallback@?$RecvProxyHook@ULayerOrder@impl@hk@csgo@aw@@@impl@hk@csgo@aw@@QAEXAAULayerOrder@2345@@Z 100831f0 f i csgo-hk-x86:recvproxy.obj
 0001:00082210       ?ProxyCallback@?$RecvProxyHook@ULayerPlaybackRate@impl@hk@csgo@aw@@@impl@hk@csgo@aw@@QAEXAAULayerPlaybackRate@2345@@Z 10083210 f i csgo-hk-x86:recvproxy.obj
 0001:00082230       ?ProxyCallback@?$RecvProxyHook@ULayerPrevCycle@impl@hk@csgo@aw@@@impl@hk@csgo@aw@@QAEXAAULayerPrevCycle@2345@@Z 10083230 f i csgo-hk-x86:recvproxy.obj
 0001:00082250       ?ProxyCallback@?$RecvProxyHook@ULayerSequence@impl@hk@csgo@aw@@@impl@hk@csgo@aw@@QAEXAAULayerSequence@2345@@Z 10083250 f i csgo-hk-x86:recvproxy.obj
 0001:00082270       ?ProxyCallback@?$RecvProxyHook@ULayerWeight@impl@hk@csgo@aw@@@impl@hk@csgo@aw@@QAEXAAULayerWeight@2345@@Z 10083270 f i csgo-hk-x86:recvproxy.obj
 0001:00082290       ?ProxyCallback@?$RecvProxyHook@ULayerWeightDeltaRate@impl@hk@csgo@aw@@@impl@hk@csgo@aw@@QAEXAAULayerWeightDeltaRate@2345@@Z 10083290 f i csgo-hk-x86:recvproxy.obj
 0001:000822b0       ?ProxyCallback@?$RecvProxyHook@ULowerBodyYawTarget@hk@csgo@aw@@@impl@hk@csgo@aw@@QAEXAAULowerBodyYawTarget@345@@Z 100832b0 f i csgo-hk-x86:recvproxy.obj
 0001:000822d0       ?ProxyCallback@?$RecvProxyHook@USmokeEffectTickBegin@hk@csgo@aw@@@impl@hk@csgo@aw@@QAEXAAUSmokeEffectTickBegin@345@@Z 100832d0 f i csgo-hk-x86:recvproxy.obj
 0001:000822f0       ?ProxyCallback@?$RecvProxyHook@UTickBase@hk@csgo@aw@@@impl@hk@csgo@aw@@QAEXAAUTickBase@345@@Z 100832f0 f i csgo-hk-x86:recvproxy.obj
 0001:00082310       ?RunCallbacks@?$RecvProxyHook@UBaseViewModelSequence@hk@csgo@aw@@@impl@hk@csgo@aw@@SAXPAVRecvProxyData@sdk@45@PAX1@Z 10083310 f i csgo-hk-x86:recvproxy.obj
 0001:00082350       ?RunCallbacks@?$RecvProxyHook@UFlashDuration@hk@csgo@aw@@@impl@hk@csgo@aw@@SAXPAVRecvProxyData@sdk@45@PAX1@Z 10083350 f i csgo-hk-x86:recvproxy.obj
 0001:00082390       ?RunCallbacks@?$RecvProxyHook@UGroundAccelLinearFracLastTime@hk@csgo@aw@@@impl@hk@csgo@aw@@SAXPAVRecvProxyData@sdk@45@PAX1@Z 10083390 f i csgo-hk-x86:recvproxy.obj
 0001:000823d0       ?RunCallbacks@?$RecvProxyHook@ULayerCycle@impl@hk@csgo@aw@@@impl@hk@csgo@aw@@SAXPAVRecvProxyData@sdk@45@PAX1@Z 100833d0 f i csgo-hk-x86:recvproxy.obj
 0001:00082410       ?RunCallbacks@?$RecvProxyHook@ULayerOrder@impl@hk@csgo@aw@@@impl@hk@csgo@aw@@SAXPAVRecvProxyData@sdk@45@PAX1@Z 10083410 f i csgo-hk-x86:recvproxy.obj
 0001:00082450       ?RunCallbacks@?$RecvProxyHook@ULayerPlaybackRate@impl@hk@csgo@aw@@@impl@hk@csgo@aw@@SAXPAVRecvProxyData@sdk@45@PAX1@Z 10083450 f i csgo-hk-x86:recvproxy.obj
 0001:00082490       ?RunCallbacks@?$RecvProxyHook@ULayerPrevCycle@impl@hk@csgo@aw@@@impl@hk@csgo@aw@@SAXPAVRecvProxyData@sdk@45@PAX1@Z 10083490 f i csgo-hk-x86:recvproxy.obj
 0001:000824d0       ?RunCallbacks@?$RecvProxyHook@ULayerSequence@impl@hk@csgo@aw@@@impl@hk@csgo@aw@@SAXPAVRecvProxyData@sdk@45@PAX1@Z 100834d0 f i csgo-hk-x86:recvproxy.obj
 0001:00082510       ?RunCallbacks@?$RecvProxyHook@ULayerWeight@impl@hk@csgo@aw@@@impl@hk@csgo@aw@@SAXPAVRecvProxyData@sdk@45@PAX1@Z 10083510 f i csgo-hk-x86:recvproxy.obj
 0001:00082550       ?RunCallbacks@?$RecvProxyHook@ULayerWeightDeltaRate@impl@hk@csgo@aw@@@impl@hk@csgo@aw@@SAXPAVRecvProxyData@sdk@45@PAX1@Z 10083550 f i csgo-hk-x86:recvproxy.obj
 0001:00082590       ?RunCallbacks@?$RecvProxyHook@ULowerBodyYawTarget@hk@csgo@aw@@@impl@hk@csgo@aw@@SAXPAVRecvProxyData@sdk@45@PAX1@Z 10083590 f i csgo-hk-x86:recvproxy.obj
 0001:000825d0       ?RunCallbacks@?$RecvProxyHook@USmokeEffectTickBegin@hk@csgo@aw@@@impl@hk@csgo@aw@@SAXPAVRecvProxyData@sdk@45@PAX1@Z 100835d0 f i csgo-hk-x86:recvproxy.obj
 0001:00082610       ?RunCallbacks@?$RecvProxyHook@UTickBase@hk@csgo@aw@@@impl@hk@csgo@aw@@SAXPAVRecvProxyData@sdk@45@PAX1@Z 10083610 f i csgo-hk-x86:recvproxy.obj
 0001:00082650       ??_E?$ModuleBaseImpl@VGameMovement@hk@csgo@aw@@V?$TypedObject@VGameMovement@hk@csgo@aw@@VModuleBase@4@@4@@aw@@UAEPAXI@Z 10083650 f i csgo-hk-x86:gamemovement.obj
 0001:00082650       ??_G?$ModuleBaseImpl@VGameMovement@hk@csgo@aw@@V?$TypedObject@VGameMovement@hk@csgo@aw@@VModuleBase@4@@4@@aw@@UAEPAXI@Z 10083650 f i csgo-hk-x86:gamemovement.obj
 0001:00082680       ??_EGameMovement@impl@hk@csgo@aw@@UAEPAXI@Z 10083680 f i csgo-hk-x86:gamemovement.obj
 0001:00082680       ??_GGameMovement@impl@hk@csgo@aw@@UAEPAXI@Z 10083680 f i csgo-hk-x86:gamemovement.obj
 0001:000826b0       ??_EPlayerHeadCollisionUnknown@hk@csgo@aw@@UAEPAXI@Z 100836b0 f i csgo-hk-x86:gamemovement.obj
 0001:000826b0       ??_GPlayerHeadCollisionUnknown@hk@csgo@aw@@UAEPAXI@Z 100836b0 f i csgo-hk-x86:gamemovement.obj
 0001:000826e0       ??_EPlayerMove@hk@csgo@aw@@UAEPAXI@Z 100836e0 f i csgo-hk-x86:gamemovement.obj
 0001:000826e0       ??_GPlayerMove@hk@csgo@aw@@UAEPAXI@Z 100836e0 f i csgo-hk-x86:gamemovement.obj
 0001:00082710       ?CreateModule@?$ModuleWithFactory@VGameMovement@hk@csgo@aw@@@aw@@SAPAVGameMovement@hk@csgo@2@XZ 10083710 f   csgo-hk-x86:gamemovement.obj
 0001:00082870       ?GetId@?$TypedObject@UPlayerHeadCollisionUnknown@hk@csgo@aw@@UCallbackVars@4@@aw@@UAEIXZ 10083870 f i csgo-hk-x86:gamemovement.obj
 0001:00082880       ?GetId@?$TypedObject@UPlayerMove@hk@csgo@aw@@UCallbackVars@4@@aw@@UAEIXZ 10083880 f i csgo-hk-x86:gamemovement.obj
 0001:00082890       ?GetId@?$TypedObject@VGameMovement@hk@csgo@aw@@VModuleBase@4@@aw@@UAEIXZ 10083890 f i csgo-hk-x86:gamemovement.obj
 0001:000828a0       ?HkPlayerHeadCollisionUnknown@GameMovement@impl@hk@csgo@aw@@KI_NPAX@Z 100838a0 f   csgo-hk-x86:gamemovement.obj
 0001:000828d0       ?HkPlayerMove@GameMovement@impl@hk@csgo@aw@@KIXPAX@Z 100838d0 f   csgo-hk-x86:gamemovement.obj
 0001:000828f0       ?OnHook@GameMovement@impl@hk@csgo@aw@@IAEXAAUCommonHook@5@@Z 100838f0 f   csgo-hk-x86:gamemovement.obj
 0001:00082930       ?OnPlayerHeadCollisionUnknown@GameMovement@impl@hk@csgo@aw@@IAEXAAUPlayerHeadCollisionUnknown@345@@Z 10083930 f   csgo-hk-x86:gamemovement.obj
 0001:00082950       ?OnPlayerMove@GameMovement@impl@hk@csgo@aw@@IAEXAAUPlayerMove@345@@Z 10083950 f   csgo-hk-x86:gamemovement.obj
 0001:00082ad0       ?OnUnhook@GameMovement@impl@hk@csgo@aw@@IAEXAAUCommonUnhook@5@@Z 10083ad0 f   csgo-hk-x86:gamemovement.obj
 0001:00082ae0       ??_E?$ModuleBaseImpl@VPanel@hk@csgo@aw@@V?$TypedObject@VPanel@hk@csgo@aw@@VModuleBase@4@@4@@aw@@UAEPAXI@Z 10083ae0 f i csgo-hk-x86:panel.obj
 0001:00082ae0       ??_G?$ModuleBaseImpl@VPanel@hk@csgo@aw@@V?$TypedObject@VPanel@hk@csgo@aw@@VModuleBase@4@@4@@aw@@UAEPAXI@Z 10083ae0 f i csgo-hk-x86:panel.obj
 0001:00082b10       ??_EPaintTraverse@hk@csgo@aw@@UAEPAXI@Z 10083b10 f i csgo-hk-x86:panel.obj
 0001:00082b10       ??_GPaintTraverse@hk@csgo@aw@@UAEPAXI@Z 10083b10 f i csgo-hk-x86:panel.obj
 0001:00082b40       ??_EPanel@impl@hk@csgo@aw@@UAEPAXI@Z 10083b40 f i csgo-hk-x86:panel.obj
 0001:00082b40       ??_GPanel@impl@hk@csgo@aw@@UAEPAXI@Z 10083b40 f i csgo-hk-x86:panel.obj
 0001:00082b70       ?CreateModule@?$ModuleWithFactory@VPanel@hk@csgo@aw@@@aw@@SAPAVPanel@hk@csgo@2@XZ 10083b70 f   csgo-hk-x86:panel.obj
 0001:00082cb0       ?Get@Panel@sdk@csgo@aw@@SAPAV1234@XZ 10083cb0 f i csgo-hk-x86:panel.obj
 0001:00082cc0       ?GetId@?$TypedObject@UPaintTraverse@hk@csgo@aw@@UCallbackVars@4@@aw@@UAEIXZ 10083cc0 f i csgo-hk-x86:panel.obj
 0001:00082cd0       ?GetId@?$TypedObject@VPanel@hk@csgo@aw@@VModuleBase@4@@aw@@UAEIXZ 10083cd0 f i csgo-hk-x86:panel.obj
 0001:00082ce0       ?HkPaintTraverse@Panel@impl@hk@csgo@aw@@KIXPAV1sdk@45@HH_N1@Z 10083ce0 f   csgo-hk-x86:panel.obj
 0001:00082d30       ?OnHook@Panel@impl@hk@csgo@aw@@IAEXAAUCommonHook@5@@Z 10083d30 f   csgo-hk-x86:panel.obj
 0001:00082d60       ?OnPaintTraverse@Panel@impl@hk@csgo@aw@@IAEXAAUPaintTraverse@345@@Z 10083d60 f   csgo-hk-x86:panel.obj
 0001:00082d90       ?OnUnhook@Panel@impl@hk@csgo@aw@@IAEXAAUCommonUnhook@5@@Z 10083d90 f   csgo-hk-x86:panel.obj
 0001:00082da0       ??_E?$ModuleBaseImpl@VGameRules@hk@csgo@aw@@V?$TypedObject@VGameRules@hk@csgo@aw@@VModuleBase@4@@4@@aw@@UAEPAXI@Z 10083da0 f i csgo-hk-x86:gamerules.obj
 0001:00082da0       ??_G?$ModuleBaseImpl@VGameRules@hk@csgo@aw@@V?$TypedObject@VGameRules@hk@csgo@aw@@VModuleBase@4@@4@@aw@@UAEPAXI@Z 10083da0 f i csgo-hk-x86:gamerules.obj
 0001:00082dd0       ??_EAllowThirdPersonCamera@hk@csgo@aw@@UAEPAXI@Z 10083dd0 f i csgo-hk-x86:gamerules.obj
 0001:00082dd0       ??_GAllowThirdPersonCamera@hk@csgo@aw@@UAEPAXI@Z 10083dd0 f i csgo-hk-x86:gamerules.obj
 0001:00082e00       ??_EGameRules@impl@hk@csgo@aw@@UAEPAXI@Z 10083e00 f i csgo-hk-x86:gamerules.obj
 0001:00082e00       ??_GGameRules@impl@hk@csgo@aw@@UAEPAXI@Z 10083e00 f i csgo-hk-x86:gamerules.obj
 0001:00082e30       ?CreateModule@?$ModuleWithFactory@VGameRules@hk@csgo@aw@@@aw@@SAPAVGameRules@hk@csgo@2@XZ 10083e30 f   csgo-hk-x86:gamerules.obj
 0001:00082fa0       ?GetId@?$TypedObject@UAllowThirdPersonCamera@hk@csgo@aw@@UCallbackVars@4@@aw@@UAEIXZ 10083fa0 f i csgo-hk-x86:gamerules.obj
 0001:00082fb0       ?GetId@?$TypedObject@VGameRules@hk@csgo@aw@@VModuleBase@4@@aw@@UAEIXZ 10083fb0 f i csgo-hk-x86:gamerules.obj
 0001:00082fc0       ?HkAllowThirdPersonCamera@GameRules@impl@hk@csgo@aw@@KI_NPAVCSGameRules@sdk@45@H@Z 10083fc0 f   csgo-hk-x86:gamerules.obj
 0001:00082ff0       ?OnAllowThirdPersonCamera@GameRules@impl@hk@csgo@aw@@IAEXAAUAllowThirdPersonCamera@345@@Z 10083ff0 f   csgo-hk-x86:gamerules.obj
 0001:00083010       ?OnFrameEnd@GameRules@impl@hk@csgo@aw@@IAEXAAUFrameEnd@345@@Z 10084010 f   csgo-hk-x86:gamerules.obj
 0001:00083060       ?OnHook@GameRules@impl@hk@csgo@aw@@IAEXAAUCommonHook@5@@Z 10084060 f   csgo-hk-x86:gamerules.obj
 0001:00083070       ?OnUnhook@GameRules@impl@hk@csgo@aw@@IAEXAAUCommonUnhook@5@@Z 10084070 f   csgo-hk-x86:gamerules.obj
 0001:00083080       ??_E?$ModuleBaseImpl@VSpatialQuery@hk@csgo@aw@@V?$TypedObject@VSpatialQuery@hk@csgo@aw@@VModuleBase@4@@4@@aw@@UAEPAXI@Z 10084080 f i csgo-hk-x86:spatialquery.obj
 0001:00083080       ??_G?$ModuleBaseImpl@VSpatialQuery@hk@csgo@aw@@V?$TypedObject@VSpatialQuery@hk@csgo@aw@@VModuleBase@4@@4@@aw@@UAEPAXI@Z 10084080 f i csgo-hk-x86:spatialquery.obj
 0001:000830b0       ??_EListLeavesInBox@hk@csgo@aw@@UAEPAXI@Z 100840b0 f i csgo-hk-x86:spatialquery.obj
 0001:000830b0       ??_GListLeavesInBox@hk@csgo@aw@@UAEPAXI@Z 100840b0 f i csgo-hk-x86:spatialquery.obj
 0001:000830e0       ??_ESpatialQuery@impl@hk@csgo@aw@@UAEPAXI@Z 100840e0 f i csgo-hk-x86:spatialquery.obj
 0001:000830e0       ??_GSpatialQuery@impl@hk@csgo@aw@@UAEPAXI@Z 100840e0 f i csgo-hk-x86:spatialquery.obj
 0001:00083110       ?CreateModule@?$ModuleWithFactory@VSpatialQuery@hk@csgo@aw@@@aw@@SAPAVSpatialQuery@hk@csgo@2@XZ 10084110 f   csgo-hk-x86:spatialquery.obj
 0001:00083250       ?GetId@?$TypedObject@UListLeavesInBox@hk@csgo@aw@@UCallbackVars@4@@aw@@UAEIXZ 10084250 f i csgo-hk-x86:spatialquery.obj
 0001:00083260       ?GetId@?$TypedObject@VSpatialQuery@hk@csgo@aw@@VModuleBase@4@@aw@@UAEIXZ 10084260 f i csgo-hk-x86:spatialquery.obj
 0001:00083270       ?HkListLeavesInBox@SpatialQuery@impl@hk@csgo@aw@@KIHPAXHABVVector3@5@1PAGHPAURenderableInfo@sdk@45@@Z 10084270 f   csgo-hk-x86:spatialquery.obj
 0001:000832f0       ?HkListLeavesInBoxGate@SpatialQuery@impl@hk@csgo@aw@@KAHXZ 100842f0 f   csgo-hk-x86:spatialquery.obj
 0001:00083310       ?OnListLeavesInBox@SpatialQuery@impl@hk@csgo@aw@@IAEXAAUListLeavesInBox@345@@Z 10084310 f   csgo-hk-x86:spatialquery.obj
 0001:00083340       ?OnUnhook@SpatialQuery@impl@hk@csgo@aw@@IAEXAAUCommonUnhook@5@@Z 10084340 f   csgo-hk-x86:spatialquery.obj
 0001:00083350       ??_E?$ModuleBaseImpl@VSpatialPartition@hk@csgo@aw@@V?$TypedObject@VSpatialPartition@hk@csgo@aw@@VModuleBase@4@@4@@aw@@UAEPAXI@Z 10084350 f i csgo-hk-x86:spatialpartition.obj
 0001:00083350       ??_G?$ModuleBaseImpl@VSpatialPartition@hk@csgo@aw@@V?$TypedObject@VSpatialPartition@hk@csgo@aw@@VModuleBase@4@@4@@aw@@UAEPAXI@Z 10084350 f i csgo-hk-x86:spatialpartition.obj
 0001:00083380       ??_ESpatialPartition@impl@hk@csgo@aw@@UAEPAXI@Z 10084380 f i csgo-hk-x86:spatialpartition.obj
 0001:00083380       ??_GSpatialPartition@impl@hk@csgo@aw@@UAEPAXI@Z 10084380 f i csgo-hk-x86:spatialpartition.obj
 0001:000833b0       ??_ESuppressLists@hk@csgo@aw@@UAEPAXI@Z 100843b0 f i csgo-hk-x86:spatialpartition.obj
 0001:000833b0       ??_GSuppressLists@hk@csgo@aw@@UAEPAXI@Z 100843b0 f i csgo-hk-x86:spatialpartition.obj
 0001:000833e0       ??_ESuppressLists_NetUpdateEnd@hk@csgo@aw@@UAEPAXI@Z 100843e0 f i csgo-hk-x86:spatialpartition.obj
 0001:000833e0       ??_GSuppressLists_NetUpdateEnd@hk@csgo@aw@@UAEPAXI@Z 100843e0 f i csgo-hk-x86:spatialpartition.obj
 0001:00083410       ?CreateModule@?$ModuleWithFactory@VSpatialPartition@hk@csgo@aw@@@aw@@SAPAVSpatialPartition@hk@csgo@2@XZ 10084410 f   csgo-hk-x86:spatialpartition.obj
 0001:00083550       ?Get@SpatialPartition@sdk@csgo@aw@@SAPAV1234@XZ 10084550 f i csgo-hk-x86:spatialpartition.obj
 0001:00083560       ?GetDynamic@SpatialPartition@sdk@csgo@aw@@SAPAV1234@XZ 10084560 f i csgo-hk-x86:spatialpartition.obj
 0001:00083580       ?GetId@?$TypedObject@USuppressLists@hk@csgo@aw@@UCallbackVars@4@@aw@@UAEIXZ 10084580 f i csgo-hk-x86:spatialpartition.obj
 0001:00083590       ?GetId@?$TypedObject@USuppressLists_NetUpdateEnd@hk@csgo@aw@@UCallbackVars@4@@aw@@UAEIXZ 10084590 f i csgo-hk-x86:spatialpartition.obj
 0001:000835a0       ?GetId@?$TypedObject@VSpatialPartition@hk@csgo@aw@@VModuleBase@4@@aw@@UAEIXZ 100845a0 f i csgo-hk-x86:spatialpartition.obj
 0001:000835b0       ?HkSuppressLists@SpatialPartition@impl@hk@csgo@aw@@KIXPAV1sdk@45@HH_N@Z 100845b0 f   csgo-hk-x86:spatialpartition.obj
 0001:00083610       ?OnHook@SpatialPartition@impl@hk@csgo@aw@@IAEXAAUCommonHook@5@@Z 10084610 f   csgo-hk-x86:spatialpartition.obj
 0001:00083700       ?OnSuppressLists@SpatialPartition@impl@hk@csgo@aw@@IAEXAAUSuppressLists@345@@Z 10084700 f   csgo-hk-x86:spatialpartition.obj
 0001:00083720       ?OnUnhook@SpatialPartition@impl@hk@csgo@aw@@IAEXAAUCommonUnhook@5@@Z 10084720 f   csgo-hk-x86:spatialpartition.obj
 0001:00083730       ??_E?$ModuleBaseImpl@VDemoPlayer@hk@csgo@aw@@V?$TypedObject@VDemoPlayer@hk@csgo@aw@@VModuleBase@4@@4@@aw@@UAEPAXI@Z 10084730 f i csgo-hk-x86:demoplayer.obj
 0001:00083730       ??_G?$ModuleBaseImpl@VDemoPlayer@hk@csgo@aw@@V?$TypedObject@VDemoPlayer@hk@csgo@aw@@VModuleBase@4@@4@@aw@@UAEPAXI@Z 10084730 f i csgo-hk-x86:demoplayer.obj
 0001:00083760       ??_EDemoPlayer@impl@hk@csgo@aw@@UAEPAXI@Z 10084760 f i csgo-hk-x86:demoplayer.obj
 0001:00083760       ??_GDemoPlayer@impl@hk@csgo@aw@@UAEPAXI@Z 10084760 f i csgo-hk-x86:demoplayer.obj
 0001:00083790       ??_EGetDemoPlaybackParameters@hk@csgo@aw@@UAEPAXI@Z 10084790 f i csgo-hk-x86:demoplayer.obj
 0001:00083790       ??_GGetDemoPlaybackParameters@hk@csgo@aw@@UAEPAXI@Z 10084790 f i csgo-hk-x86:demoplayer.obj
 0001:000837c0       ??_EReadPacket@hk@csgo@aw@@UAEPAXI@Z 100847c0 f i csgo-hk-x86:demoplayer.obj
 0001:000837c0       ??_GReadPacket@hk@csgo@aw@@UAEPAXI@Z 100847c0 f i csgo-hk-x86:demoplayer.obj
 0001:000837f0       ?CreateModule@?$ModuleWithFactory@VDemoPlayer@hk@csgo@aw@@@aw@@SAPAVDemoPlayer@hk@csgo@2@XZ 100847f0 f   csgo-hk-x86:demoplayer.obj
 0001:00083950       ?GetId@?$TypedObject@UGetDemoPlaybackParameters@hk@csgo@aw@@UCallbackVars@4@@aw@@UAEIXZ 10084950 f i csgo-hk-x86:demoplayer.obj
 0001:00083960       ?GetId@?$TypedObject@UReadPacket@hk@csgo@aw@@UCallbackVars@4@@aw@@UAEIXZ 10084960 f i csgo-hk-x86:demoplayer.obj
 0001:00083970       ?GetId@?$TypedObject@VDemoPlayer@hk@csgo@aw@@VModuleBase@4@@aw@@UAEIXZ 10084970 f i csgo-hk-x86:demoplayer.obj
 0001:00083980       ?HkGetDemoPlaybackParameters@DemoPlayer@impl@hk@csgo@aw@@KIPAUDemoPlaybackParameters@sdk@45@PAV1745@H@Z 10084980 f   csgo-hk-x86:demoplayer.obj
 0001:000839b0       ?HkReadPacket@DemoPlayer@impl@hk@csgo@aw@@KIPAXPAV1sdk@45@H@Z 100849b0 f   csgo-hk-x86:demoplayer.obj
 0001:000839e0       ?OnGetDemoPlaybackParameters@DemoPlayer@impl@hk@csgo@aw@@IAEXAAUGetDemoPlaybackParameters@345@@Z 100849e0 f   csgo-hk-x86:demoplayer.obj
 0001:00083a00       ?OnHook@DemoPlayer@impl@hk@csgo@aw@@IAEXAAUCommonHook@5@@Z 10084a00 f   csgo-hk-x86:demoplayer.obj
 0001:00083a50       ?OnReadPacket@DemoPlayer@impl@hk@csgo@aw@@IAEXAAUReadPacket@345@@Z 10084a50 f   csgo-hk-x86:demoplayer.obj
 0001:00083a70       ?OnUnhook@DemoPlayer@impl@hk@csgo@aw@@IAEXAAUCommonUnhook@5@@Z 10084a70 f   csgo-hk-x86:demoplayer.obj
 0001:00083a80       ??_E?$ModuleBaseImpl@VSteamGameCoordinator@hk@csgo@aw@@V?$TypedObject@VSteamGameCoordinator@hk@csgo@aw@@VModuleBase@4@@4@@aw@@UAEPAXI@Z 10084a80 f i csgo-hk-x86:steamgc.obj
 0001:00083a80       ??_G?$ModuleBaseImpl@VSteamGameCoordinator@hk@csgo@aw@@V?$TypedObject@VSteamGameCoordinator@hk@csgo@aw@@VModuleBase@4@@4@@aw@@UAEPAXI@Z 10084a80 f i csgo-hk-x86:steamgc.obj
 0001:00083ab0       ??_ESendGCMsg@hk@csgo@aw@@UAEPAXI@Z 10084ab0 f i csgo-hk-x86:steamgc.obj
 0001:00083ab0       ??_GSendGCMsg@hk@csgo@aw@@UAEPAXI@Z 10084ab0 f i csgo-hk-x86:steamgc.obj
 0001:00083ae0       ??_ESteamGameCoordinator@impl@hk@csgo@aw@@UAEPAXI@Z 10084ae0 f i csgo-hk-x86:steamgc.obj
 0001:00083ae0       ??_GSteamGameCoordinator@impl@hk@csgo@aw@@UAEPAXI@Z 10084ae0 f i csgo-hk-x86:steamgc.obj
 0001:00083b10       ?CreateModule@?$ModuleWithFactory@VSteamGameCoordinator@hk@csgo@aw@@@aw@@SAPAVSteamGameCoordinator@hk@csgo@2@XZ 10084b10 f   csgo-hk-x86:steamgc.obj
 0001:00083c50       ?GetId@?$TypedObject@USendGCMsg@hk@csgo@aw@@UCallbackVars@4@@aw@@UAEIXZ 10084c50 f i csgo-hk-x86:steamgc.obj
 0001:00083c60       ?GetId@?$TypedObject@VSteamGameCoordinator@hk@csgo@aw@@VModuleBase@4@@aw@@UAEIXZ 10084c60 f i csgo-hk-x86:steamgc.obj
 0001:00083c70       ?HkSendMessage@SteamGameCoordinator@impl@hk@csgo@aw@@SI?AW4EGCResults@sdk@45@PAXHIPBXI@Z 10084c70 f   csgo-hk-x86:steamgc.obj
 0001:00083cc0       ?OnFrame@SteamGameCoordinator@impl@hk@csgo@aw@@QAEXAAURenderFrame@gfx@5@@Z 10084cc0 f   csgo-hk-x86:steamgc.obj
 0001:00083e90       ?OnSendMessage@SteamGameCoordinator@impl@hk@csgo@aw@@QAEXAAUSendGCMsg@345@@Z 10084e90 f   csgo-hk-x86:steamgc.obj
 0001:00083ec0       ?OnUnhook@SteamGameCoordinator@impl@hk@csgo@aw@@QAEXAAUCommonUnhook@5@@Z 10084ec0 f   csgo-hk-x86:steamgc.obj
 0001:00083ed0       ??_E?$ModuleBaseImpl@VSteamSocketMgr@hk@csgo@aw@@V?$TypedObject@VSteamSocketMgr@hk@csgo@aw@@VModuleBase@4@@4@@aw@@UAEPAXI@Z 10084ed0 f i csgo-hk-x86:steamsocketmgr.obj
 0001:00083ed0       ??_G?$ModuleBaseImpl@VSteamSocketMgr@hk@csgo@aw@@V?$TypedObject@VSteamSocketMgr@hk@csgo@aw@@VModuleBase@4@@4@@aw@@UAEPAXI@Z 10084ed0 f i csgo-hk-x86:steamsocketmgr.obj
 0001:00083f00       ??_ESteamSocketMgr@impl@hk@csgo@aw@@UAEPAXI@Z 10084f00 f i csgo-hk-x86:steamsocketmgr.obj
 0001:00083f00       ??_GSteamSocketMgr@impl@hk@csgo@aw@@UAEPAXI@Z 10084f00 f i csgo-hk-x86:steamsocketmgr.obj
 0001:00083f30       ?CreateModule@?$ModuleWithFactory@VSteamSocketMgr@hk@csgo@aw@@@aw@@SAPAVSteamSocketMgr@hk@csgo@2@XZ 10084f30 f   csgo-hk-x86:steamsocketmgr.obj
 0001:00084090       ?GetId@?$TypedObject@VSteamSocketMgr@hk@csgo@aw@@VModuleBase@4@@aw@@UAEIXZ 10085090 f i csgo-hk-x86:steamsocketmgr.obj
 0001:000840a0       ?OnHook@SteamSocketMgr@impl@hk@csgo@aw@@IAEXAAUCommonHook@5@@Z 100850a0 f   csgo-hk-x86:steamsocketmgr.obj
 0001:000840b0       ?OnNetRecvFrom@SteamSocketMgr@impl@hk@csgo@aw@@IAEXAAUNetRecvFrom@345@@Z 100850b0 f   csgo-hk-x86:steamsocketmgr.obj
 0001:000840e0       ?OnNetSendTo@SteamSocketMgr@impl@hk@csgo@aw@@IAEXAAUNetSendTo@345@@Z 100850e0 f   csgo-hk-x86:steamsocketmgr.obj
 0001:00084110       ?OnUnhook@SteamSocketMgr@impl@hk@csgo@aw@@IAEXAAUCommonUnhook@5@@Z 10085110 f   csgo-hk-x86:steamsocketmgr.obj
 0001:00084120       ??_E?$ModuleBaseImpl@VEngine@hk@csgo@aw@@V?$TypedObject@VEngine@hk@csgo@aw@@VModuleBase@4@@4@@aw@@UAEPAXI@Z 10085120 f i csgo-hk-x86:engine.obj
 0001:00084120       ??_G?$ModuleBaseImpl@VEngine@hk@csgo@aw@@V?$TypedObject@VEngine@hk@csgo@aw@@VModuleBase@4@@4@@aw@@UAEPAXI@Z 10085120 f i csgo-hk-x86:engine.obj
 0001:00084150       ??_EEngine@impl@hk@csgo@aw@@UAEPAXI@Z 10085150 f i csgo-hk-x86:engine.obj
 0001:00084150       ??_GEngine@impl@hk@csgo@aw@@UAEPAXI@Z 10085150 f i csgo-hk-x86:engine.obj
 0001:00084180       ??_EEngineFrame@hk@csgo@aw@@UAEPAXI@Z 10085180 f i csgo-hk-x86:engine.obj
 0001:00084180       ??_GEngineFrame@hk@csgo@aw@@UAEPAXI@Z 10085180 f i csgo-hk-x86:engine.obj
 0001:000841b0       ?CreateModule@?$ModuleWithFactory@VEngine@hk@csgo@aw@@@aw@@SAPAVEngine@hk@csgo@2@XZ 100851b0 f   csgo-hk-x86:engine.obj
 0001:000842f0       ?GetId@?$TypedObject@UEngineFrame@hk@csgo@aw@@UCallbackVars@4@@aw@@UAEIXZ 100852f0 f i csgo-hk-x86:engine.obj
 0001:00084300       ?GetId@?$TypedObject@VEngine@hk@csgo@aw@@VModuleBase@4@@aw@@UAEIXZ 10085300 f i csgo-hk-x86:engine.obj
 0001:00084310       ?HkEngineFrame@Engine@impl@hk@csgo@aw@@KIXPAV1sdk@45@H@Z 10085310 f   csgo-hk-x86:engine.obj
 0001:00084340       ?OnEngineFrame@Engine@impl@hk@csgo@aw@@IAEXAAUEngineFrame@345@@Z 10085340 f   csgo-hk-x86:engine.obj
 0001:00084360       ?OnHook@Engine@impl@hk@csgo@aw@@IAEXAAUCommonHook@5@@Z 10085360 f   csgo-hk-x86:engine.obj
 0001:00084390       ?OnUnhook@Engine@impl@hk@csgo@aw@@IAEXAAUCommonUnhook@5@@Z 10085390 f   csgo-hk-x86:engine.obj
 0001:000843a0       ??$BindThunk@$1?FindByClass@LibEntities@lua@csgo@aw@@IAEXAAVState@35@@Z@?$Library@VLibEntities@lua@csgo@aw@@@lua@aw@@SAHPAUlua_State@@@Z 100853a0 f i csgo-lua-x86:lib_entities.obj
 0001:000843e0       ??$BindThunk@$1?GetByIndex@LibEntities@lua@csgo@aw@@IAEXAAVState@35@@Z@?$Library@VLibEntities@lua@csgo@aw@@@lua@aw@@SAHPAUlua_State@@@Z 100853e0 f i csgo-lua-x86:lib_entities.obj
 0001:00084470       ??$BindThunk@$1?GetByUserID@LibEntities@lua@csgo@aw@@IAEXAAVState@35@@Z@?$Library@VLibEntities@lua@csgo@aw@@@lua@aw@@SAHPAUlua_State@@@Z 10085470 f i csgo-lua-x86:lib_entities.obj
 0001:000844b0       ??$BindThunk@$1?GetGameRules@LibEntities@lua@csgo@aw@@IAEXAAVState@35@@Z@?$Library@VLibEntities@lua@csgo@aw@@@lua@aw@@SAHPAUlua_State@@@Z 100854b0 f i csgo-lua-x86:lib_entities.obj
 0001:00084550       ??$BindThunk@$1?GetLocalPlayer@LibEntities@lua@csgo@aw@@IAEXAAVState@35@@Z@?$Library@VLibEntities@lua@csgo@aw@@@lua@aw@@SAHPAUlua_State@@@Z 10085550 f i csgo-lua-x86:lib_entities.obj
 0001:000845a0       ??$BindThunk@$1?GetPlayerResources@LibEntities@lua@csgo@aw@@IAEXAAVState@35@@Z@?$Library@VLibEntities@lua@csgo@aw@@@lua@aw@@SAHPAUlua_State@@@Z 100855a0 f i csgo-lua-x86:lib_entities.obj
 0001:000845f0       ??$Get@H@State@lua@aw@@QAEHH@Z 100855f0 f i csgo-lua-x86:lib_entities.obj
 0001:00084620       ??$Get@V?$basic_string@DU?$char_traits@D@std@@V?$allocator@D@2@@std@@@State@lua@aw@@QAE?AV?$basic_string@DU?$char_traits@D@std@@V?$allocator@D@2@@std@@H@Z 10085620 f i csgo-lua-x86:lib_entities.obj
 0001:00084690       ??$_Emplace_reallocate@ABQAVBaseEntity@sdk@csgo@aw@@@?$vector@PAVBaseEntity@sdk@csgo@aw@@V?$allocator@PAVBaseEntity@sdk@csgo@aw@@@std@@@std@@AAEPAPAVBaseEntity@sdk@csgo@aw@@QAPAV2345@ABQAV2345@@Z 10085690 f i csgo-lua-x86:lib_entities.obj
 0001:000847d0       ?FindByClass@LibEntities@lua@csgo@aw@@IAEXAAVState@24@@Z 100857d0 f   csgo-lua-x86:lib_entities.obj
 0001:000849d0       ?GetByUserID@LibEntities@lua@csgo@aw@@IAEXAAVState@24@@Z 100859d0 f   csgo-lua-x86:lib_entities.obj
 0001:00084a50       ?Init@LibEntities@lua@csgo@aw@@UAEXPAVContext@24@@Z 10085a50 f   csgo-lua-x86:lib_entities.obj
 0001:00084fc0       ?Push@?$Stack@VBaseHandle@sdk@csgo@aw@@X@lua@aw@@QAEXAAVState@23@PAVBaseHandle@sdk@csgo@3@@Z 10085fc0 f i csgo-lua-x86:lib_entities.obj
 0001:00085030       ??$BindThunk@$1?GetUserID@LibCheat@lua@csgo@aw@@IAEXAAVState@35@@Z@?$Library@VLibCheat@lua@csgo@aw@@@lua@aw@@SAHPAUlua_State@@@Z 10086030 f i csgo-lua-x86:lib_cheat.obj
 0001:00085090       ??$BindThunk@$1?GetUserName@LibCheat@lua@csgo@aw@@IAEXAAVState@35@@Z@?$Library@VLibCheat@lua@csgo@aw@@@lua@aw@@SAHPAUlua_State@@@Z 10086090 f i csgo-lua-x86:lib_cheat.obj
 0001:000850d0       ??$BindThunk@$1?IsFakeDucking@LibCheat@lua@csgo@aw@@IAEXAAVState@35@@Z@?$Library@VLibCheat@lua@csgo@aw@@@lua@aw@@SAHPAUlua_State@@@Z 100860d0 f i csgo-lua-x86:lib_cheat.obj
 0001:00085130       ??$BindThunk@$1?RequestSpeedBurst@LibCheat@lua@csgo@aw@@IAEXAAVState@35@@Z@?$Library@VLibCheat@lua@csgo@aw@@@lua@aw@@SAHPAUlua_State@@@Z 10086130 f i csgo-lua-x86:lib_cheat.obj
 0001:00085170       ??$Push@I@State@lua@aw@@QAEXABI@Z 10086170 f i csgo-lua-x86:lib_cheat.obj
 0001:000851a0       ?GetUserName@LibCheat@lua@csgo@aw@@IAEXAAVState@24@@Z 100861a0 f   csgo-lua-x86:lib_cheat.obj
 0001:00085390       ?Init@LibCheat@lua@csgo@aw@@UAEXPAVContext@24@@Z 10086390 f   csgo-lua-x86:lib_cheat.obj
 0001:00085780       ??$BindThunk@$1?AbsoluteFrameTime@LibGlobalVars@lua@csgo@aw@@IAEXAAVState@35@@Z@?$Library@VLibGlobalVars@lua@csgo@aw@@@lua@aw@@SAHPAUlua_State@@@Z 10086780 f i csgo-lua-x86:lib_globals.obj
 0001:000857f0       ??$BindThunk@$1?CurTime@LibGlobalVars@lua@csgo@aw@@IAEXAAVState@35@@Z@?$Library@VLibGlobalVars@lua@csgo@aw@@@lua@aw@@SAHPAUlua_State@@@Z 100867f0 f i csgo-lua-x86:lib_globals.obj
 0001:00085860       ??$BindThunk@$1?FrameCount@LibGlobalVars@lua@csgo@aw@@IAEXAAVState@35@@Z@?$Library@VLibGlobalVars@lua@csgo@aw@@@lua@aw@@SAHPAUlua_State@@@Z 10086860 f i csgo-lua-x86:lib_globals.obj
 0001:000858b0       ??$BindThunk@$1?FrameTime@LibGlobalVars@lua@csgo@aw@@IAEXAAVState@35@@Z@?$Library@VLibGlobalVars@lua@csgo@aw@@@lua@aw@@SAHPAUlua_State@@@Z 100868b0 f i csgo-lua-x86:lib_globals.obj
 0001:00085920       ??$BindThunk@$1?MaxClients@LibGlobalVars@lua@csgo@aw@@IAEXAAVState@35@@Z@?$Library@VLibGlobalVars@lua@csgo@aw@@@lua@aw@@SAHPAUlua_State@@@Z 10086920 f i csgo-lua-x86:lib_globals.obj
 0001:00085970       ??$BindThunk@$1?RealTime@LibGlobalVars@lua@csgo@aw@@IAEXAAVState@35@@Z@?$Library@VLibGlobalVars@lua@csgo@aw@@@lua@aw@@SAHPAUlua_State@@@Z 10086970 f i csgo-lua-x86:lib_globals.obj
 0001:000859e0       ??$BindThunk@$1?TickCount@LibGlobalVars@lua@csgo@aw@@IAEXAAVState@35@@Z@?$Library@VLibGlobalVars@lua@csgo@aw@@@lua@aw@@SAHPAUlua_State@@@Z 100869e0 f i csgo-lua-x86:lib_globals.obj
 0001:00085a30       ??$BindThunk@$1?TickInterval@LibGlobalVars@lua@csgo@aw@@IAEXAAVState@35@@Z@?$Library@VLibGlobalVars@lua@csgo@aw@@@lua@aw@@SAHPAUlua_State@@@Z 10086a30 f i csgo-lua-x86:lib_globals.obj
 0001:00085aa0       ??$Push@H@State@lua@aw@@QAEXABH@Z 10086aa0 f i csgo-lua-x86:lib_globals.obj
 0001:00085ad0       ??$Push@M@State@lua@aw@@QAEXABM@Z 10086ad0 f i csgo-lua-x86:lib_globals.obj
 0001:00085b10       ?Init@LibGlobalVars@lua@csgo@aw@@UAEXPAVContext@24@@Z 10086b10 f   csgo-lua-x86:lib_globals.obj
 0001:000861d0       ??$Get@_N@State@lua@aw@@QAE_NH@Z 100871d0 f i csgo-lua-x86:cls_playerinfo.obj
 0001:00086230       ??$GetProperty@$MPQLuaPlayerInfo@lua@csgo@aw@@H0A@@?$Class@VClsPlayerInfo@lua@csgo@aw@@ULuaPlayerInfo@234@$0A@@lua@aw@@SAXPAXAAVState@12@@Z 10087230 f i csgo-lua-x86:cls_playerinfo.obj
 0001:00086260       ??$GetProperty@$MPQLuaPlayerInfo@lua@csgo@aw@@H0BM@@?$Class@VClsPlayerInfo@lua@csgo@aw@@ULuaPlayerInfo@234@$0A@@lua@aw@@SAXPAXAAVState@12@@Z 10087260 f i csgo-lua-x86:cls_playerinfo.obj
 0001:00086290       ??$GetProperty@$MPQLuaPlayerInfo@lua@csgo@aw@@H0DI@@?$Class@VClsPlayerInfo@lua@csgo@aw@@ULuaPlayerInfo@234@$0A@@lua@aw@@SAXPAXAAVState@12@@Z 10087290 f i csgo-lua-x86:cls_playerinfo.obj
 0001:000862c0       ??$GetProperty@$MPQLuaPlayerInfo@lua@csgo@aw@@V?$basic_string@DU?$char_traits@D@std@@V?$allocator@D@2@@std@@03@?$Class@VClsPlayerInfo@lua@csgo@aw@@ULuaPlayerInfo@234@$0A@@lua@aw@@SAXPAXAAVState@12@@Z 100872c0 f i csgo-lua-x86:cls_playerinfo.obj
 0001:00086300       ??$GetProperty@$MPQLuaPlayerInfo@lua@csgo@aw@@V?$basic_string@DU?$char_traits@D@std@@V?$allocator@D@2@@std@@0CA@@?$Class@VClsPlayerInfo@lua@csgo@aw@@ULuaPlayerInfo@234@$0A@@lua@aw@@SAXPAXAAVState@12@@Z 10087300 f i csgo-lua-x86:cls_playerinfo.obj
 0001:00086340       ??$GetProperty@$MPQLuaPlayerInfo@lua@csgo@aw@@V?$basic_string@DU?$char_traits@D@std@@V?$allocator@D@2@@std@@0DM@@?$Class@VClsPlayerInfo@lua@csgo@aw@@ULuaPlayerInfo@234@$0A@@lua@aw@@SAXPAXAAVState@12@@Z 10087340 f i csgo-lua-x86:cls_playerinfo.obj
 0001:00086380       ??$GetProperty@$MPQLuaPlayerInfo@lua@csgo@aw@@_N0FE@@?$Class@VClsPlayerInfo@lua@csgo@aw@@ULuaPlayerInfo@234@$0A@@lua@aw@@SAXPAXAAVState@12@@Z 10087380 f i csgo-lua-x86:cls_playerinfo.obj
 0001:000863b0       ??$GetProperty@$MPQLuaPlayerInfo@lua@csgo@aw@@_N0FF@@?$Class@VClsPlayerInfo@lua@csgo@aw@@ULuaPlayerInfo@234@$0A@@lua@aw@@SAXPAXAAVState@12@@Z 100873b0 f i csgo-lua-x86:cls_playerinfo.obj
 0001:000863e0       ??$Method@VClsPlayerInfo@lua@csgo@aw@@$1?__gc@1234@QAEXPAULuaPlayerInfo@234@AAVState@24@@Z@?$Class@VClsPlayerInfo@lua@csgo@aw@@ULuaPlayerInfo@234@$0A@@lua@aw@@SAHPAUlua_State@@@Z 100873e0 f i csgo-lua-x86:cls_playerinfo.obj
 0001:00086430       ??$SetProperty@$MPQLuaPlayerInfo@lua@csgo@aw@@H0A@H@?$Class@VClsPlayerInfo@lua@csgo@aw@@ULuaPlayerInfo@234@$0A@@lua@aw@@SAXPAXAAVState@12@@Z 10087430 f i csgo-lua-x86:cls_playerinfo.obj
 0001:00086460       ??$SetProperty@$MPQLuaPlayerInfo@lua@csgo@aw@@H0BM@H@?$Class@VClsPlayerInfo@lua@csgo@aw@@ULuaPlayerInfo@234@$0A@@lua@aw@@SAXPAXAAVState@12@@Z 10087460 f i csgo-lua-x86:cls_playerinfo.obj
 0001:00086490       ??$SetProperty@$MPQLuaPlayerInfo@lua@csgo@aw@@H0DI@H@?$Class@VClsPlayerInfo@lua@csgo@aw@@ULuaPlayerInfo@234@$0A@@lua@aw@@SAXPAXAAVState@12@@Z 10087490 f i csgo-lua-x86:cls_playerinfo.obj
 0001:000864c0       ??$SetProperty@$MPQLuaPlayerInfo@lua@csgo@aw@@V?$basic_string@DU?$char_traits@D@std@@V?$allocator@D@2@@std@@03V56@@?$Class@VClsPlayerInfo@lua@csgo@aw@@ULuaPlayerInfo@234@$0A@@lua@aw@@SAXPAXAAVState@12@@Z 100874c0 f i csgo-lua-x86:cls_playerinfo.obj
 0001:00086510       ??$SetProperty@$MPQLuaPlayerInfo@lua@csgo@aw@@V?$basic_string@DU?$char_traits@D@std@@V?$allocator@D@2@@std@@0CA@V56@@?$Class@VClsPlayerInfo@lua@csgo@aw@@ULuaPlayerInfo@234@$0A@@lua@aw@@SAXPAXAAVState@12@@Z 10087510 f i csgo-lua-x86:cls_playerinfo.obj
 0001:00086560       ??$SetProperty@$MPQLuaPlayerInfo@lua@csgo@aw@@V?$basic_string@DU?$char_traits@D@std@@V?$allocator@D@2@@std@@0DM@V56@@?$Class@VClsPlayerInfo@lua@csgo@aw@@ULuaPlayerInfo@234@$0A@@lua@aw@@SAXPAXAAVState@12@@Z 10087560 f i csgo-lua-x86:cls_playerinfo.obj
 0001:000865b0       ??$SetProperty@$MPQLuaPlayerInfo@lua@csgo@aw@@_N0FE@_N@?$Class@VClsPlayerInfo@lua@csgo@aw@@ULuaPlayerInfo@234@$0A@@lua@aw@@SAXPAXAAVState@12@@Z 100875b0 f i csgo-lua-x86:cls_playerinfo.obj
 0001:00086620       ??$SetProperty@$MPQLuaPlayerInfo@lua@csgo@aw@@_N0FF@_N@?$Class@VClsPlayerInfo@lua@csgo@aw@@ULuaPlayerInfo@234@$0A@@lua@aw@@SAXPAXAAVState@12@@Z 10087620 f i csgo-lua-x86:cls_playerinfo.obj
 0001:00086690       ??$_Find_last@ULuaJITString@lua@aw@@@?$_Hash@V?$_Umap_traits@ULuaJITString@lua@aw@@UClassProperty@23@V?$_Uhash_compare@ULuaJITString@lua@aw@@ULuaJITStringHasher@23@ULuaJITStringEqual@23@@std@@V?$allocator@U?$pair@$$CBULuaJITString@lua@aw@@UClassProperty@23@@std@@@6@$0A@@std@@@std@@IBE?AU?$_Hash_find_last_result@PAU?$_List_node@U?$pair@$$CBULuaJITString@lua@aw@@UClassProperty@23@@std@@PAX@std@@@1@ABULuaJITString@lua@aw@@I@Z 10087690 f i csgo-lua-x86:cls_playerinfo.obj
 0001:00086700       ??$fill@PAV?$_List_unchecked_iterator@V?$_List_val@U?$_List_simple_types@U?$pair@$$CBULuaJITString@lua@aw@@UClassProperty@23@@std@@@std@@@std@@@std@@V12@@std@@YAXQAV?$_List_unchecked_iterator@V?$_List_val@U?$_List_simple_types@U?$pair@$$CBULuaJITString@lua@aw@@UClassProperty@23@@std@@@std@@@std@@@0@0ABV10@@Z 10087700 f i csgo-lua-x86:cls_playerinfo.obj
 0001:00086760       ??A?$unordered_map@ULuaJITString@lua@aw@@UClassProperty@23@ULuaJITStringHasher@23@ULuaJITStringEqual@23@V?$allocator@U?$pair@$$CBULuaJITString@lua@aw@@UClassProperty@23@@std@@@std@@@std@@QAEAAUClassProperty@lua@aw@@$$QAULuaJITString@34@@Z 10087760 f i csgo-lua-x86:cls_playerinfo.obj
 0001:000868e0       ?Init@ClsPlayerInfo@lua@csgo@aw@@UAEXPAVContext@24@@Z 100878e0 f   csgo-lua-x86:cls_playerinfo.obj
 0001:00087530       ?ToLuaPlayerInfo@lua@csgo@aw@@YAXPAUPlayerInfo@sdk@23@PAULuaPlayerInfo@123@@Z 10088530 f   csgo-lua-x86:cls_playerinfo.obj
 0001:000875a0       ?_Forced_rehash@?$_Hash@V?$_Umap_traits@ULuaJITString@lua@aw@@UClassProperty@23@V?$_Uhash_compare@ULuaJITString@lua@aw@@ULuaJITStringHasher@23@ULuaJITStringEqual@23@@std@@V?$allocator@U?$pair@$$CBULuaJITString@lua@aw@@UClassProperty@23@@std@@@6@$0A@@std@@@std@@IAEXI@Z 100885a0 f i csgo-lua-x86:cls_playerinfo.obj
 0001:00087780       ?__gc@ClsPlayerInfo@lua@csgo@aw@@QAEXPAULuaPlayerInfo@234@AAVState@24@@Z 10088780 f   csgo-lua-x86:cls_playerinfo.obj
 0001:00087840       ??$?HDU?$char_traits@D@std@@V?$allocator@D@1@@std@@YA?AV?$basic_string@DU?$char_traits@D@std@@V?$allocator@D@2@@0@QBD$$QAV10@@Z 10088840 f i csgo-lua-x86:lib_client.obj
 0001:00087930       ??$BindThunk@$1?AllowListener@LibClient@lua@csgo@aw@@IAEXAAVState@35@@Z@?$Library@VLibClient@lua@csgo@aw@@@lua@aw@@SAHPAUlua_State@@@Z 10088930 f i csgo-lua-x86:lib_client.obj
 0001:000879c0       ??$BindThunk@$1?ChatSay@LibClient@lua@csgo@aw@@IAEXAAVState@35@@Z@?$Library@VLibClient@lua@csgo@aw@@@lua@aw@@SAHPAUlua_State@@@Z 100889c0 f i csgo-lua-x86:lib_client.obj
 0001:00087a00       ??$BindThunk@$1?ChatTeamSay@LibClient@lua@csgo@aw@@IAEXAAVState@35@@Z@?$Library@VLibClient@lua@csgo@aw@@@lua@aw@@SAHPAUlua_State@@@Z 10088a00 f i csgo-lua-x86:lib_client.obj
 0001:00087a40       ??$BindThunk@$1?Command@LibClient@lua@csgo@aw@@IAEXAAVState@35@@Z@?$Library@VLibClient@lua@csgo@aw@@@lua@aw@@SAHPAUlua_State@@@Z 10088a40 f i csgo-lua-x86:lib_client.obj
 0001:00087a80       ??$BindThunk@$1?GetConVar@LibClient@lua@csgo@aw@@IAEXAAVState@35@@Z@?$Library@VLibClient@lua@csgo@aw@@@lua@aw@@SAHPAUlua_State@@@Z 10088a80 f i csgo-lua-x86:lib_client.obj
 0001:00087ac0       ??$BindThunk@$1?GetLocalPlayerIndex@LibClient@lua@csgo@aw@@IAEXAAVState@35@@Z@?$Library@VLibClient@lua@csgo@aw@@@lua@aw@@SAHPAUlua_State@@@Z 10088ac0 f i csgo-lua-x86:lib_client.obj
 0001:00087b20       ??$BindThunk@$1?GetPlayerIndexByUserID@LibClient@lua@csgo@aw@@IAEXAAVState@35@@Z@?$Library@VLibClient@lua@csgo@aw@@@lua@aw@@SAHPAUlua_State@@@Z 10088b20 f i csgo-lua-x86:lib_client.obj
 0001:00087bb0       ??$BindThunk@$1?GetPlayerInfo@LibClient@lua@csgo@aw@@IAEXAAVState@35@@Z@?$Library@VLibClient@lua@csgo@aw@@@lua@aw@@SAHPAUlua_State@@@Z 10088bb0 f i csgo-lua-x86:lib_client.obj
 0001:00087bf0       ??$BindThunk@$1?GetPlayerNameByIndex@LibClient@lua@csgo@aw@@IAEXAAVState@35@@Z@?$Library@VLibClient@lua@csgo@aw@@@lua@aw@@SAHPAUlua_State@@@Z 10088bf0 f i csgo-lua-x86:lib_client.obj
 0001:00087c30       ??$BindThunk@$1?GetPlayerNameByUserID@LibClient@lua@csgo@aw@@IAEXAAVState@35@@Z@?$Library@VLibClient@lua@csgo@aw@@@lua@aw@@SAHPAUlua_State@@@Z 10088c30 f i csgo-lua-x86:lib_client.obj
 0001:00087c70       ??$BindThunk@$1?SetConVar@LibClient@lua@csgo@aw@@IAEXAAVState@35@@Z@?$Library@VLibClient@lua@csgo@aw@@@lua@aw@@SAHPAUlua_State@@@Z 10088c70 f i csgo-lua-x86:lib_client.obj
 0001:00087cb0       ??$BindThunk@$1?WorldToScreen@LibClient@lua@csgo@aw@@IAEXAAVState@35@@Z@?$Library@VLibClient@lua@csgo@aw@@@lua@aw@@SAHPAUlua_State@@@Z 10088cb0 f i csgo-lua-x86:lib_client.obj
 0001:00087cf0       ??$Get@V?$basic_string_view@DU?$char_traits@D@std@@@std@@@State@lua@aw@@QAE?AV?$basic_string_view@DU?$char_traits@D@std@@@std@@H@Z 10088cf0 f i csgo-lua-x86:lib_client.obj
 0001:00087d50       ??$GetPtr@VVector3@aw@@@State@lua@aw@@QAEPAVVector3@2@H@Z 10088d50 f i csgo-lua-x86:lib_client.obj
 0001:00087d80       ??$_Reallocate_grow_by@V<lambda_1>@?1??insert@?$basic_string@DU?$char_traits@D@std@@V?$allocator@D@2@@std@@QAEAAV34@IQBDI@Z@IPBDI@?$basic_string@DU?$char_traits@D@std@@V?$allocator@D@2@@std@@AAEAAV01@IV<lambda_1>@?1??insert@01@QAEAAV01@IQBDI@Z@IPBDI@Z 10088d80 f i csgo-lua-x86:lib_client.obj
 0001:00087ee0       ?ChatSay@LibClient@lua@csgo@aw@@IAEXAAVState@24@@Z 10088ee0 f   csgo-lua-x86:lib_client.obj
 0001:00087fa0       ?ChatTeamSay@LibClient@lua@csgo@aw@@IAEXAAVState@24@@Z 10088fa0 f   csgo-lua-x86:lib_client.obj
 0001:00088060       ?Command@LibClient@lua@csgo@aw@@IAEXAAVState@24@@Z 10089060 f   csgo-lua-x86:lib_client.obj
 0001:00088450       ?Get@?$Class@VClsVector3@lua@aw@@VVector3@3@$00@lua@aw@@QAEPAVVector3@3@PAUlua_State@@H@Z 10089450 f i csgo-lua-x86:lib_client.obj
 0001:000885c0       ?GetConVar@LibClient@lua@csgo@aw@@IAEXAAVState@24@@Z 100895c0 f   csgo-lua-x86:lib_client.obj
 0001:00088830       ?GetPlayerInfo@LibClient@lua@csgo@aw@@IAEXAAVState@24@@Z 10089830 f   csgo-lua-x86:lib_client.obj
 0001:00088960       ?GetPlayerNameByIndex@LibClient@lua@csgo@aw@@IAEXAAVState@24@@Z 10089960 f   csgo-lua-x86:lib_client.obj
 0001:00088a50       ?GetPlayerNameByUserID@LibClient@lua@csgo@aw@@IAEXAAVState@24@@Z 10089a50 f   csgo-lua-x86:lib_client.obj
 0001:00088b50       ?Init@LibClient@lua@csgo@aw@@UAEXPAVContext@24@@Z 10089b50 f   csgo-lua-x86:lib_client.obj
 0001:00089700       ?MakeSayCommandSafe@LibClient@lua@csgo@aw@@IAEXPAD@Z 1008a700 f   csgo-lua-x86:lib_client.obj
 0001:00089730       ?SetConVar@LibClient@lua@csgo@aw@@IAEXAAVState@24@@Z 1008a730 f   csgo-lua-x86:lib_client.obj
 0001:000899b0       ?WorldToScreen@LibClient@lua@csgo@aw@@IAEXAAVState@24@@Z 1008a9b0 f   csgo-lua-x86:lib_client.obj
 0001:00089a80       ??$BindThunk@$1?Create@LibMaterials@lua@csgo@aw@@IAEXAAVState@35@@Z@?$Library@VLibMaterials@lua@csgo@aw@@@lua@aw@@SAHPAUlua_State@@@Z 1008aa80 f i csgo-lua-x86:lib_materials.obj
 0001:00089ac0       ??$BindThunk@$1?Enumerate@LibMaterials@lua@csgo@aw@@IAEXAAVState@35@@Z@?$Library@VLibMaterials@lua@csgo@aw@@@lua@aw@@SAHPAUlua_State@@@Z 1008aac0 f i csgo-lua-x86:lib_materials.obj
 0001:00089b00       ??$BindThunk@$1?Find@LibMaterials@lua@csgo@aw@@IAEXAAVState@35@@Z@?$Library@VLibMaterials@lua@csgo@aw@@@lua@aw@@SAHPAUlua_State@@@Z 1008ab00 f i csgo-lua-x86:lib_materials.obj
 0001:00089b40       ??$Push@VMaterial@sdk@csgo@aw@@@State@lua@aw@@QAEXPAVMaterial@sdk@csgo@2@@Z 1008ab40 f i csgo-lua-x86:lib_materials.obj
 0001:00089bb0       ?Create@LibMaterials@lua@csgo@aw@@IAEXAAVState@24@@Z 1008abb0 f   csgo-lua-x86:lib_materials.obj
 0001:00089f20       ?Enumerate@LibMaterials@lua@csgo@aw@@IAEXAAVState@24@@Z 1008af20 f   csgo-lua-x86:lib_materials.obj
 0001:0008a020       ?Find@LibMaterials@lua@csgo@aw@@IAEXAAVState@24@@Z 1008b020 f   csgo-lua-x86:lib_materials.obj
 0001:0008a110       ?Init@LibMaterials@lua@csgo@aw@@UAEXPAVContext@24@@Z 1008b110 f   csgo-lua-x86:lib_materials.obj
 0001:0008a3c0       ??$BindThunk@$1?GetMapName@LibEngine@lua@csgo@aw@@IAEXAAVState@35@@Z@?$Library@VLibEngine@lua@csgo@aw@@@lua@aw@@SAHPAUlua_State@@@Z 1008b3c0 f i csgo-lua-x86:lib_engine.obj
 0001:0008a430       ??$BindThunk@$1?GetPointContents@LibEngine@lua@csgo@aw@@IAEXAAVState@35@@Z@?$Library@VLibEngine@lua@csgo@aw@@@lua@aw@@SAHPAUlua_State@@@Z 1008b430 f i csgo-lua-x86:lib_engine.obj
 0001:0008a470       ??$BindThunk@$1?GetServerIP@LibEngine@lua@csgo@aw@@IAEXAAVState@35@@Z@?$Library@VLibEngine@lua@csgo@aw@@@lua@aw@@SAHPAUlua_State@@@Z 1008b470 f i csgo-lua-x86:lib_engine.obj
 0001:0008a4e0       ??$BindThunk@$1?GetViewAngles@LibEngine@lua@csgo@aw@@IAEXAAVState@35@@Z@?$Library@VLibEngine@lua@csgo@aw@@@lua@aw@@SAHPAUlua_State@@@Z 1008b4e0 f i csgo-lua-x86:lib_engine.obj
 0001:0008a520       ??$BindThunk@$1?SetViewAngles@LibEngine@lua@csgo@aw@@IAEXAAVState@35@@Z@?$Library@VLibEngine@lua@csgo@aw@@@lua@aw@@SAHPAUlua_State@@@Z 1008b520 f i csgo-lua-x86:lib_engine.obj
 0001:0008a590       ??$BindThunk@$1?TraceHull@LibEngine@lua@csgo@aw@@IAEXAAVState@35@@Z@?$Library@VLibEngine@lua@csgo@aw@@@lua@aw@@SAHPAUlua_State@@@Z 1008b590 f i csgo-lua-x86:lib_engine.obj
 0001:0008a5d0       ??$BindThunk@$1?TraceLine@LibEngine@lua@csgo@aw@@IAEXAAVState@35@@Z@?$Library@VLibEngine@lua@csgo@aw@@@lua@aw@@SAHPAUlua_State@@@Z 1008b5d0 f i csgo-lua-x86:lib_engine.obj
 0001:0008a610       ??$Push@V?$basic_string_view@DU?$char_traits@D@std@@@std@@@State@lua@aw@@QAEXABV?$basic_string_view@DU?$char_traits@D@std@@@std@@@Z 1008b610 f i csgo-lua-x86:lib_engine.obj
 0001:0008a640       ??$Push@VEulerAngles@aw@@@State@lua@aw@@QAEXPAVEulerAngles@2@@Z 1008b640 f i csgo-lua-x86:lib_engine.obj
 0001:0008a6b0       ??$Push@VTrace@sdk@csgo@aw@@@State@lua@aw@@QAEXPAVTrace@sdk@csgo@2@@Z 1008b6b0 f i csgo-lua-x86:lib_engine.obj
 0001:0008a720       ?Get@?$Class@VClsEulerAngles@lua@aw@@VEulerAngles@3@$00@lua@aw@@QAEPAVEulerAngles@3@PAUlua_State@@H@Z 1008b720 f i csgo-lua-x86:lib_engine.obj
 0001:0008a890       ?GetPointContents@LibEngine@lua@csgo@aw@@IAEXAAVState@24@@Z 1008b890 f   csgo-lua-x86:lib_engine.obj
 0001:0008a950       ?GetViewAngles@LibEngine@lua@csgo@aw@@IAEXAAVState@24@@Z 1008b950 f   csgo-lua-x86:lib_engine.obj
 0001:0008a9e0       ?Init@LibEngine@lua@csgo@aw@@UAEXPAVContext@24@@Z 1008b9e0 f   csgo-lua-x86:lib_engine.obj
 0001:0008aff0       ?TraceHull@LibEngine@lua@csgo@aw@@IAEXAAVState@24@@Z 1008bff0 f   csgo-lua-x86:lib_engine.obj
 0001:0008b170       ?TraceLine@LibEngine@lua@csgo@aw@@IAEXAAVState@24@@Z 1008c170 f   csgo-lua-x86:lib_engine.obj
 0001:0008b280       ??$BindThunk@$1?RunScript@LibPanorama@lua@csgo@aw@@IAEXAAVState@35@@Z@?$Library@VLibPanorama@lua@csgo@aw@@@lua@aw@@SAHPAUlua_State@@@Z 1008c280 f i csgo-lua-x86:lib_panorama.obj
 0001:0008b2c0       ?Get@PanoramaUIEngine@sdk@csgo@aw@@SAPAV1234@XZ 1008c2c0 f i csgo-lua-x86:lib_panorama.obj
 0001:0008b2d0       ?Init@LibPanorama@lua@csgo@aw@@UAEXPAVContext@24@@Z 1008c2d0 f   csgo-lua-x86:lib_panorama.obj
 0001:0008b440       ?RunScript@LibPanorama@lua@csgo@aw@@IAEXAAVState@24@@Z 1008c440 f   csgo-lua-x86:lib_panorama.obj
 0001:0008b610       ??$Get@M@State@lua@aw@@QAEMH@Z 1008c610 f i csgo-lua-x86:cls_usercmd.obj
 0001:0008b640       ??$GetProperty@$MPQUserCmd@sdk@csgo@aw@@D0DE@@?$Class@VClsUserCmd@lua@csgo@aw@@VUserCmdEx@234@$0A@@lua@aw@@SAXPAXAAVState@12@@Z 1008c640 f i csgo-lua-x86:cls_usercmd.obj
 0001:0008b670       ??$GetProperty@$MPQUserCmd@sdk@csgo@aw@@F0EE@@?$Class@VClsUserCmd@lua@csgo@aw@@VUserCmdEx@234@$0A@@lua@aw@@SAXPAXAAVState@12@@Z 1008c670 f i csgo-lua-x86:cls_usercmd.obj
 0001:0008b6a0       ??$GetProperty@$MPQUserCmd@sdk@csgo@aw@@F0EG@@?$Class@VClsUserCmd@lua@csgo@aw@@VUserCmdEx@234@$0A@@lua@aw@@SAXPAXAAVState@12@@Z 1008c6a0 f i csgo-lua-x86:cls_usercmd.obj
 0001:0008b6d0       ??$GetProperty@$MPQUserCmd@sdk@csgo@aw@@H03@?$Class@VClsUserCmd@lua@csgo@aw@@VUserCmdEx@234@$0A@@lua@aw@@SAXPAXAAVState@12@@Z 1008c6d0 f i csgo-lua-x86:cls_usercmd.obj
 0001:0008b700       ??$GetProperty@$MPQUserCmd@sdk@csgo@aw@@H07@?$Class@VClsUserCmd@lua@csgo@aw@@VUserCmdEx@234@$0A@@lua@aw@@SAXPAXAAVState@12@@Z 1008c700 f i csgo-lua-x86:cls_usercmd.obj
 0001:0008b730       ??$GetProperty@$MPQUserCmd@sdk@csgo@aw@@H0DA@@?$Class@VClsUserCmd@lua@csgo@aw@@VUserCmdEx@234@$0A@@lua@aw@@SAXPAXAAVState@12@@Z 1008c730 f i csgo-lua-x86:cls_usercmd.obj
 0001:0008b760       ??$GetProperty@$MPQUserCmd@sdk@csgo@aw@@H0DI@@?$Class@VClsUserCmd@lua@csgo@aw@@VUserCmdEx@234@$0A@@lua@aw@@SAXPAXAAVState@12@@Z 1008c760 f i csgo-lua-x86:cls_usercmd.obj
 0001:0008b790       ??$GetProperty@$MPQUserCmd@sdk@csgo@aw@@H0DM@@?$Class@VClsUserCmd@lua@csgo@aw@@VUserCmdEx@234@$0A@@lua@aw@@SAXPAXAAVState@12@@Z 1008c790 f i csgo-lua-x86:cls_usercmd.obj
 0001:0008b7c0       ??$GetProperty@$MPQUserCmd@sdk@csgo@aw@@H0EA@@?$Class@VClsUserCmd@lua@csgo@aw@@VUserCmdEx@234@$0A@@lua@aw@@SAXPAXAAVState@12@@Z 1008c7c0 f i csgo-lua-x86:cls_usercmd.obj
 0001:0008b7f0       ??$GetProperty@$MPQUserCmd@sdk@csgo@aw@@M0CE@@?$Class@VClsUserCmd@lua@csgo@aw@@VUserCmdEx@234@$0A@@lua@aw@@SAXPAXAAVState@12@@Z 1008c7f0 f i csgo-lua-x86:cls_usercmd.obj
 0001:0008b830       ??$GetProperty@$MPQUserCmd@sdk@csgo@aw@@M0CI@@?$Class@VClsUserCmd@lua@csgo@aw@@VUserCmdEx@234@$0A@@lua@aw@@SAXPAXAAVState@12@@Z 1008c830 f i csgo-lua-x86:cls_usercmd.obj
 0001:0008b870       ??$GetProperty@$MPQUserCmd@sdk@csgo@aw@@M0CM@@?$Class@VClsUserCmd@lua@csgo@aw@@VUserCmdEx@234@$0A@@lua@aw@@SAXPAXAAVState@12@@Z 1008c870 f i csgo-lua-x86:cls_usercmd.obj
 0001:0008b8b0       ??$GetProperty@$MPQUserCmd@sdk@csgo@aw@@_N0EI@@?$Class@VClsUserCmd@lua@csgo@aw@@VUserCmdEx@234@$0A@@lua@aw@@SAXPAXAAVState@12@@Z 1008c8b0 f i csgo-lua-x86:cls_usercmd.obj
 0001:0008b8e0       ??$GetProperty@$MPQUserCmdEx@lua@csgo@aw@@_N0GE@@?$Class@VClsUserCmd@lua@csgo@aw@@VUserCmdEx@234@$0A@@lua@aw@@SAXPAXAAVState@12@@Z 1008c8e0 f i csgo-lua-x86:cls_usercmd.obj
 0001:0008b910       ??$GetPropertyObject@$MPQUserCmd@sdk@csgo@aw@@VEulerAngles@4@0M@V54@@?$Class@VClsUserCmd@lua@csgo@aw@@VUserCmdEx@234@$0A@@lua@aw@@SAXPAXAAVState@12@@Z 1008c910 f i csgo-lua-x86:cls_usercmd.obj
 0001:0008b930       ??$GetPropertyObject@$MPQUserCmd@sdk@csgo@aw@@VVector3@4@0BI@V54@@?$Class@VClsUserCmd@lua@csgo@aw@@VUserCmdEx@234@$0A@@lua@aw@@SAXPAXAAVState@12@@Z 1008c930 f i csgo-lua-x86:cls_usercmd.obj
 0001:0008b9b0       ??$Method@VClsUserCmd@lua@csgo@aw@@$1?GetButtons@1234@AAEXPAVUserCmdEx@234@AAVState@24@@Z@?$Class@VClsUserCmd@lua@csgo@aw@@VUserCmdEx@234@$0A@@lua@aw@@SAHPAUlua_State@@@Z 1008c9b0 f i csgo-lua-x86:cls_usercmd.obj
 0001:0008ba10       ??$Method@VClsUserCmd@lua@csgo@aw@@$1?GetForwardMove@1234@AAEXPAVUserCmdEx@234@AAVState@24@@Z@?$Class@VClsUserCmd@lua@csgo@aw@@VUserCmdEx@234@$0A@@lua@aw@@SAHPAUlua_State@@@Z 1008ca10 f i csgo-lua-x86:cls_usercmd.obj
 0001:0008ba90       ??$Method@VClsUserCmd@lua@csgo@aw@@$1?GetSendPacket@1234@AAEXPAVUserCmdEx@234@AAVState@24@@Z@?$Class@VClsUserCmd@lua@csgo@aw@@VUserCmdEx@234@$0A@@lua@aw@@SAHPAUlua_State@@@Z 1008ca90 f i csgo-lua-x86:cls_usercmd.obj
 0001:0008baf0       ??$Method@VClsUserCmd@lua@csgo@aw@@$1?GetSideMove@1234@AAEXPAVUserCmdEx@234@AAVState@24@@Z@?$Class@VClsUserCmd@lua@csgo@aw@@VUserCmdEx@234@$0A@@lua@aw@@SAHPAUlua_State@@@Z 1008caf0 f i csgo-lua-x86:cls_usercmd.obj
 0001:0008bb70       ??$Method@VClsUserCmd@lua@csgo@aw@@$1?GetUpMove@1234@AAEXPAVUserCmdEx@234@AAVState@24@@Z@?$Class@VClsUserCmd@lua@csgo@aw@@VUserCmdEx@234@$0A@@lua@aw@@SAHPAUlua_State@@@Z 1008cb70 f i csgo-lua-x86:cls_usercmd.obj
 0001:0008bbf0       ??$Method@VClsUserCmd@lua@csgo@aw@@$1?GetViewAngles@1234@AAEXPAVUserCmdEx@234@AAVState@24@@Z@?$Class@VClsUserCmd@lua@csgo@aw@@VUserCmdEx@234@$0A@@lua@aw@@SAHPAUlua_State@@@Z 1008cbf0 f i csgo-lua-x86:cls_usercmd.obj
 0001:0008bc40       ??$Method@VClsUserCmd@lua@csgo@aw@@$1?SetButtons@1234@AAEXPAVUserCmdEx@234@AAVState@24@@Z@?$Class@VClsUserCmd@lua@csgo@aw@@VUserCmdEx@234@$0A@@lua@aw@@SAHPAUlua_State@@@Z 1008cc40 f i csgo-lua-x86:cls_usercmd.obj
 0001:0008bcc0       ??$Method@VClsUserCmd@lua@csgo@aw@@$1?SetForwardMove@1234@AAEXPAVUserCmdEx@234@AAVState@24@@Z@?$Class@VClsUserCmd@lua@csgo@aw@@VUserCmdEx@234@$0A@@lua@aw@@SAHPAUlua_State@@@Z 1008ccc0 f i csgo-lua-x86:cls_usercmd.obj
 0001:0008bd40       ??$Method@VClsUserCmd@lua@csgo@aw@@$1?SetSendPacket@1234@AAEXPAVUserCmdEx@234@AAVState@24@@Z@?$Class@VClsUserCmd@lua@csgo@aw@@VUserCmdEx@234@$0A@@lua@aw@@SAHPAUlua_State@@@Z 1008cd40 f i csgo-lua-x86:cls_usercmd.obj
 0001:0008bda0       ??$Method@VClsUserCmd@lua@csgo@aw@@$1?SetSideMove@1234@AAEXPAVUserCmdEx@234@AAVState@24@@Z@?$Class@VClsUserCmd@lua@csgo@aw@@VUserCmdEx@234@$0A@@lua@aw@@SAHPAUlua_State@@@Z 1008cda0 f i csgo-lua-x86:cls_usercmd.obj
 0001:0008be20       ??$Method@VClsUserCmd@lua@csgo@aw@@$1?SetUpMove@1234@AAEXPAVUserCmdEx@234@AAVState@24@@Z@?$Class@VClsUserCmd@lua@csgo@aw@@VUserCmdEx@234@$0A@@lua@aw@@SAHPAUlua_State@@@Z 1008ce20 f i csgo-lua-x86:cls_usercmd.obj
 0001:0008bea0       ??$Method@VClsUserCmd@lua@csgo@aw@@$1?SetViewAngles@1234@AAEXPAVUserCmdEx@234@AAVState@24@@Z@?$Class@VClsUserCmd@lua@csgo@aw@@VUserCmdEx@234@$0A@@lua@aw@@SAHPAUlua_State@@@Z 1008cea0 f i csgo-lua-x86:cls_usercmd.obj
 0001:0008bf30       ??$Push@VVector3@aw@@@State@lua@aw@@QAEXPAVVector3@2@@Z 1008cf30 f i csgo-lua-x86:cls_usercmd.obj
 0001:0008bfa0       ??$SetProperty@$MPQUserCmd@sdk@csgo@aw@@D0DE@D@?$Class@VClsUserCmd@lua@csgo@aw@@VUserCmdEx@234@$0A@@lua@aw@@SAXPAXAAVState@12@@Z 1008cfa0 f i csgo-lua-x86:cls_usercmd.obj
 0001:0008bfd0       ??$SetProperty@$MPQUserCmd@sdk@csgo@aw@@F0EE@F@?$Class@VClsUserCmd@lua@csgo@aw@@VUserCmdEx@234@$0A@@lua@aw@@SAXPAXAAVState@12@@Z 1008cfd0 f i csgo-lua-x86:cls_usercmd.obj
 0001:0008c000       ??$SetProperty@$MPQUserCmd@sdk@csgo@aw@@F0EG@F@?$Class@VClsUserCmd@lua@csgo@aw@@VUserCmdEx@234@$0A@@lua@aw@@SAXPAXAAVState@12@@Z 1008d000 f i csgo-lua-x86:cls_usercmd.obj
 0001:0008c030       ??$SetProperty@$MPQUserCmd@sdk@csgo@aw@@H03H@?$Class@VClsUserCmd@lua@csgo@aw@@VUserCmdEx@234@$0A@@lua@aw@@SAXPAXAAVState@12@@Z 1008d030 f i csgo-lua-x86:cls_usercmd.obj
 0001:0008c060       ??$SetProperty@$MPQUserCmd@sdk@csgo@aw@@H07H@?$Class@VClsUserCmd@lua@csgo@aw@@VUserCmdEx@234@$0A@@lua@aw@@SAXPAXAAVState@12@@Z 1008d060 f i csgo-lua-x86:cls_usercmd.obj
 0001:0008c090       ??$SetProperty@$MPQUserCmd@sdk@csgo@aw@@H0DA@H@?$Class@VClsUserCmd@lua@csgo@aw@@VUserCmdEx@234@$0A@@lua@aw@@SAXPAXAAVState@12@@Z 1008d090 f i csgo-lua-x86:cls_usercmd.obj
 0001:0008c0c0       ??$SetProperty@$MPQUserCmd@sdk@csgo@aw@@H0DI@H@?$Class@VClsUserCmd@lua@csgo@aw@@VUserCmdEx@234@$0A@@lua@aw@@SAXPAXAAVState@12@@Z 1008d0c0 f i csgo-lua-x86:cls_usercmd.obj
 0001:0008c0f0       ??$SetProperty@$MPQUserCmd@sdk@csgo@aw@@H0DM@H@?$Class@VClsUserCmd@lua@csgo@aw@@VUserCmdEx@234@$0A@@lua@aw@@SAXPAXAAVState@12@@Z 1008d0f0 f i csgo-lua-x86:cls_usercmd.obj
 0001:0008c120       ??$SetProperty@$MPQUserCmd@sdk@csgo@aw@@H0EA@H@?$Class@VClsUserCmd@lua@csgo@aw@@VUserCmdEx@234@$0A@@lua@aw@@SAXPAXAAVState@12@@Z 1008d120 f i csgo-lua-x86:cls_usercmd.obj
 0001:0008c150       ??$SetProperty@$MPQUserCmd@sdk@csgo@aw@@M0CE@M@?$Class@VClsUserCmd@lua@csgo@aw@@VUserCmdEx@234@$0A@@lua@aw@@SAXPAXAAVState@12@@Z 1008d150 f i csgo-lua-x86:cls_usercmd.obj
 0001:0008c180       ??$SetProperty@$MPQUserCmd@sdk@csgo@aw@@M0CI@M@?$Class@VClsUserCmd@lua@csgo@aw@@VUserCmdEx@234@$0A@@lua@aw@@SAXPAXAAVState@12@@Z 1008d180 f i csgo-lua-x86:cls_usercmd.obj
 0001:0008c1b0       ??$SetProperty@$MPQUserCmd@sdk@csgo@aw@@M0CM@M@?$Class@VClsUserCmd@lua@csgo@aw@@VUserCmdEx@234@$0A@@lua@aw@@SAXPAXAAVState@12@@Z 1008d1b0 f i csgo-lua-x86:cls_usercmd.obj
 0001:0008c1e0       ??$SetProperty@$MPQUserCmd@sdk@csgo@aw@@_N0EI@_N@?$Class@VClsUserCmd@lua@csgo@aw@@VUserCmdEx@234@$0A@@lua@aw@@SAXPAXAAVState@12@@Z 1008d1e0 f i csgo-lua-x86:cls_usercmd.obj
 0001:0008c250       ??$SetProperty@$MPQUserCmdEx@lua@csgo@aw@@_N0GE@_N@?$Class@VClsUserCmd@lua@csgo@aw@@VUserCmdEx@234@$0A@@lua@aw@@SAXPAXAAVState@12@@Z 1008d250 f i csgo-lua-x86:cls_usercmd.obj
 0001:0008c2c0       ??$SetPropertyObject@$MPQUserCmd@sdk@csgo@aw@@VEulerAngles@4@0M@V54@@?$Class@VClsUserCmd@lua@csgo@aw@@VUserCmdEx@234@$0A@@lua@aw@@SAXPAXAAVState@12@@Z 1008d2c0 f i csgo-lua-x86:cls_usercmd.obj
 0001:0008c300       ??$SetPropertyObject@$MPQUserCmd@sdk@csgo@aw@@VVector3@4@0BI@V54@@?$Class@VClsUserCmd@lua@csgo@aw@@VUserCmdEx@234@$0A@@lua@aw@@SAXPAXAAVState@12@@Z 1008d300 f i csgo-lua-x86:cls_usercmd.obj
 0001:0008c340       ??$_Find_last@ULuaJITString@lua@aw@@@?$_Hash@V?$_Umap_traits@ULuaJITString@lua@aw@@P6AHPAUlua_State@@@ZV?$_Uhash_compare@ULuaJITString@lua@aw@@ULuaJITStringHasher@23@ULuaJITStringEqual@23@@std@@V?$allocator@U?$pair@$$CBULuaJITString@lua@aw@@P6AHPAUlua_State@@@Z@std@@@6@$0A@@std@@@std@@IBE?AU?$_Hash_find_last_result@PAU?$_List_node@U?$pair@$$CBULuaJITString@lua@aw@@P6AHPAUlua_State@@@Z@std@@PAX@std@@@1@ABULuaJITString@lua@aw@@I@Z 1008d340 f i csgo-lua-x86:cls_usercmd.obj
 0001:0008c3b0       ??$fill@PAV?$_List_unchecked_iterator@V?$_List_val@U?$_List_simple_types@U?$pair@$$CBULuaJITString@lua@aw@@P6AHPAUlua_State@@@Z@std@@@std@@@std@@@std@@V12@@std@@YAXQAV?$_List_unchecked_iterator@V?$_List_val@U?$_List_simple_types@U?$pair@$$CBULuaJITString@lua@aw@@P6AHPAUlua_State@@@Z@std@@@std@@@std@@@0@0ABV10@@Z 1008d3b0 f i csgo-lua-x86:cls_usercmd.obj
 0001:0008c410       ??0UserCmdEx@lua@csgo@aw@@QAE@AAVUserCmd@sdk@23@AA_N@Z 1008d410 f   csgo-lua-x86:cls_usercmd.obj
 0001:0008c4d0       ??1UserCmdEx@lua@csgo@aw@@UAE@XZ 1008d4d0 f   csgo-lua-x86:cls_usercmd.obj
 0001:0008c580       ??A?$unordered_map@ULuaJITString@lua@aw@@P6AHPAUlua_State@@@ZULuaJITStringHasher@23@ULuaJITStringEqual@23@V?$allocator@U?$pair@$$CBULuaJITString@lua@aw@@P6AHPAUlua_State@@@Z@std@@@std@@@std@@QAEAAP6AHPAUlua_State@@@Z$$QAULuaJITString@lua@aw@@@Z 1008d580 f i csgo-lua-x86:cls_usercmd.obj
 0001:0008c700       ??_EUserCmdEx@lua@csgo@aw@@UAEPAXI@Z 1008d700 f i csgo-lua-x86:cls_usercmd.obj
 0001:0008c700       ??_GUserCmdEx@lua@csgo@aw@@UAEPAXI@Z 1008d700 f i csgo-lua-x86:cls_usercmd.obj
 0001:0008c7d0       ?Init@ClsUserCmd@lua@csgo@aw@@UAEXPAVContext@24@@Z 1008d7d0 f   csgo-lua-x86:cls_usercmd.obj
 0001:0008e4a0       ?_Forced_rehash@?$_Hash@V?$_Umap_traits@ULuaJITString@lua@aw@@P6AHPAUlua_State@@@ZV?$_Uhash_compare@ULuaJITString@lua@aw@@ULuaJITStringHasher@23@ULuaJITStringEqual@23@@std@@V?$allocator@U?$pair@$$CBULuaJITString@lua@aw@@P6AHPAUlua_State@@@Z@std@@@6@$0A@@std@@@std@@IAEXI@Z 1008f4a0 f i csgo-lua-x86:cls_usercmd.obj
 0001:0008e680       ??$Method@VClsMaterial@lua@csgo@aw@@$1?AlphaModulate@1234@IAEXPAVMaterial@sdk@34@AAVState@24@@Z@?$Class@VClsMaterial@lua@csgo@aw@@VMaterial@sdk@34@$0A@@lua@aw@@SAHPAUlua_State@@@Z 1008f680 f i csgo-lua-x86:cls_material.obj
 0001:0008e710       ??$Method@VClsMaterial@lua@csgo@aw@@$1?ColorModulate@1234@IAEXPAVMaterial@sdk@34@AAVState@24@@Z@?$Class@VClsMaterial@lua@csgo@aw@@VMaterial@sdk@34@$0A@@lua@aw@@SAHPAUlua_State@@@Z 1008f710 f i csgo-lua-x86:cls_material.obj
 0001:0008e760       ??$Method@VClsMaterial@lua@csgo@aw@@$1?GetName@1234@IAEXPAVMaterial@sdk@34@AAVState@24@@Z@?$Class@VClsMaterial@lua@csgo@aw@@VMaterial@sdk@34@$0A@@lua@aw@@SAHPAUlua_State@@@Z 1008f760 f i csgo-lua-x86:cls_material.obj
 0001:0008e7d0       ??$Method@VClsMaterial@lua@csgo@aw@@$1?GetTextureGroupName@1234@IAEXPAVMaterial@sdk@34@AAVState@24@@Z@?$Class@VClsMaterial@lua@csgo@aw@@VMaterial@sdk@34@$0A@@lua@aw@@SAHPAUlua_State@@@Z 1008f7d0 f i csgo-lua-x86:cls_material.obj
 0001:0008e850       ??$Method@VClsMaterial@lua@csgo@aw@@$1?SetMaterialVarFlag@1234@IAEXPAVMaterial@sdk@34@AAVState@24@@Z@?$Class@VClsMaterial@lua@csgo@aw@@VMaterial@sdk@34@$0A@@lua@aw@@SAHPAUlua_State@@@Z 1008f850 f i csgo-lua-x86:cls_material.obj
 0001:0008e8e0       ??$Method@VClsMaterial@lua@csgo@aw@@$1?SetShaderParam@1234@IAEXPAVMaterial@sdk@34@AAVState@24@@Z@?$Class@VClsMaterial@lua@csgo@aw@@VMaterial@sdk@34@$0A@@lua@aw@@SAHPAUlua_State@@@Z 1008f8e0 f i csgo-lua-x86:cls_material.obj
 0001:0008e930       ??$Method@VClsMaterial@lua@csgo@aw@@$1?__gc@1234@IAEXPAVMaterial@sdk@34@AAVState@24@@Z@?$Class@VClsMaterial@lua@csgo@aw@@VMaterial@sdk@34@$0A@@lua@aw@@SAHPAUlua_State@@@Z 1008f930 f i csgo-lua-x86:cls_material.obj
 0001:0008e980       ??$Method@VClsMaterial@lua@csgo@aw@@$1?__tostring@1234@IAEXPAVMaterial@sdk@34@AAVState@24@@Z@?$Class@VClsMaterial@lua@csgo@aw@@VMaterial@sdk@34@$0A@@lua@aw@@SAHPAUlua_State@@@Z 1008f980 f i csgo-lua-x86:cls_material.obj
 0001:0008e9f0       ??$_Emplace_reallocate@M@?$vector@MV?$allocator@M@std@@@std@@AAEPAMQAM$$QAM@Z 1008f9f0 f i csgo-lua-x86:cls_material.obj
 0001:0008eb30       ?ColorModulate@ClsMaterial@lua@csgo@aw@@IAEXPAVMaterial@sdk@34@AAVState@24@@Z 1008fb30 f   csgo-lua-x86:cls_material.obj
 0001:0008ebe0       ?Init@ClsMaterial@lua@csgo@aw@@UAEXPAVContext@24@@Z 1008fbe0 f   csgo-lua-x86:cls_material.obj
 0001:0008f5e0       ?SetShaderParam@ClsMaterial@lua@csgo@aw@@IAEXPAVMaterial@sdk@34@AAVState@24@@Z 100905e0 f   csgo-lua-x86:cls_material.obj
 0001:0008f7e0       ??$Method@VClsDrawModelContext@lua@csgo@aw@@$1?DrawExtraPass@1234@AAEXPAUDrawChamsModel@mod@34@AAVState@24@@Z@?$Class@VClsDrawModelContext@lua@csgo@aw@@UDrawChamsModel@mod@34@$0A@@lua@aw@@SAHPAUlua_State@@@Z 100907e0 f i csgo-lua-x86:cls_drawmodelctx.obj
 0001:0008f860       ??$Method@VClsDrawModelContext@lua@csgo@aw@@$1?ForcedMaterialOverride@1234@AAEXPAUDrawChamsModel@mod@34@AAVState@24@@Z@?$Class@VClsDrawModelContext@lua@csgo@aw@@UDrawChamsModel@mod@34@$0A@@lua@aw@@SAHPAUlua_State@@@Z 10090860 f i csgo-lua-x86:cls_drawmodelctx.obj
 0001:0008f8b0       ??$Method@VClsDrawModelContext@lua@csgo@aw@@$1?GetEntity@1234@AAEXPAUDrawChamsModel@mod@34@AAVState@24@@Z@?$Class@VClsDrawModelContext@lua@csgo@aw@@UDrawChamsModel@mod@34@$0A@@lua@aw@@SAHPAUlua_State@@@Z 100908b0 f i csgo-lua-x86:cls_drawmodelctx.obj
 0001:0008f900       ??$Method@VClsDrawModelContext@lua@csgo@aw@@$1?SetDrawOriginal@1234@AAEXPAUDrawChamsModel@mod@34@AAVState@24@@Z@?$Class@VClsDrawModelContext@lua@csgo@aw@@UDrawChamsModel@mod@34@$0A@@lua@aw@@SAHPAUlua_State@@@Z 10090900 f i csgo-lua-x86:cls_drawmodelctx.obj
 0001:0008f950       ?ForcedMaterialOverride@ClsDrawModelContext@lua@csgo@aw@@AAEXPAUDrawChamsModel@mod@34@AAVState@24@@Z 10090950 f   csgo-lua-x86:cls_drawmodelctx.obj
 0001:0008f9c0       ?GetEntity@ClsDrawModelContext@lua@csgo@aw@@AAEXPAUDrawChamsModel@mod@34@AAVState@24@@Z 100909c0 f   csgo-lua-x86:cls_drawmodelctx.obj
 0001:0008fa50       ?Init@ClsDrawModelContext@lua@csgo@aw@@UAEXPAVContext@24@@Z 10090a50 f   csgo-lua-x86:cls_drawmodelctx.obj
 0001:00090090       ?SetDrawOriginal@ClsDrawModelContext@lua@csgo@aw@@AAEXPAUDrawChamsModel@mod@34@AAVState@24@@Z 10091090 f   csgo-lua-x86:cls_drawmodelctx.obj
 0001:00090110       ??$Error@AAV?$basic_string@DU?$char_traits@D@std@@V?$allocator@D@2@@std@@@State@lua@aw@@QAEXV?$basic_format_string@DAAV?$basic_string@DU?$char_traits@D@std@@V?$allocator@D@2@@std@@@v9@fmt@@AAV?$basic_string@DU?$char_traits@D@std@@V?$allocator@D@2@@std@@@Z 10091110 f i csgo-lua-x86:cls_entity.obj
 0001:000901b0       ??$Method@VClsEntity@lua@csgo@aw@@$1?GetAbsAngles@1234@IAEXPAVBaseHandle@sdk@34@AAVState@24@@Z@?$Class@VClsEntity@lua@csgo@aw@@VBaseHandle@sdk@34@$00@lua@aw@@SAHPAUlua_State@@@Z 100911b0 f i csgo-lua-x86:cls_entity.obj
 0001:00090210       ??$Method@VClsEntity@lua@csgo@aw@@$1?GetAbsOrigin@1234@IAEXPAVBaseHandle@sdk@34@AAVState@24@@Z@?$Class@VClsEntity@lua@csgo@aw@@VBaseHandle@sdk@34@$00@lua@aw@@SAHPAUlua_State@@@Z 10091210 f i csgo-lua-x86:cls_entity.obj
 0001:00090270       ??$Method@VClsEntity@lua@csgo@aw@@$1?GetBonePosition@1234@IAEXPAVBaseHandle@sdk@34@AAVState@24@@Z@?$Class@VClsEntity@lua@csgo@aw@@VBaseHandle@sdk@34@$00@lua@aw@@SAHPAUlua_State@@@Z 10091270 f i csgo-lua-x86:cls_entity.obj
 0001:000902c0       ??$Method@VClsEntity@lua@csgo@aw@@$1?GetClass@1234@IAEXPAVBaseHandle@sdk@34@AAVState@24@@Z@?$Class@VClsEntity@lua@csgo@aw@@VBaseHandle@sdk@34@$00@lua@aw@@SAHPAUlua_State@@@Z 100912c0 f i csgo-lua-x86:cls_entity.obj
 0001:00090340       ??$Method@VClsEntity@lua@csgo@aw@@$1?GetHealth@1234@IAEXPAVBaseHandle@sdk@34@AAVState@24@@Z@?$Class@VClsEntity@lua@csgo@aw@@VBaseHandle@sdk@34@$00@lua@aw@@SAHPAUlua_State@@@Z 10091340 f i csgo-lua-x86:cls_entity.obj
 0001:000903c0       ??$Method@VClsEntity@lua@csgo@aw@@$1?GetHitboxPosition@1234@IAEXPAVBaseHandle@sdk@34@AAVState@24@@Z@?$Class@VClsEntity@lua@csgo@aw@@VBaseHandle@sdk@34@$00@lua@aw@@SAHPAUlua_State@@@Z 100913c0 f i csgo-lua-x86:cls_entity.obj
 0001:00090410       ??$Method@VClsEntity@lua@csgo@aw@@$1?GetIndex@1234@IAEXPAVBaseHandle@sdk@34@AAVState@24@@Z@?$Class@VClsEntity@lua@csgo@aw@@VBaseHandle@sdk@34@$00@lua@aw@@SAHPAUlua_State@@@Z 10091410 f i csgo-lua-x86:cls_entity.obj
 0001:00090480       ??$Method@VClsEntity@lua@csgo@aw@@$1?GetMaxHealth@1234@IAEXPAVBaseHandle@sdk@34@AAVState@24@@Z@?$Class@VClsEntity@lua@csgo@aw@@VBaseHandle@sdk@34@$00@lua@aw@@SAHPAUlua_State@@@Z 10091480 f i csgo-lua-x86:cls_entity.obj
 0001:00090500       ??$Method@VClsEntity@lua@csgo@aw@@$1?GetMaxs@1234@IAEXPAVBaseHandle@sdk@34@AAVState@24@@Z@?$Class@VClsEntity@lua@csgo@aw@@VBaseHandle@sdk@34@$00@lua@aw@@SAHPAUlua_State@@@Z 10091500 f i csgo-lua-x86:cls_entity.obj
 0001:00090570       ??$Method@VClsEntity@lua@csgo@aw@@$1?GetMins@1234@IAEXPAVBaseHandle@sdk@34@AAVState@24@@Z@?$Class@VClsEntity@lua@csgo@aw@@VBaseHandle@sdk@34@$00@lua@aw@@SAHPAUlua_State@@@Z 10091570 f i csgo-lua-x86:cls_entity.obj
 0001:000905e0       ??$Method@VClsEntity@lua@csgo@aw@@$1?GetModelName@1234@IAEXPAVBaseHandle@sdk@34@AAVState@24@@Z@?$Class@VClsEntity@lua@csgo@aw@@VBaseHandle@sdk@34@$00@lua@aw@@SAHPAUlua_State@@@Z 100915e0 f i csgo-lua-x86:cls_entity.obj
 0001:00090660       ??$Method@VClsEntity@lua@csgo@aw@@$1?GetName@1234@IAEXPAVBaseHandle@sdk@34@AAVState@24@@Z@?$Class@VClsEntity@lua@csgo@aw@@VBaseHandle@sdk@34@$00@lua@aw@@SAHPAUlua_State@@@Z 10091660 f i csgo-lua-x86:cls_entity.obj
 0001:000906b0       ??$Method@VClsEntity@lua@csgo@aw@@$1?GetProp@1234@IAEXPAVBaseHandle@sdk@34@AAVState@24@@Z@?$Class@VClsEntity@lua@csgo@aw@@VBaseHandle@sdk@34@$00@lua@aw@@SAHPAUlua_State@@@Z 100916b0 f i csgo-lua-x86:cls_entity.obj
 0001:00090700       ??$Method@VClsEntity@lua@csgo@aw@@$1?GetPropBool@1234@IAEXPAVBaseHandle@sdk@34@AAVState@24@@Z@?$Class@VClsEntity@lua@csgo@aw@@VBaseHandle@sdk@34@$00@lua@aw@@SAHPAUlua_State@@@Z 10091700 f i csgo-lua-x86:cls_entity.obj
 0001:00090770       ??$Method@VClsEntity@lua@csgo@aw@@$1?GetPropEntity@1234@IAEXPAVBaseHandle@sdk@34@AAVState@24@@Z@?$Class@VClsEntity@lua@csgo@aw@@VBaseHandle@sdk@34@$00@lua@aw@@SAHPAUlua_State@@@Z 10091770 f i csgo-lua-x86:cls_entity.obj
 0001:000907c0       ??$Method@VClsEntity@lua@csgo@aw@@$1?GetPropFloat@1234@IAEXPAVBaseHandle@sdk@34@AAVState@24@@Z@?$Class@VClsEntity@lua@csgo@aw@@VBaseHandle@sdk@34@$00@lua@aw@@SAHPAUlua_State@@@Z 100917c0 f i csgo-lua-x86:cls_entity.obj
 0001:00090850       ??$Method@VClsEntity@lua@csgo@aw@@$1?GetPropInt@1234@IAEXPAVBaseHandle@sdk@34@AAVState@24@@Z@?$Class@VClsEntity@lua@csgo@aw@@VBaseHandle@sdk@34@$00@lua@aw@@SAHPAUlua_State@@@Z 10091850 f i csgo-lua-x86:cls_entity.obj
 0001:000908c0       ??$Method@VClsEntity@lua@csgo@aw@@$1?GetPropString@1234@IAEXPAVBaseHandle@sdk@34@AAVState@24@@Z@?$Class@VClsEntity@lua@csgo@aw@@VBaseHandle@sdk@34@$00@lua@aw@@SAHPAUlua_State@@@Z 100918c0 f i csgo-lua-x86:cls_entity.obj
 0001:00090940       ??$Method@VClsEntity@lua@csgo@aw@@$1?GetPropVector@1234@IAEXPAVBaseHandle@sdk@34@AAVState@24@@Z@?$Class@VClsEntity@lua@csgo@aw@@VBaseHandle@sdk@34@$00@lua@aw@@SAHPAUlua_State@@@Z 10091940 f i csgo-lua-x86:cls_entity.obj
 0001:000909a0       ??$Method@VClsEntity@lua@csgo@aw@@$1?GetTeamNumber@1234@IAEXPAVBaseHandle@sdk@34@AAVState@24@@Z@?$Class@VClsEntity@lua@csgo@aw@@VBaseHandle@sdk@34@$00@lua@aw@@SAHPAUlua_State@@@Z 100919a0 f i csgo-lua-x86:cls_entity.obj
 0001:00090a10       ??$Method@VClsEntity@lua@csgo@aw@@$1?GetWeaponID@1234@IAEXPAVBaseHandle@sdk@34@AAVState@24@@Z@?$Class@VClsEntity@lua@csgo@aw@@VBaseHandle@sdk@34@$00@lua@aw@@SAHPAUlua_State@@@Z 10091a10 f i csgo-lua-x86:cls_entity.obj
 0001:00090a60       ??$Method@VClsEntity@lua@csgo@aw@@$1?GetWeaponInaccuracy@1234@IAEXPAVBaseHandle@sdk@34@AAVState@24@@Z@?$Class@VClsEntity@lua@csgo@aw@@VBaseHandle@sdk@34@$00@lua@aw@@SAHPAUlua_State@@@Z 10091a60 f i csgo-lua-x86:cls_entity.obj
 0001:00090ab0       ??$Method@VClsEntity@lua@csgo@aw@@$1?GetWeaponSpread@1234@IAEXPAVBaseHandle@sdk@34@AAVState@24@@Z@?$Class@VClsEntity@lua@csgo@aw@@VBaseHandle@sdk@34@$00@lua@aw@@SAHPAUlua_State@@@Z 10091ab0 f i csgo-lua-x86:cls_entity.obj
 0001:00090b00       ??$Method@VClsEntity@lua@csgo@aw@@$1?GetWeaponType@1234@IAEXPAVBaseHandle@sdk@34@AAVState@24@@Z@?$Class@VClsEntity@lua@csgo@aw@@VBaseHandle@sdk@34@$00@lua@aw@@SAHPAUlua_State@@@Z 10091b00 f i csgo-lua-x86:cls_entity.obj
 0001:00090b50       ??$Method@VClsEntity@lua@csgo@aw@@$1?IsAlive@1234@IAEXPAVBaseHandle@sdk@34@AAVState@24@@Z@?$Class@VClsEntity@lua@csgo@aw@@VBaseHandle@sdk@34@$00@lua@aw@@SAHPAUlua_State@@@Z 10091b50 f i csgo-lua-x86:cls_entity.obj
 0001:00090bd0       ??$Method@VClsEntity@lua@csgo@aw@@$1?IsDormant@1234@IAEXPAVBaseHandle@sdk@34@AAVState@24@@Z@?$Class@VClsEntity@lua@csgo@aw@@VBaseHandle@sdk@34@$00@lua@aw@@SAHPAUlua_State@@@Z 10091bd0 f i csgo-lua-x86:cls_entity.obj
 0001:00090c40       ??$Method@VClsEntity@lua@csgo@aw@@$1?IsPlayer@1234@IAEXPAVBaseHandle@sdk@34@AAVState@24@@Z@?$Class@VClsEntity@lua@csgo@aw@@VBaseHandle@sdk@34@$00@lua@aw@@SAHPAUlua_State@@@Z 10091c40 f i csgo-lua-x86:cls_entity.obj
 0001:00090cb0       ??$Method@VClsEntity@lua@csgo@aw@@$1?SetProp@1234@IAEXPAVBaseHandle@sdk@34@AAVState@24@@Z@?$Class@VClsEntity@lua@csgo@aw@@VBaseHandle@sdk@34@$00@lua@aw@@SAHPAUlua_State@@@Z 10091cb0 f i csgo-lua-x86:cls_entity.obj
 0001:00090d00       ??$Method@VClsEntity@lua@csgo@aw@@$1?SetPropBool@1234@IAEXPAVBaseHandle@sdk@34@AAVState@24@@Z@?$Class@VClsEntity@lua@csgo@aw@@VBaseHandle@sdk@34@$00@lua@aw@@SAHPAUlua_State@@@Z 10091d00 f i csgo-lua-x86:cls_entity.obj
 0001:00090d50       ??$Method@VClsEntity@lua@csgo@aw@@$1?SetPropEntity@1234@IAEXPAVBaseHandle@sdk@34@AAVState@24@@Z@?$Class@VClsEntity@lua@csgo@aw@@VBaseHandle@sdk@34@$00@lua@aw@@SAHPAUlua_State@@@Z 10091d50 f i csgo-lua-x86:cls_entity.obj
 0001:00090dd0       ??$Method@VClsEntity@lua@csgo@aw@@$1?SetPropFloat@1234@IAEXPAVBaseHandle@sdk@34@AAVState@24@@Z@?$Class@VClsEntity@lua@csgo@aw@@VBaseHandle@sdk@34@$00@lua@aw@@SAHPAUlua_State@@@Z 10091dd0 f i csgo-lua-x86:cls_entity.obj
 0001:00090e50       ??$Method@VClsEntity@lua@csgo@aw@@$1?SetPropInt@1234@IAEXPAVBaseHandle@sdk@34@AAVState@24@@Z@?$Class@VClsEntity@lua@csgo@aw@@VBaseHandle@sdk@34@$00@lua@aw@@SAHPAUlua_State@@@Z 10091e50 f i csgo-lua-x86:cls_entity.obj
 0001:00090ed0       ??$Method@VClsEntity@lua@csgo@aw@@$1?SetPropVector@1234@IAEXPAVBaseHandle@sdk@34@AAVState@24@@Z@?$Class@VClsEntity@lua@csgo@aw@@VBaseHandle@sdk@34@$00@lua@aw@@SAHPAUlua_State@@@Z 10091ed0 f i csgo-lua-x86:cls_entity.obj
 0001:00090f60       ??$Method@VClsEntity@lua@csgo@aw@@$1?__tostring@1234@IAEXPAVBaseHandle@sdk@34@AAVState@24@@Z@?$Class@VClsEntity@lua@csgo@aw@@VBaseHandle@sdk@34@$00@lua@aw@@SAHPAUlua_State@@@Z 10091f60 f i csgo-lua-x86:cls_entity.obj
 0001:00090fb0       ??Y?$basic_string@DU?$char_traits@D@std@@V?$allocator@D@2@@std@@QAEAAV01@QBD@Z 10091fb0 f i csgo-lua-x86:cls_entity.obj
 0001:00091020       ?GetBonePosition@ClsEntity@lua@csgo@aw@@IAEXPAVBaseHandle@sdk@34@AAVState@24@@Z 10092020 f   csgo-lua-x86:cls_entity.obj
 0001:000910f0       ?GetHitboxPosition@ClsEntity@lua@csgo@aw@@IAEXPAVBaseHandle@sdk@34@AAVState@24@@Z 100920f0 f   csgo-lua-x86:cls_entity.obj
 0001:00091230       ?GetProp@ClsEntity@lua@csgo@aw@@IAEXPAVBaseHandle@sdk@34@AAVState@24@@Z 10092230 f   csgo-lua-x86:cls_entity.obj
 0001:00091320       ?GetPropEntity@ClsEntity@lua@csgo@aw@@IAEXPAVBaseHandle@sdk@34@AAVState@24@@Z 10092320 f   csgo-lua-x86:cls_entity.obj
 0001:000913a0       ?GetPropPointer@ClsEntity@lua@csgo@aw@@IAEPAXPAVBaseHandle@sdk@34@AAVState@24@H@Z 100923a0 f   csgo-lua-x86:cls_entity.obj
 0001:00091800       ?GetWeaponID@ClsEntity@lua@csgo@aw@@IAEXPAVBaseHandle@sdk@34@AAVState@24@@Z 10092800 f   csgo-lua-x86:cls_entity.obj
 0001:00091870       ?GetWeaponInaccuracy@ClsEntity@lua@csgo@aw@@IAEXPAVBaseHandle@sdk@34@AAVState@24@@Z 10092870 f   csgo-lua-x86:cls_entity.obj
 0001:00091900       ?GetWeaponSpread@ClsEntity@lua@csgo@aw@@IAEXPAVBaseHandle@sdk@34@AAVState@24@@Z 10092900 f   csgo-lua-x86:cls_entity.obj
 0001:00091980       ?GetWeaponType@ClsEntity@lua@csgo@aw@@IAEXPAVBaseHandle@sdk@34@AAVState@24@@Z 10092980 f   csgo-lua-x86:cls_entity.obj
 0001:000919f0       ?Init@ClsEntity@lua@csgo@aw@@UAEXPAVContext@24@@Z 100929f0 f   csgo-lua-x86:cls_entity.obj
 0001:000937e0       ?SetProp@ClsEntity@lua@csgo@aw@@IAEXPAVBaseHandle@sdk@34@AAVState@24@@Z 100947e0 f   csgo-lua-x86:cls_entity.obj
 0001:00093910       ?SetPropBool@ClsEntity@lua@csgo@aw@@IAEXPAVBaseHandle@sdk@34@AAVState@24@@Z 10094910 f   csgo-lua-x86:cls_entity.obj
 0001:00093990       ?__tostring@ClsEntity@lua@csgo@aw@@IAEXPAVBaseHandle@sdk@34@AAVState@24@@Z 10094990 f   csgo-lua-x86:cls_entity.obj
 0001:00093af0       ??$Method@VClsGameEvent@lua@csgo@aw@@$1?GetFloat@1234@AAEXPAVGameEvent@sdk@34@AAVState@24@@Z@?$Class@VClsGameEvent@lua@csgo@aw@@VGameEvent@sdk@34@$0A@@lua@aw@@SAHPAUlua_State@@@Z 10094af0 f i csgo-lua-x86:cls_gameevent.obj
 0001:00093b40       ??$Method@VClsGameEvent@lua@csgo@aw@@$1?GetInt@1234@AAEXPAVGameEvent@sdk@34@AAVState@24@@Z@?$Class@VClsGameEvent@lua@csgo@aw@@VGameEvent@sdk@34@$0A@@lua@aw@@SAHPAUlua_State@@@Z 10094b40 f i csgo-lua-x86:cls_gameevent.obj
 0001:00093b90       ??$Method@VClsGameEvent@lua@csgo@aw@@$1?GetName@1234@AAEXPAVGameEvent@sdk@34@AAVState@24@@Z@?$Class@VClsGameEvent@lua@csgo@aw@@VGameEvent@sdk@34@$0A@@lua@aw@@SAHPAUlua_State@@@Z 10094b90 f i csgo-lua-x86:cls_gameevent.obj
 0001:00093c00       ??$Method@VClsGameEvent@lua@csgo@aw@@$1?GetString@1234@AAEXPAVGameEvent@sdk@34@AAVState@24@@Z@?$Class@VClsGameEvent@lua@csgo@aw@@VGameEvent@sdk@34@$0A@@lua@aw@@SAHPAUlua_State@@@Z 10094c00 f i csgo-lua-x86:cls_gameevent.obj
 0001:00093c50       ?GetFloat@ClsGameEvent@lua@csgo@aw@@AAEXPAVGameEvent@sdk@34@AAVState@24@@Z 10094c50 f   csgo-lua-x86:cls_gameevent.obj
 0001:00093ce0       ?GetInt@ClsGameEvent@lua@csgo@aw@@AAEXPAVGameEvent@sdk@34@AAVState@24@@Z 10094ce0 f   csgo-lua-x86:cls_gameevent.obj
 0001:00093d50       ?GetString@ClsGameEvent@lua@csgo@aw@@AAEXPAVGameEvent@sdk@34@AAVState@24@@Z 10094d50 f   csgo-lua-x86:cls_gameevent.obj
 0001:00093de0       ?Init@ClsGameEvent@lua@csgo@aw@@UAEXPAVContext@24@@Z 10094de0 f   csgo-lua-x86:cls_gameevent.obj
 0001:000942c0       ??$Method@VClsEspBuilder@lua@csgo@aw@@$1?AddBarBottom@1234@AAEXPAVEspBuilder@mod@34@AAVState@24@@Z@?$Class@VClsEspBuilder@lua@csgo@aw@@VEspBuilder@mod@34@$0A@@lua@aw@@SAHPAUlua_State@@@Z 100952c0 f i csgo-lua-x86:cls_espbuilder.obj
 0001:00094320       ??$Method@VClsEspBuilder@lua@csgo@aw@@$1?AddBarLeft@1234@AAEXPAVEspBuilder@mod@34@AAVState@24@@Z@?$Class@VClsEspBuilder@lua@csgo@aw@@VEspBuilder@mod@34@$0A@@lua@aw@@SAHPAUlua_State@@@Z 10095320 f i csgo-lua-x86:cls_espbuilder.obj
 0001:00094380       ??$Method@VClsEspBuilder@lua@csgo@aw@@$1?AddBarRight@1234@AAEXPAVEspBuilder@mod@34@AAVState@24@@Z@?$Class@VClsEspBuilder@lua@csgo@aw@@VEspBuilder@mod@34@$0A@@lua@aw@@SAHPAUlua_State@@@Z 10095380 f i csgo-lua-x86:cls_espbuilder.obj
 0001:000943e0       ??$Method@VClsEspBuilder@lua@csgo@aw@@$1?AddBarTop@1234@AAEXPAVEspBuilder@mod@34@AAVState@24@@Z@?$Class@VClsEspBuilder@lua@csgo@aw@@VEspBuilder@mod@34@$0A@@lua@aw@@SAHPAUlua_State@@@Z 100953e0 f i csgo-lua-x86:cls_espbuilder.obj
 0001:00094440       ??$Method@VClsEspBuilder@lua@csgo@aw@@$1?AddIconBottom@1234@AAEXPAVEspBuilder@mod@34@AAVState@24@@Z@?$Class@VClsEspBuilder@lua@csgo@aw@@VEspBuilder@mod@34@$0A@@lua@aw@@SAHPAUlua_State@@@Z 10095440 f i csgo-lua-x86:cls_espbuilder.obj
 0001:000944e0       ??$Method@VClsEspBuilder@lua@csgo@aw@@$1?AddIconLeft@1234@AAEXPAVEspBuilder@mod@34@AAVState@24@@Z@?$Class@VClsEspBuilder@lua@csgo@aw@@VEspBuilder@mod@34@$0A@@lua@aw@@SAHPAUlua_State@@@Z 100954e0 f i csgo-lua-x86:cls_espbuilder.obj
 0001:00094580       ??$Method@VClsEspBuilder@lua@csgo@aw@@$1?AddIconRight@1234@AAEXPAVEspBuilder@mod@34@AAVState@24@@Z@?$Class@VClsEspBuilder@lua@csgo@aw@@VEspBuilder@mod@34@$0A@@lua@aw@@SAHPAUlua_State@@@Z 10095580 f i csgo-lua-x86:cls_espbuilder.obj
 0001:00094620       ??$Method@VClsEspBuilder@lua@csgo@aw@@$1?AddIconTop@1234@AAEXPAVEspBuilder@mod@34@AAVState@24@@Z@?$Class@VClsEspBuilder@lua@csgo@aw@@VEspBuilder@mod@34@$0A@@lua@aw@@SAHPAUlua_State@@@Z 10095620 f i csgo-lua-x86:cls_espbuilder.obj
 0001:000946c0       ??$Method@VClsEspBuilder@lua@csgo@aw@@$1?AddTextBottom@1234@AAEXPAVEspBuilder@mod@34@AAVState@24@@Z@?$Class@VClsEspBuilder@lua@csgo@aw@@VEspBuilder@mod@34@$0A@@lua@aw@@SAHPAUlua_State@@@Z 100956c0 f i csgo-lua-x86:cls_espbuilder.obj
 0001:00094710       ??$Method@VClsEspBuilder@lua@csgo@aw@@$1?AddTextLeft@1234@AAEXPAVEspBuilder@mod@34@AAVState@24@@Z@?$Class@VClsEspBuilder@lua@csgo@aw@@VEspBuilder@mod@34@$0A@@lua@aw@@SAHPAUlua_State@@@Z 10095710 f i csgo-lua-x86:cls_espbuilder.obj
 0001:00094760       ??$Method@VClsEspBuilder@lua@csgo@aw@@$1?AddTextRight@1234@AAEXPAVEspBuilder@mod@34@AAVState@24@@Z@?$Class@VClsEspBuilder@lua@csgo@aw@@VEspBuilder@mod@34@$0A@@lua@aw@@SAHPAUlua_State@@@Z 10095760 f i csgo-lua-x86:cls_espbuilder.obj
 0001:000947b0       ??$Method@VClsEspBuilder@lua@csgo@aw@@$1?AddTextTop@1234@AAEXPAVEspBuilder@mod@34@AAVState@24@@Z@?$Class@VClsEspBuilder@lua@csgo@aw@@VEspBuilder@mod@34@$0A@@lua@aw@@SAHPAUlua_State@@@Z 100957b0 f i csgo-lua-x86:cls_espbuilder.obj
 0001:00094800       ??$Method@VClsEspBuilder@lua@csgo@aw@@$1?Color@1234@AAEXPAVEspBuilder@mod@34@AAVState@24@@Z@?$Class@VClsEspBuilder@lua@csgo@aw@@VEspBuilder@mod@34@$0A@@lua@aw@@SAHPAUlua_State@@@Z 10095800 f i csgo-lua-x86:cls_espbuilder.obj
 0001:00094850       ??$Method@VClsEspBuilder@lua@csgo@aw@@$1?GetEntity@1234@AAEXPAVEspBuilder@mod@34@AAVState@24@@Z@?$Class@VClsEspBuilder@lua@csgo@aw@@VEspBuilder@mod@34@$0A@@lua@aw@@SAHPAUlua_State@@@Z 10095850 f i csgo-lua-x86:cls_espbuilder.obj
 0001:000948a0       ??$Method@VClsEspBuilder@lua@csgo@aw@@$1?GetRect@1234@AAEXPAVEspBuilder@mod@34@AAVState@24@@Z@?$Class@VClsEspBuilder@lua@csgo@aw@@VEspBuilder@mod@34@$0A@@lua@aw@@SAHPAUlua_State@@@Z 100958a0 f i csgo-lua-x86:cls_espbuilder.obj
 0001:000948f0       ?AddBar@ClsEspBuilder@lua@csgo@aw@@IAEXPAVEspBuilder@mod@34@AAVState@24@W4EspPosition@cheat@4@@Z 100958f0 f   csgo-lua-x86:cls_espbuilder.obj
 0001:00094980       ?AddTextBottom@ClsEspBuilder@lua@csgo@aw@@AAEXPAVEspBuilder@mod@34@AAVState@24@@Z 10095980 f   csgo-lua-x86:cls_espbuilder.obj
 0001:000949e0       ?AddTextLeft@ClsEspBuilder@lua@csgo@aw@@AAEXPAVEspBuilder@mod@34@AAVState@24@@Z 100959e0 f   csgo-lua-x86:cls_espbuilder.obj
 0001:00094a40       ?AddTextRight@ClsEspBuilder@lua@csgo@aw@@AAEXPAVEspBuilder@mod@34@AAVState@24@@Z 10095a40 f   csgo-lua-x86:cls_espbuilder.obj
 0001:00094aa0       ?AddTextTop@ClsEspBuilder@lua@csgo@aw@@AAEXPAVEspBuilder@mod@34@AAVState@24@@Z 10095aa0 f   csgo-lua-x86:cls_espbuilder.obj
 0001:00094b00       ?Color@ClsEspBuilder@lua@csgo@aw@@AAEXPAVEspBuilder@mod@34@AAVState@24@@Z 10095b00 f   csgo-lua-x86:cls_espbuilder.obj
 0001:00094bd0       ?Get@?$Class@VClsTexture@lua@aw@@VTexture@gfx@3@$0A@@lua@aw@@QAEPAVTexture@gfx@3@PAUlua_State@@H@Z 10095bd0 f i csgo-lua-x86:cls_espbuilder.obj
 0001:00094d40       ?GetEntity@ClsEspBuilder@lua@csgo@aw@@AAEXPAVEspBuilder@mod@34@AAVState@24@@Z 10095d40 f   csgo-lua-x86:cls_espbuilder.obj
 0001:00094dc0       ?GetRect@ClsEspBuilder@lua@csgo@aw@@AAEXPAVEspBuilder@mod@34@AAVState@24@@Z 10095dc0 f   csgo-lua-x86:cls_espbuilder.obj
 0001:00094ea0       ?Init@ClsEspBuilder@lua@csgo@aw@@UAEXPAVContext@24@@Z 10095ea0 f   csgo-lua-x86:cls_espbuilder.obj
 0001:00095ce0       ?Reset@ClsEspBuilder@lua@csgo@aw@@QAEXXZ 10096ce0 f   csgo-lua-x86:cls_espbuilder.obj
 0001:00095cf0       ??$Method@VClsUserMessage@lua@csgo@aw@@$1?GetFloat@1234@AAEXPAVUserMessage@sdk@34@AAVState@24@@Z@?$Class@VClsUserMessage@lua@csgo@aw@@VUserMessage@sdk@34@$0A@@lua@aw@@SAHPAUlua_State@@@Z 10096cf0 f i csgo-lua-x86:cls_usermessage.obj
 0001:00095d40       ??$Method@VClsUserMessage@lua@csgo@aw@@$1?GetID@1234@AAEXPAVUserMessage@sdk@34@AAVState@24@@Z@?$Class@VClsUserMessage@lua@csgo@aw@@VUserMessage@sdk@34@$0A@@lua@aw@@SAHPAUlua_State@@@Z 10096d40 f i csgo-lua-x86:cls_usermessage.obj
 0001:00095da0       ??$Method@VClsUserMessage@lua@csgo@aw@@$1?GetInt@1234@AAEXPAVUserMessage@sdk@34@AAVState@24@@Z@?$Class@VClsUserMessage@lua@csgo@aw@@VUserMessage@sdk@34@$0A@@lua@aw@@SAHPAUlua_State@@@Z 10096da0 f i csgo-lua-x86:cls_usermessage.obj
 0001:00095df0       ??$Method@VClsUserMessage@lua@csgo@aw@@$1?GetString@1234@AAEXPAVUserMessage@sdk@34@AAVState@24@@Z@?$Class@VClsUserMessage@lua@csgo@aw@@VUserMessage@sdk@34@$0A@@lua@aw@@SAHPAUlua_State@@@Z 10096df0 f i csgo-lua-x86:cls_usermessage.obj
 0001:00095e40       ?GetFloat@ClsUserMessage@lua@csgo@aw@@AAEXPAVUserMessage@sdk@34@AAVState@24@@Z 10096e40 f   csgo-lua-x86:cls_usermessage.obj
 0001:00095f00       ?GetInt@ClsUserMessage@lua@csgo@aw@@AAEXPAVUserMessage@sdk@34@AAVState@24@@Z 10096f00 f   csgo-lua-x86:cls_usermessage.obj
 0001:00095f90       ?GetString@ClsUserMessage@lua@csgo@aw@@AAEXPAVUserMessage@sdk@34@AAVState@24@@Z 10096f90 f   csgo-lua-x86:cls_usermessage.obj
 0001:00096050       ?Init@ClsUserMessage@lua@csgo@aw@@UAEXPAVContext@24@@Z 10097050 f   csgo-lua-x86:cls_usermessage.obj
 0001:00096530       ??$Method@VClsStringCmd@lua@csgo@aw@@$1?GetCmd@1234@AAEXPAUStringCmd@234@AAVState@24@@Z@?$Class@VClsStringCmd@lua@csgo@aw@@UStringCmd@234@$0A@@lua@aw@@SAHPAUlua_State@@@Z 10097530 f i csgo-lua-x86:cls_stringcmd.obj
 0001:000965a0       ??$Method@VClsStringCmd@lua@csgo@aw@@$1?SetCmd@1234@AAEXPAUStringCmd@234@AAVState@24@@Z@?$Class@VClsStringCmd@lua@csgo@aw@@UStringCmd@234@$0A@@lua@aw@@SAHPAUlua_State@@@Z 100975a0 f i csgo-lua-x86:cls_stringcmd.obj
 0001:000965f0       ?Init@ClsStringCmd@lua@csgo@aw@@UAEXPAVContext@24@@Z 100975f0 f   csgo-lua-x86:cls_stringcmd.obj
 0001:00096820       ?SetCmd@ClsStringCmd@lua@csgo@aw@@AAEXPAUStringCmd@234@AAVState@24@@Z 10097820 f   csgo-lua-x86:cls_stringcmd.obj
 0001:00096890       ??$GetProperty@$MPQTrace@sdk@csgo@aw@@F0EI@@?$Class@VClsTrace@lua@csgo@aw@@VTrace@sdk@34@$0A@@lua@aw@@SAXPAXAAVState@12@@Z 10097890 f i csgo-lua-x86:cls_trace.obj
 0001:000968c0       ??$GetProperty@$MPQTrace@sdk@csgo@aw@@G0DE@@?$Class@VClsTrace@lua@csgo@aw@@VTrace@sdk@34@$0A@@lua@aw@@SAXPAXAAVState@12@@Z 100978c0 f i csgo-lua-x86:cls_trace.obj
 0001:000968f0       ??$GetProperty@$MPQTrace@sdk@csgo@aw@@H0DA@@?$Class@VClsTrace@lua@csgo@aw@@VTrace@sdk@34@$0A@@lua@aw@@SAXPAXAAVState@12@@Z 100978f0 f i csgo-lua-x86:cls_trace.obj
 0001:00096920       ??$GetProperty@$MPQTrace@sdk@csgo@aw@@H0EE@@?$Class@VClsTrace@lua@csgo@aw@@VTrace@sdk@34@$0A@@lua@aw@@SAXPAXAAVState@12@@Z 10097920 f i csgo-lua-x86:cls_trace.obj
 0001:00096950       ??$GetProperty@$MPQTrace@sdk@csgo@aw@@H0FA@@?$Class@VClsTrace@lua@csgo@aw@@VTrace@sdk@34@$0A@@lua@aw@@SAXPAXAAVState@12@@Z 10097950 f i csgo-lua-x86:cls_trace.obj
 0001:00096980       ??$GetProperty@$MPQTrace@sdk@csgo@aw@@M0CM@@?$Class@VClsTrace@lua@csgo@aw@@VTrace@sdk@34@$0A@@lua@aw@@SAXPAXAAVState@12@@Z 10097980 f i csgo-lua-x86:cls_trace.obj
 0001:000969c0       ??$GetProperty@$MPQTrace@sdk@csgo@aw@@M0DI@@?$Class@VClsTrace@lua@csgo@aw@@VTrace@sdk@34@$0A@@lua@aw@@SAXPAXAAVState@12@@Z 100979c0 f i csgo-lua-x86:cls_trace.obj
 0001:00096a00       ??$GetProperty@$MPQTrace@sdk@csgo@aw@@_N0DG@@?$Class@VClsTrace@lua@csgo@aw@@VTrace@sdk@34@$0A@@lua@aw@@SAXPAXAAVState@12@@Z 10097a00 f i csgo-lua-x86:cls_trace.obj
 0001:00096a30       ??$GetProperty@$MPQTrace@sdk@csgo@aw@@_N0DH@@?$Class@VClsTrace@lua@csgo@aw@@VTrace@sdk@34@$0A@@lua@aw@@SAXPAXAAVState@12@@Z 10097a30 f i csgo-lua-x86:cls_trace.obj
 0001:00096a60       ??$GetProperty@$MPQcplane_t@sdk@csgo@aw@@D0BA@@?$Class@VClsPlane@lua@csgo@aw@@Ucplane_t@sdk@34@$00@lua@aw@@SAXPAXAAVState@12@@Z 10097a60 f i csgo-lua-x86:cls_trace.obj
 0001:00096a90       ??$GetProperty@$MPQcplane_t@sdk@csgo@aw@@D0BB@@?$Class@VClsPlane@lua@csgo@aw@@Ucplane_t@sdk@34@$00@lua@aw@@SAXPAXAAVState@12@@Z 10097a90 f i csgo-lua-x86:cls_trace.obj
 0001:00096ac0       ??$GetProperty@$MPQcplane_t@sdk@csgo@aw@@M0M@@?$Class@VClsPlane@lua@csgo@aw@@Ucplane_t@sdk@34@$00@lua@aw@@SAXPAXAAVState@12@@Z 10097ac0 f i csgo-lua-x86:cls_trace.obj
 0001:00096b00       ??$GetProperty@$MPQcsurface_t@sdk@csgo@aw@@F03@?$Class@VClsSurface@lua@csgo@aw@@Ucsurface_t@sdk@34@$00@lua@aw@@SAXPAXAAVState@12@@Z 10097b00 f i csgo-lua-x86:cls_trace.obj
 0001:00096b30       ??$GetProperty@$MPQcsurface_t@sdk@csgo@aw@@G05@?$Class@VClsSurface@lua@csgo@aw@@Ucsurface_t@sdk@34@$00@lua@aw@@SAXPAXAAVState@12@@Z 10097b30 f i csgo-lua-x86:cls_trace.obj
 0001:00096b60       ??$GetPropertyObject@$MPQTrace@sdk@csgo@aw@@Ucplane_t@234@0BI@U5234@@?$Class@VClsTrace@lua@csgo@aw@@VTrace@sdk@34@$0A@@lua@aw@@SAXPAXAAVState@12@@Z 10097b60 f i csgo-lua-x86:cls_trace.obj
 0001:00096bd0       ??$GetPropertyObject@$MPQTrace@sdk@csgo@aw@@Ucsurface_t@234@0DM@U5234@@?$Class@VClsTrace@lua@csgo@aw@@VTrace@sdk@34@$0A@@lua@aw@@SAXPAXAAVState@12@@Z 10097bd0 f i csgo-lua-x86:cls_trace.obj
 0001:00096c40       ??$GetPropertyObject@$MPQTrace@sdk@csgo@aw@@VVector3@4@0A@V54@@?$Class@VClsTrace@lua@csgo@aw@@VTrace@sdk@34@$0A@@lua@aw@@SAXPAXAAVState@12@@Z 10097c40 f i csgo-lua-x86:cls_trace.obj
 0001:00096c50       ??$GetPropertyObject@$MPQTrace@sdk@csgo@aw@@VVector3@4@0M@V54@@?$Class@VClsTrace@lua@csgo@aw@@VTrace@sdk@34@$0A@@lua@aw@@SAXPAXAAVState@12@@Z 10097c50 f i csgo-lua-x86:cls_trace.obj
 0001:00096c70       ??$GetPropertyObject@$MPQcplane_t@sdk@csgo@aw@@VVector3@4@0A@V54@@?$Class@VClsPlane@lua@csgo@aw@@Ucplane_t@sdk@34@$00@lua@aw@@SAXPAXAAVState@12@@Z 10097c70 f i csgo-lua-x86:cls_trace.obj
 0001:00096c80       ??$Method@VClsTrace@lua@csgo@aw@@$1?__gc@1234@AAEXPAVTrace@sdk@34@AAVState@24@@Z@?$Class@VClsTrace@lua@csgo@aw@@VTrace@sdk@34@$0A@@lua@aw@@SAHPAUlua_State@@@Z 10097c80 f i csgo-lua-x86:cls_trace.obj
 0001:00096cd0       ??$SetProperty@$MPQTrace@sdk@csgo@aw@@F0EI@F@?$Class@VClsTrace@lua@csgo@aw@@VTrace@sdk@34@$0A@@lua@aw@@SAXPAXAAVState@12@@Z 10097cd0 f i csgo-lua-x86:cls_trace.obj
 0001:00096d00       ??$SetProperty@$MPQTrace@sdk@csgo@aw@@G0DE@G@?$Class@VClsTrace@lua@csgo@aw@@VTrace@sdk@34@$0A@@lua@aw@@SAXPAXAAVState@12@@Z 10097d00 f i csgo-lua-x86:cls_trace.obj
 0001:00096d30       ??$SetProperty@$MPQTrace@sdk@csgo@aw@@H0DA@H@?$Class@VClsTrace@lua@csgo@aw@@VTrace@sdk@34@$0A@@lua@aw@@SAXPAXAAVState@12@@Z 10097d30 f i csgo-lua-x86:cls_trace.obj
 0001:00096d60       ??$SetProperty@$MPQTrace@sdk@csgo@aw@@H0EE@H@?$Class@VClsTrace@lua@csgo@aw@@VTrace@sdk@34@$0A@@lua@aw@@SAXPAXAAVState@12@@Z 10097d60 f i csgo-lua-x86:cls_trace.obj
 0001:00096d90       ??$SetProperty@$MPQTrace@sdk@csgo@aw@@H0FA@H@?$Class@VClsTrace@lua@csgo@aw@@VTrace@sdk@34@$0A@@lua@aw@@SAXPAXAAVState@12@@Z 10097d90 f i csgo-lua-x86:cls_trace.obj
 0001:00096dc0       ??$SetProperty@$MPQTrace@sdk@csgo@aw@@M0CM@M@?$Class@VClsTrace@lua@csgo@aw@@VTrace@sdk@34@$0A@@lua@aw@@SAXPAXAAVState@12@@Z 10097dc0 f i csgo-lua-x86:cls_trace.obj
 0001:00096df0       ??$SetProperty@$MPQTrace@sdk@csgo@aw@@M0DI@M@?$Class@VClsTrace@lua@csgo@aw@@VTrace@sdk@34@$0A@@lua@aw@@SAXPAXAAVState@12@@Z 10097df0 f i csgo-lua-x86:cls_trace.obj
 0001:00096e20       ??$SetProperty@$MPQTrace@sdk@csgo@aw@@_N0DG@_N@?$Class@VClsTrace@lua@csgo@aw@@VTrace@sdk@34@$0A@@lua@aw@@SAXPAXAAVState@12@@Z 10097e20 f i csgo-lua-x86:cls_trace.obj
 0001:00096e90       ??$SetProperty@$MPQTrace@sdk@csgo@aw@@_N0DH@_N@?$Class@VClsTrace@lua@csgo@aw@@VTrace@sdk@34@$0A@@lua@aw@@SAXPAXAAVState@12@@Z 10097e90 f i csgo-lua-x86:cls_trace.obj
 0001:00096f00       ??$SetProperty@$MPQcplane_t@sdk@csgo@aw@@D0BA@D@?$Class@VClsPlane@lua@csgo@aw@@Ucplane_t@sdk@34@$00@lua@aw@@SAXPAXAAVState@12@@Z 10097f00 f i csgo-lua-x86:cls_trace.obj
 0001:00096f30       ??$SetProperty@$MPQcplane_t@sdk@csgo@aw@@D0BB@D@?$Class@VClsPlane@lua@csgo@aw@@Ucplane_t@sdk@34@$00@lua@aw@@SAXPAXAAVState@12@@Z 10097f30 f i csgo-lua-x86:cls_trace.obj
 0001:00096f60       ??$SetProperty@$MPQcplane_t@sdk@csgo@aw@@M0M@M@?$Class@VClsPlane@lua@csgo@aw@@Ucplane_t@sdk@34@$00@lua@aw@@SAXPAXAAVState@12@@Z 10097f60 f i csgo-lua-x86:cls_trace.obj
 0001:00096f90       ??$SetProperty@$MPQcsurface_t@sdk@csgo@aw@@F03F@?$Class@VClsSurface@lua@csgo@aw@@Ucsurface_t@sdk@34@$00@lua@aw@@SAXPAXAAVState@12@@Z 10097f90 f i csgo-lua-x86:cls_trace.obj
 0001:00096fc0       ??$SetProperty@$MPQcsurface_t@sdk@csgo@aw@@G05G@?$Class@VClsSurface@lua@csgo@aw@@Ucsurface_t@sdk@34@$00@lua@aw@@SAXPAXAAVState@12@@Z 10097fc0 f i csgo-lua-x86:cls_trace.obj
 0001:00096ff0       ??$SetPropertyObject@$MPQTrace@sdk@csgo@aw@@Ucplane_t@234@0BI@U5234@@?$Class@VClsTrace@lua@csgo@aw@@VTrace@sdk@34@$0A@@lua@aw@@SAXPAXAAVState@12@@Z 10097ff0 f i csgo-lua-x86:cls_trace.obj
 0001:00097030       ??$SetPropertyObject@$MPQTrace@sdk@csgo@aw@@Ucsurface_t@234@0DM@U5234@@?$Class@VClsTrace@lua@csgo@aw@@VTrace@sdk@34@$0A@@lua@aw@@SAXPAXAAVState@12@@Z 10098030 f i csgo-lua-x86:cls_trace.obj
 0001:00097070       ??$SetPropertyObject@$MPQTrace@sdk@csgo@aw@@VVector3@4@0A@V54@@?$Class@VClsTrace@lua@csgo@aw@@VTrace@sdk@34@$0A@@lua@aw@@SAXPAXAAVState@12@@Z 10098070 f i csgo-lua-x86:cls_trace.obj
 0001:000970b0       ??$SetPropertyObject@$MPQTrace@sdk@csgo@aw@@VVector3@4@0M@V54@@?$Class@VClsTrace@lua@csgo@aw@@VTrace@sdk@34@$0A@@lua@aw@@SAXPAXAAVState@12@@Z 100980b0 f i csgo-lua-x86:cls_trace.obj
 0001:000970f0       ??$SetPropertyObject@$MPQcplane_t@sdk@csgo@aw@@VVector3@4@0A@V54@@?$Class@VClsPlane@lua@csgo@aw@@Ucplane_t@sdk@34@$00@lua@aw@@SAXPAXAAVState@12@@Z 100980f0 f i csgo-lua-x86:cls_trace.obj
 0001:00097130       ?GetEntity@ClsTrace@lua@csgo@aw@@CAXPAVTrace@sdk@34@AAVState@24@@Z 10098130 f   csgo-lua-x86:cls_trace.obj
 0001:000971b0       ?GetName@ClsSurface@lua@csgo@aw@@CAXPAUcsurface_t@sdk@34@AAVState@24@@Z 100981b0 f   csgo-lua-x86:cls_trace.obj
 0001:000971f0       ?Init@ClsPlane@lua@csgo@aw@@UAEXPAVContext@24@@Z 100981f0 f   csgo-lua-x86:cls_trace.obj
 0001:00097590       ?Init@ClsSurface@lua@csgo@aw@@UAEXPAVContext@24@@Z 10098590 f   csgo-lua-x86:cls_trace.obj
 0001:00097870       ?Init@ClsTrace@lua@csgo@aw@@UAEXPAVContext@24@@Z 10098870 f   csgo-lua-x86:cls_trace.obj
 0001:00098610       ?SetEntity@ClsTrace@lua@csgo@aw@@CAXPAVTrace@sdk@34@AAVState@24@@Z 10099610 f   csgo-lua-x86:cls_trace.obj
 0001:00098620       ?SetName@ClsSurface@lua@csgo@aw@@CAXPAUcsurface_t@sdk@34@AAVState@24@@Z 10099620 f   csgo-lua-x86:cls_trace.obj
 0001:00098630       ??$?0ABQAVClientClass@sdk@csgo@aw@@$$Z$$V@?$pair@QAVClientClass@sdk@csgo@aw@@V?$unordered_map@V?$basic_string@DU?$char_traits@D@std@@V?$allocator@D@2@@std@@PAVRecvProp@sdk@csgo@aw@@U?$hash@V?$basic_string@DU?$char_traits@D@std@@V?$allocator@D@2@@std@@@2@U?$equal_to@V?$basic_string@DU?$char_traits@D@std@@V?$allocator@D@2@@std@@@2@V?$allocator@U?$pair@$$CBV?$basic_string@DU?$char_traits@D@std@@V?$allocator@D@2@@std@@PAVRecvProp@sdk@csgo@aw@@@std@@@2@@std@@@std@@QAE@Upiecewise_construct_t@1@V?$tuple@ABQAVClientClass@sdk@csgo@aw@@@1@V?$tuple@$$V@1@@Z 10099630 f i csgo-lua-x86:entitycache.obj
 0001:000986a0       ??$_Emplace_reallocate@ABQAVClientClass@sdk@csgo@aw@@@?$vector@PAVClientClass@sdk@csgo@aw@@V?$allocator@PAVClientClass@sdk@csgo@aw@@@std@@@std@@AAEPAPAVClientClass@sdk@csgo@aw@@QAPAV2345@ABQAV2345@@Z 100996a0 f i csgo-lua-x86:entitycache.obj
 0001:000987e0       ??$_Find_last@PAVClientClass@sdk@csgo@aw@@@?$_Hash@V?$_Umap_traits@PAVClientClass@sdk@csgo@aw@@V?$unordered_map@V?$basic_string@DU?$char_traits@D@std@@V?$allocator@D@2@@std@@PAVRecvProp@sdk@csgo@aw@@U?$hash@V?$basic_string@DU?$char_traits@D@std@@V?$allocator@D@2@@std@@@2@U?$equal_to@V?$basic_string@DU?$char_traits@D@std@@V?$allocator@D@2@@std@@@2@V?$allocator@U?$pair@$$CBV?$basic_string@DU?$char_traits@D@std@@V?$allocator@D@2@@std@@PAVRecvProp@sdk@csgo@aw@@@std@@@2@@std@@V?$_Uhash_compare@PAVClientClass@sdk@csgo@aw@@U?$hash@PAVClientClass@sdk@csgo@aw@@@std@@U?$equal_to@PAVClientClass@sdk@csgo@aw@@@6@@6@V?$allocator@U?$pair@QAVClientClass@sdk@csgo@aw@@V?$unordered_map@V?$basic_string@DU?$char_traits@D@std@@V?$allocator@D@2@@std@@PAVRecvProp@sdk@csgo@aw@@U?$hash@V?$basic_string@DU?$char_traits@D@std@@V?$allocator@D@2@@std@@@2@U?$equal_to@V?$basic_string@DU?$char_traits@D@std@@V?$allocator@D@2@@std@@@2@V?$allocator@U?$pair@$$CBV?$basic_string@DU?$char_traits@D@std@@V?$allocator@D@2@@std@@PAVRecvProp@sdk@csgo@aw@@@std@@@2@@std@@@std@@@6@$0A@@std@@@std@@IBE?AU?$_Hash_find_last_result@PAU?$_List_node@U?$pair@QAVClientClass@sdk@csgo@aw@@V?$unordered_map@V?$basic_string@DU?$char_traits@D@std@@V?$allocator@D@2@@std@@PAVRecvProp@sdk@csgo@aw@@U?$hash@V?$basic_string@DU?$char_traits@D@std@@V?$allocator@D@2@@std@@@2@U?$equal_to@V?$basic_string@DU?$char_traits@D@std@@V?$allocator@D@2@@std@@@2@V?$allocator@U?$pair@$$CBV?$basic_string@DU?$char_traits@D@std@@V?$allocator@D@2@@std@@PAVRecvProp@sdk@csgo@aw@@@std@@@2@@std@@@std@@PAX@std@@@1@ABQAVClientClass@sdk@csgo@aw@@I@Z 100997e0 f i csgo-lua-x86:entitycache.obj
 0001:00098850       ??$_Find_last@PAVClientClass@sdk@csgo@aw@@@?$_Hash@V?$_Umap_traits@PAVClientClass@sdk@csgo@aw@@V?$vector@PAVClientClass@sdk@csgo@aw@@V?$allocator@PAVClientClass@sdk@csgo@aw@@@std@@@std@@V?$_Uhash_compare@PAVClientClass@sdk@csgo@aw@@U?$hash@PAVClientClass@sdk@csgo@aw@@@std@@U?$equal_to@PAVClientClass@sdk@csgo@aw@@@6@@6@V?$allocator@U?$pair@QAVClientClass@sdk@csgo@aw@@V?$vector@PAVClientClass@sdk@csgo@aw@@V?$allocator@PAVClientClass@sdk@csgo@aw@@@std@@@std@@@std@@@6@$0A@@std@@@std@@IBE?AU?$_Hash_find_last_result@PAU?$_List_node@U?$pair@QAVClientClass@sdk@csgo@aw@@V?$vector@PAVClientClass@sdk@csgo@aw@@V?$allocator@PAVClientClass@sdk@csgo@aw@@@std@@@std@@@std@@PAX@std@@@1@ABQAVClientClass@sdk@csgo@aw@@I@Z 10099850 f i csgo-lua-x86:entitycache.obj
 0001:000988c0       ??$_Find_last@V?$basic_string@DU?$char_traits@D@std@@V?$allocator@D@2@@std@@@?$_Hash@V?$_Umap_traits@V?$basic_string@DU?$char_traits@D@std@@V?$allocator@D@2@@std@@HV?$_Uhash_compare@V?$basic_string@DU?$char_traits@D@std@@V?$allocator@D@2@@std@@U?$hash@V?$basic_string@DU?$char_traits@D@std@@V?$allocator@D@2@@std@@@2@U?$equal_to@V?$basic_string@DU?$char_traits@D@std@@V?$allocator@D@2@@std@@@2@@2@V?$allocator@U?$pair@$$CBV?$basic_string@DU?$char_traits@D@std@@V?$allocator@D@2@@std@@H@std@@@2@$0A@@std@@@std@@IBE?AU?$_Hash_find_last_result@PAU?$_List_node@U?$pair@$$CBV?$basic_string@DU?$char_traits@D@std@@V?$allocator@D@2@@std@@H@std@@PAX@std@@@1@ABV?$basic_string@DU?$char_traits@D@std@@V?$allocator@D@2@@1@I@Z 100998c0 f i csgo-lua-x86:entitycache.obj
 0001:00098950       ??$_Find_last@V?$basic_string@DU?$char_traits@D@std@@V?$allocator@D@2@@std@@@?$_Hash@V?$_Umap_traits@V?$basic_string@DU?$char_traits@D@std@@V?$allocator@D@2@@std@@PAVClientClass@sdk@csgo@aw@@V?$_Uhash_compare@V?$basic_string@DU?$char_traits@D@std@@V?$allocator@D@2@@std@@U?$hash@V?$basic_string@DU?$char_traits@D@std@@V?$allocator@D@2@@std@@@2@U?$equal_to@V?$basic_string@DU?$char_traits@D@std@@V?$allocator@D@2@@std@@@2@@2@V?$allocator@U?$pair@$$CBV?$basic_string@DU?$char_traits@D@std@@V?$allocator@D@2@@std@@PAVClientClass@sdk@csgo@aw@@@std@@@2@$0A@@std@@@std@@IBE?AU?$_Hash_find_last_result@PAU?$_List_node@U?$pair@$$CBV?$basic_string@DU?$char_traits@D@std@@V?$allocator@D@2@@std@@PAVClientClass@sdk@csgo@aw@@@std@@PAX@std@@@1@ABV?$basic_string@DU?$char_traits@D@std@@V?$allocator@D@2@@1@I@Z 10099950 f i csgo-lua-x86:entitycache.obj
 0001:000989e0       ??$_Find_last@V?$basic_string@DU?$char_traits@D@std@@V?$allocator@D@2@@std@@@?$_Hash@V?$_Umap_traits@V?$basic_string@DU?$char_traits@D@std@@V?$allocator@D@2@@std@@PAVRecvProp@sdk@csgo@aw@@V?$_Uhash_compare@V?$basic_string@DU?$char_traits@D@std@@V?$allocator@D@2@@std@@U?$hash@V?$basic_string@DU?$char_traits@D@std@@V?$allocator@D@2@@std@@@2@U?$equal_to@V?$basic_string@DU?$char_traits@D@std@@V?$allocator@D@2@@std@@@2@@2@V?$allocator@U?$pair@$$CBV?$basic_string@DU?$char_traits@D@std@@V?$allocator@D@2@@std@@PAVRecvProp@sdk@csgo@aw@@@std@@@2@$0A@@std@@@std@@IBE?AU?$_Hash_find_last_result@PAU?$_List_node@U?$pair@$$CBV?$basic_string@DU?$char_traits@D@std@@V?$allocator@D@2@@std@@PAVRecvProp@sdk@csgo@aw@@@std@@PAX@std@@@1@ABV?$basic_string@DU?$char_traits@D@std@@V?$allocator@D@2@@1@I@Z 100999e0 f i csgo-lua-x86:entitycache.obj
 0001:00098a70       ??$_Free_non_head@V?$allocator@U?$_List_node@U?$pair@$$CBV?$basic_string@DU?$char_traits@D@std@@V?$allocator@D@2@@std@@H@std@@PAX@std@@@std@@@?$_List_node@U?$pair@$$CBV?$basic_string@DU?$char_traits@D@std@@V?$allocator@D@2@@std@@H@std@@PAX@std@@SAXAAV?$allocator@U?$_List_node@U?$pair@$$CBV?$basic_string@DU?$char_traits@D@std@@V?$allocator@D@2@@std@@H@std@@PAX@std@@@1@PAU01@@Z 10099a70 f i csgo-lua-x86:entitycache.obj
 0001:00098ad0       ??$_Free_non_head@V?$allocator@U?$_List_node@U?$pair@$$CBV?$basic_string@DU?$char_traits@D@std@@V?$allocator@D@2@@std@@PAVClientClass@sdk@csgo@aw@@@std@@PAX@std@@@std@@@?$_List_node@U?$pair@$$CBV?$basic_string@DU?$char_traits@D@std@@V?$allocator@D@2@@std@@PAVClientClass@sdk@csgo@aw@@@std@@PAX@std@@SAXAAV?$allocator@U?$_List_node@U?$pair@$$CBV?$basic_string@DU?$char_traits@D@std@@V?$allocator@D@2@@std@@PAVClientClass@sdk@csgo@aw@@@std@@PAX@std@@@1@PAU01@@Z 10099ad0 f i csgo-lua-x86:entitycache.obj
 0001:00098b30       ??$_Free_non_head@V?$allocator@U?$_List_node@U?$pair@$$CBV?$basic_string@DU?$char_traits@D@std@@V?$allocator@D@2@@std@@PAVRecvProp@sdk@csgo@aw@@@std@@PAX@std@@@std@@@?$_List_node@U?$pair@$$CBV?$basic_string@DU?$char_traits@D@std@@V?$allocator@D@2@@std@@PAVRecvProp@sdk@csgo@aw@@@std@@PAX@std@@SAXAAV?$allocator@U?$_List_node@U?$pair@$$CBV?$basic_string@DU?$char_traits@D@std@@V?$allocator@D@2@@std@@PAVRecvProp@sdk@csgo@aw@@@std@@PAX@std@@@1@PAU01@@Z 10099b30 f i csgo-lua-x86:entitycache.obj
 0001:00098b90       ??$_Free_non_head@V?$allocator@U?$_List_node@U?$pair@QAVClientClass@sdk@csgo@aw@@V?$vector@PAVClientClass@sdk@csgo@aw@@V?$allocator@PAVClientClass@sdk@csgo@aw@@@std@@@std@@@std@@PAX@std@@@std@@@?$_List_node@U?$pair@QAVClientClass@sdk@csgo@aw@@V?$vector@PAVClientClass@sdk@csgo@aw@@V?$allocator@PAVClientClass@sdk@csgo@aw@@@std@@@std@@@std@@PAX@std@@SAXAAV?$allocator@U?$_List_node@U?$pair@QAVClientClass@sdk@csgo@aw@@V?$vector@PAVClientClass@sdk@csgo@aw@@V?$allocator@PAVClientClass@sdk@csgo@aw@@@std@@@std@@@std@@PAX@std@@@1@PAU01@@Z 10099b90 f i csgo-lua-x86:entitycache.obj
 0001:00098c00       ??$_Traits_equal@U?$char_traits@D@std@@@std@@YA_NQBDI0I@Z 10099c00 f i csgo-lua-x86:entitycache.obj
